 ZoneServer

 Timestamp is 53aa4a61 (Wed Jun 25 12:04:49 2014)

 Preferred load address is 00400000

 Start         Length     Name                   Class
 0001:00000000 000fe1f6H .text                   CODE
 0001:000fe200 00006e0dH .text$x                 CODE
 0001:00105010 00002a5cH .text$yc                CODE
 0001:00107a70 00000526H .text$yd                CODE
 0002:00000000 000005f4H .idata$5                DATA
 0002:00000600 00007e10H .rdata                  DATA
 0002:00008410 0000004aH .rdata$debug            DATA
 0002:0000845c 00000088H .rdata$r                DATA
 0002:000084e4 00000004H .rtc$IAA                DATA
 0002:000084e8 00000004H .rtc$IZZ                DATA
 0002:000084ec 00000004H .rtc$TAA                DATA
 0002:000084f0 00000004H .rtc$TZZ                DATA
 0002:000084f4 0000c39cH .xdata$x                DATA
 0002:00014890 00000000H ATL$__a                 DATA
 0002:00014890 00000000H ATL$__z                 DATA
 0002:00014890 00000154H .idata$2                DATA
 0002:000149e4 00000014H .idata$3                DATA
 0002:000149f8 000005f4H .idata$4                DATA
 0002:00014fec 0000240eH .idata$6                DATA
 0002:000173fa 00000000H .edata                  DATA
 0003:00000000 00000004H .CRT$XCA                DATA
 0003:00000004 00000004H .CRT$XCAA               DATA
 0003:00000008 0000000cH .CRT$XCL                DATA
 0003:00000014 0000059cH .CRT$XCU                DATA
 0003:000005b0 00000004H .CRT$XCZ                DATA
 0003:000005b4 00000004H .CRT$XIA                DATA
 0003:000005b8 00000004H .CRT$XIZ                DATA
 0003:000005bc 00000004H .CRT$XLA                DATA
 0003:000005c0 00000004H .CRT$XLZ                DATA
 0003:000005d0 000005f4H .data                   DATA
 0003:00000bd0 01b14c48H .bss                    DATA
 0004:00000000 00000001H .tls                    DATA
 0004:00000008 00002800H .tls$                   DATA
 0004:00002808 00000001H .tls$ZZZ                DATA

  Address         Publics by Value              Rva+Base     Lib:Object

 0000:00000000       ___safe_se_handler_table   00000000     <absolute>
 0000:00000000       __except_list              00000000     <absolute>
 0000:00000000       ___safe_se_handler_count   00000000     <absolute>
 0000:0000002c       __tls_array                0000002c     <absolute>
 0000:00009876       __ldused                   00009876     <absolute>
 0000:00009876       __fltused                  00009876     <absolute>
 0000:00000000       ___ImageBase               00400000     <linker-defined>
 0001:00000000       ??_H@YGXPAXIHP6EPAX0@Z@Z   00401000 f i NetGMModule.obj
 0001:00000030       ?_AtlGetThreadACPThunk@ATL@@YGIXZ 00401030 f i NetGMModule.obj
 0001:000000b0       ?InterlockedExchangePointer@@YGPAXPAPAXPAX@Z 004010b0 f i NetGMModule.obj
 0001:000000d0       ?_AtlGetThreadACPFake@ATL@@YGIXZ 004010d0 f i NetGMModule.obj
 0001:00000160       ?_AtlGetThreadACPReal@ATL@@YGIXZ 00401160 f i NetGMModule.obj
 0001:00000170       ??0CGMLevelChecker@@QAE@XZ 00401170 f   NetGMModule.obj
 0001:000001b0       ??1CGMLevelChecker@@QAE@XZ 004011b0 f   NetGMModule.obj
 0001:000001c0       ?CheckLevel@CGMLevelChecker@@QAEHEG@Z 004011c0 f   NetGMModule.obj
 0001:00000200       ??0CNetGMModule@@QAE@XZ    00401200 f   NetGMModule.obj
 0001:00000210       ??1CNetGMModule@@QAE@XZ    00401210 f   NetGMModule.obj
 0001:00000260       ?Init@CNetGMModule@@QAEXXZ 00401260 f   NetGMModule.obj
 0001:000002f0       ?OnGMMessage@CNetGMModule@@QAEH_KPAUSGMMMsg@@H@Z 004012f0 f   NetGMModule.obj
 0001:00001880       ?GetChatMessage@CNetGMModule@@QAEH_KPAUSChatBaseMsg@@PAVCPlayer@@@Z 00402880 f   NetGMModule.obj
 0001:00001970       ?GetAccountLimit@@YAHPAVCPlayer@@@Z 00402970 f   NetGMModule.obj
 0001:000019d0       ?DispatchGameMngMessage@CNetGMModule@@QAEH_KPAUSQGameMngMsg@@PAVCPlayer@@@Z 004029d0 f   NetGMModule.obj
 0001:00002080       ?MoveSomebody@@YAHPBDGGG@Z 00403080 f   NetGMModule.obj
 0001:00002120       ?TypeSomebody@@YAHPBD@Z    00403120 f   NetGMModule.obj
 0001:000023e0       ??_GCGMLevelChecker@@QAEPAXI@Z 004033e0 f i NetGMModule.obj
 0001:00002410       ?DynamicCast@IObject@@QAEPAV1@H@Z 00403410 f i NetGMModule.obj
 0001:00002450       ??1shared_count@detail@boost@@QAE@XZ 00403450 f i NetGMModule.obj
 0001:00002470       ?release@sp_counted_base@detail@boost@@QAEXXZ 00403470 f i NetGMModule.obj
 0001:000024a0       ?weak_release@sp_counted_base@detail@boost@@QAEXXZ 004034a0 f i NetGMModule.obj
 0001:000024d0       ?GetAccount@CPlayer@@QAEPBDXZ 004034d0 f i NetGMModule.obj
 0001:000024f0       ??ASysTip@@QAEAAU0@ABVVariant@lite@@@Z 004034f0 f i NetGMModule.obj
 0001:00002520       ??0SATalkMaskGMMsg@@QAE@XZ 00403520 f i NetGMModule.obj
 0001:00002540       ??0SBaseTalkMaskGMMsg@@QAE@XZ 00403540 f i NetGMModule.obj
 0001:00002560       ??0SGMMMsg@@QAE@XZ         00403560 f i NetGMModule.obj
 0001:00002580       ??0SAMovebyMeGMMsg@@QAE@XZ 00403580 f i NetGMModule.obj
 0001:000025a0       ??0SBaseMovebyMeGMMsg@@QAE@XZ 004035a0 f i NetGMModule.obj
 0001:000025c0       ??0SACheckSBInfoGMMsg@@QAE@XZ 004035c0 f i NetGMModule.obj
 0001:000025e0       ??0SBaseCheckSBInfo@@QAE@XZ 004035e0 f i NetGMModule.obj
 0001:00002600       ??0SAGetMaskNameGMMsg@@QAE@XZ 00403600 f i NetGMModule.obj
 0001:00002620       ??0SBaseGetMaskNameGMMsg@@QAE@XZ 00403620 f i NetGMModule.obj
 0001:00002640       ??0SQCheckOnlineGMGMMsg@@QAE@XZ 00403640 f i NetGMModule.obj
 0001:00002660       ??0SBaseCheckOnlineGMGMMsg@@QAE@XZ 00403660 f i NetGMModule.obj
 0001:00002680       ??0SASayGlobalGMMsg@@QAE@XZ 00403680 f i NetGMModule.obj
 0001:000026a0       ??0SBaseSayGlobalGMMsg@@QAE@XZ 004036a0 f i NetGMModule.obj
 0001:000026c0       ??0SAEXECGMCMD@@QAE@XZ     004036c0 f i NetGMModule.obj
 0001:000026e0       ??0SBaseGMCMD@@QAE@XZ      004036e0 f i NetGMModule.obj
 0001:00002700       ??0SAGMSResetMsg@@QAE@XZ   00403700 f i NetGMModule.obj
 0001:00002720       ??0SGMSResetMsg@@QAE@XZ    00403720 f i NetGMModule.obj
 0001:00002740       ??0SAGMCheckChatGMMsg@@QAE@XZ 00403740 f i NetGMModule.obj
 0001:00002760       ??0SBaseCheckChatGMMsg@@QAE@XZ 00403760 f i NetGMModule.obj
 0001:00002780       ?RestoreFullHPDirectly@CFightObject@@QAEXXZ 00403780 f i NetGMModule.obj
 0001:000027a0       ?GetMaxHP@CFightObject@@QAEKXZ 004037a0 f i NetGMModule.obj
 0001:000027c0       ?isDead@CFightObject@@QAE_NXZ 004037c0 f i NetGMModule.obj
 0001:00002810       ?GetCurActionID@CActiveObject@@QAE?AW4EActionState@@XZ 00403810 f i NetGMModule.obj
 0001:00002830       ?GetBackupActionID@CActiveObject@@QAEHXZ 00403830 f i NetGMModule.obj
 0001:00002850       ?SetCamp@CPlayer@@QAEXE@Z  00403850 f i NetGMModule.obj
 0001:00002880       ??B?$shared_ptr@VIObject@@@boost@@QBEPQ01@PAVIObject@@XZ 00403880 f i NetGMModule.obj
 0001:000028a0       ??A?$map@V?$basic_string@DU?$char_traits@D@std@@V?$allocator@D@2@@std@@KU?$less@V?$basic_string@DU?$char_traits@D@std@@V?$allocator@D@2@@std@@@2@V?$allocator@U?$pair@$$CBV?$basic_string@DU?$char_traits@D@std@@V?$allocator@D@2@@std@@K@std@@@2@@std@@QAEAAKABV?$basic_string@DU?$char_traits@D@std@@V?$allocator@D@2@@1@@Z 004038a0 f i NetGMModule.obj
 0001:00002980       ?erase@?$_Tree@V?$_Tmap_traits@V?$basic_string@DU?$char_traits@D@std@@V?$allocator@D@2@@std@@KU?$less@V?$basic_string@DU?$char_traits@D@std@@V?$allocator@D@2@@std@@@2@V?$allocator@U?$pair@$$CBV?$basic_string@DU?$char_traits@D@std@@V?$allocator@D@2@@std@@K@std@@@2@$0A@@std@@@std@@QAEIABV?$basic_string@DU?$char_traits@D@std@@V?$allocator@D@2@@2@@Z 00403980 f i NetGMModule.obj
 0001:000029e0       ??Eiterator@?$_Tree@V?$_Tmap_traits@V?$basic_string@DU?$char_traits@D@std@@V?$allocator@D@2@@std@@HU?$less@V?$basic_string@DU?$char_traits@D@std@@V?$allocator@D@2@@std@@@2@V?$allocator@U?$pair@$$CBV?$basic_string@DU?$char_traits@D@std@@V?$allocator@D@2@@std@@H@std@@@2@$0A@@std@@@std@@QAE?AV012@H@Z 004039e0 f i 区域服务器.obj
 0001:000029e0       ??Eiterator@?$_Tree@V?$_Tmap_traits@V?$basic_string@DU?$char_traits@D@std@@V?$allocator@D@2@@std@@USTraceFile@@U?$less@V?$basic_string@DU?$char_traits@D@std@@V?$allocator@D@2@@std@@@2@V?$allocator@U?$pair@$$CBV?$basic_string@DU?$char_traits@D@std@@V?$allocator@D@2@@std@@USTraceFile@@@std@@@2@$0A@@std@@@std@@QAE?AV012@H@Z 004039e0 f i traceinfo.obj
 0001:000029e0       ??Eiterator@?$_Tree@V?$_Tmap_traits@V?$basic_string@DU?$char_traits@D@std@@V?$allocator@D@2@@std@@KU?$less@V?$basic_string@DU?$char_traits@D@std@@V?$allocator@D@2@@std@@@2@V?$allocator@U?$pair@$$CBV?$basic_string@DU?$char_traits@D@std@@V?$allocator@D@2@@std@@K@std@@@2@$0A@@std@@@std@@QAE?AV012@H@Z 004039e0 f i NetGMModule.obj
 0001:000029e0       ??Eiterator@?$_Tree@V?$_Tmap_traits@V?$basic_string@DU?$char_traits@D@std@@V?$allocator@D@2@@std@@PAUCooler@@U?$less@V?$basic_string@DU?$char_traits@D@std@@V?$allocator@D@2@@std@@@2@V?$allocator@U?$pair@$$CBV?$basic_string@DU?$char_traits@D@std@@V?$allocator@D@2@@std@@PAUCooler@@@std@@@2@$0A@@std@@@std@@QAE?AV012@H@Z 004039e0 f i GameObjects:FightObject.obj
 0001:000029e0       ??Eiterator@?$_Tree@V?$_Tmap_traits@V?$basic_string@DU?$char_traits@D@std@@V?$allocator@D@2@@std@@PAVBuffBase@@U?$less@V?$basic_string@DU?$char_traits@D@std@@V?$allocator@D@2@@std@@@2@V?$allocator@U?$pair@$$CBV?$basic_string@DU?$char_traits@D@std@@V?$allocator@D@2@@std@@PAVBuffBase@@@std@@@2@$0A@@std@@@std@@QAE?AV012@H@Z 004039e0 f i GameObjects:Player.obj
 0001:000029e0       ??Eiterator@?$_Tree@V?$_Tmap_traits@KUSFBData@@U?$less@K@std@@V?$allocator@U?$pair@$$CBKUSFBData@@@std@@@3@$0A@@std@@@std@@QAE?AV012@H@Z 004039e0 f i GameObjects:Player.obj
 0001:00002a10       ??1?$pair@$$CBV?$basic_string@DU?$char_traits@D@std@@V?$allocator@D@2@@std@@USTraceFile@@@std@@QAE@XZ 00403a10 f i traceinfo.obj
 0001:00002a10       ??1?$pair@$$CBV?$basic_string@DU?$char_traits@D@std@@V?$allocator@D@2@@std@@K@std@@QAE@XZ 00403a10 f i NetGMModule.obj
 0001:00002a10       ??1?$pair@$$CBV?$basic_string@DU?$char_traits@D@std@@V?$allocator@D@2@@std@@PAUCooler@@@std@@QAE@XZ 00403a10 f i GameObjects:FightObject.obj
 0001:00002a10       ??1?$pair@$$CBV?$basic_string@DU?$char_traits@D@std@@V?$allocator@D@2@@std@@UNode@ProfileManager@jex@@@std@@QAE@XZ 00403a10 f i TimeProber.obj
 0001:00002a10       ??1?$pair@$$CBV?$basic_string@DU?$char_traits@D@std@@V?$allocator@D@2@@std@@PAVBuffBase@@@std@@QAE@XZ 00403a10 f i GameObjects:Player.obj
 0001:00002a10       ??1?$pair@$$CBV?$basic_string@DU?$char_traits@D@std@@V?$allocator@D@2@@std@@H@std@@QAE@XZ 00403a10 f i 区域服务器.obj
 0001:00002a30       ??R?$less@V?$basic_string@DU?$char_traits@D@std@@V?$allocator@D@2@@std@@@std@@QBE_NABV?$basic_string@DU?$char_traits@D@std@@V?$allocator@D@2@@1@0@Z 00403a30 f i NetGMModule.obj
 0001:00002a50       ?insert@?$_Tree@V?$_Tmap_traits@V?$basic_string@DU?$char_traits@D@std@@V?$allocator@D@2@@std@@KU?$less@V?$basic_string@DU?$char_traits@D@std@@V?$allocator@D@2@@std@@@2@V?$allocator@U?$pair@$$CBV?$basic_string@DU?$char_traits@D@std@@V?$allocator@D@2@@std@@K@std@@@2@$0A@@std@@@std@@QAE?AViterator@12@V312@ABU?$pair@$$CBV?$basic_string@DU?$char_traits@D@std@@V?$allocator@D@2@@std@@K@2@@Z 00403a50 f i NetGMModule.obj
 0001:00003020       ?erase@?$_Tree@V?$_Tmap_traits@V?$basic_string@DU?$char_traits@D@std@@V?$allocator@D@2@@std@@KU?$less@V?$basic_string@DU?$char_traits@D@std@@V?$allocator@D@2@@std@@@2@V?$allocator@U?$pair@$$CBV?$basic_string@DU?$char_traits@D@std@@V?$allocator@D@2@@std@@K@std@@@2@$0A@@std@@@std@@QAE?AViterator@12@V312@0@Z 00404020 f i NetGMModule.obj
 0001:000030c0       ?equal_range@?$_Tree@V?$_Tmap_traits@V?$basic_string@DU?$char_traits@D@std@@V?$allocator@D@2@@std@@KU?$less@V?$basic_string@DU?$char_traits@D@std@@V?$allocator@D@2@@std@@@2@V?$allocator@U?$pair@$$CBV?$basic_string@DU?$char_traits@D@std@@V?$allocator@D@2@@std@@K@std@@@2@$0A@@std@@@std@@QAE?AU?$pair@Viterator@?$_Tree@V?$_Tmap_traits@V?$basic_string@DU?$char_traits@D@std@@V?$allocator@D@2@@std@@KU?$less@V?$basic_string@DU?$char_traits@D@std@@V?$allocator@D@2@@std@@@2@V?$allocator@U?$pair@$$CBV?$basic_string@DU?$char_traits@D@std@@V?$allocator@D@2@@std@@K@std@@@2@$0A@@std@@@std@@V123@@2@ABV?$basic_string@DU?$char_traits@D@std@@V?$allocator@D@2@@2@@Z 004040c0 f i NetGMModule.obj
 0001:000030c0       ?equal_range@?$_Tree@V?$_Tmap_traits@V?$basic_string@DU?$char_traits@D@std@@V?$allocator@D@2@@std@@PAVBuffBase@@U?$less@V?$basic_string@DU?$char_traits@D@std@@V?$allocator@D@2@@std@@@2@V?$allocator@U?$pair@$$CBV?$basic_string@DU?$char_traits@D@std@@V?$allocator@D@2@@std@@PAVBuffBase@@@std@@@2@$0A@@std@@@std@@QAE?AU?$pair@Viterator@?$_Tree@V?$_Tmap_traits@V?$basic_string@DU?$char_traits@D@std@@V?$allocator@D@2@@std@@PAVBuffBase@@U?$less@V?$basic_string@DU?$char_traits@D@std@@V?$allocator@D@2@@std@@@2@V?$allocator@U?$pair@$$CBV?$basic_string@DU?$char_traits@D@std@@V?$allocator@D@2@@std@@PAVBuffBase@@@std@@@2@$0A@@std@@@std@@V123@@2@ABV?$basic_string@DU?$char_traits@D@std@@V?$allocator@D@2@@2@@Z 004040c0 f i GameObjects:BuffSystem.obj
 0001:00003100       ??Eiterator@?$_Tree@V?$_Tmap_traits@V?$basic_string@DU?$char_traits@D@std@@V?$allocator@D@2@@std@@KU?$less@V?$basic_string@DU?$char_traits@D@std@@V?$allocator@D@2@@std@@@2@V?$allocator@U?$pair@$$CBV?$basic_string@DU?$char_traits@D@std@@V?$allocator@D@2@@std@@K@std@@@2@$0A@@std@@@std@@QAEAAV012@XZ 00404100 f i NetGMModule.obj
 0001:00003100       ??Eiterator@?$_Tree@V?$_Tmap_traits@V?$basic_string@DU?$char_traits@D@std@@V?$allocator@D@2@@std@@PAUCooler@@U?$less@V?$basic_string@DU?$char_traits@D@std@@V?$allocator@D@2@@std@@@2@V?$allocator@U?$pair@$$CBV?$basic_string@DU?$char_traits@D@std@@V?$allocator@D@2@@std@@PAUCooler@@@std@@@2@$0A@@std@@@std@@QAEAAV012@XZ 00404100 f i GameObjects:FightObject.obj
 0001:00003100       ??Eiterator@?$_Tree@V?$_Tmap_traits@V?$basic_string@DU?$char_traits@D@std@@V?$allocator@D@2@@std@@PAVBuffBase@@U?$less@V?$basic_string@DU?$char_traits@D@std@@V?$allocator@D@2@@std@@@2@V?$allocator@U?$pair@$$CBV?$basic_string@DU?$char_traits@D@std@@V?$allocator@D@2@@std@@PAVBuffBase@@@std@@@2@$0A@@std@@@std@@QAEAAV012@XZ 00404100 f i GameObjects:Player.obj
 0001:00003100       ??Eiterator@?$_Tree@V?$_Tmap_traits@V?$basic_string@DU?$char_traits@D@std@@V?$allocator@D@2@@std@@HU?$less@V?$basic_string@DU?$char_traits@D@std@@V?$allocator@D@2@@std@@@2@V?$allocator@U?$pair@$$CBV?$basic_string@DU?$char_traits@D@std@@V?$allocator@D@2@@std@@H@std@@@2@$0A@@std@@@std@@QAEAAV012@XZ 00404100 f i 区域服务器.obj
 0001:00003100       ??Eiterator@?$_Tree@V?$_Tmap_traits@V?$basic_string@DU?$char_traits@D@std@@V?$allocator@D@2@@std@@USTraceFile@@U?$less@V?$basic_string@DU?$char_traits@D@std@@V?$allocator@D@2@@std@@@2@V?$allocator@U?$pair@$$CBV?$basic_string@DU?$char_traits@D@std@@V?$allocator@D@2@@std@@USTraceFile@@@std@@@2@$0A@@std@@@std@@QAEAAV012@XZ 00404100 f i traceinfo.obj
 0001:00003100       ??Eiterator@?$_Tree@V?$_Tmap_traits@KUSFBData@@U?$less@K@std@@V?$allocator@U?$pair@$$CBKUSFBData@@@std@@@3@$0A@@std@@@std@@QAEAAV012@XZ 00404100 f i GameObjects:Player.obj
 0001:00003120       ?insert@?$_Tree@V?$_Tmap_traits@V?$basic_string@DU?$char_traits@D@std@@V?$allocator@D@2@@std@@KU?$less@V?$basic_string@DU?$char_traits@D@std@@V?$allocator@D@2@@std@@@2@V?$allocator@U?$pair@$$CBV?$basic_string@DU?$char_traits@D@std@@V?$allocator@D@2@@std@@K@std@@@2@$0A@@std@@@std@@QAE?AU?$pair@Viterator@?$_Tree@V?$_Tmap_traits@V?$basic_string@DU?$char_traits@D@std@@V?$allocator@D@2@@std@@KU?$less@V?$basic_string@DU?$char_traits@D@std@@V?$allocator@D@2@@std@@@2@V?$allocator@U?$pair@$$CBV?$basic_string@DU?$char_traits@D@std@@V?$allocator@D@2@@std@@K@std@@@2@$0A@@std@@@std@@_N@2@ABU?$pair@$$CBV?$basic_string@DU?$char_traits@D@std@@V?$allocator@D@2@@std@@K@2@@Z 00404120 f i NetGMModule.obj
 0001:000032d0       ?erase@?$_Tree@V?$_Tmap_traits@V?$basic_string@DU?$char_traits@D@std@@V?$allocator@D@2@@std@@KU?$less@V?$basic_string@DU?$char_traits@D@std@@V?$allocator@D@2@@std@@@2@V?$allocator@U?$pair@$$CBV?$basic_string@DU?$char_traits@D@std@@V?$allocator@D@2@@std@@K@std@@@2@$0A@@std@@@std@@QAE?AViterator@12@V312@@Z 004042d0 f i NetGMModule.obj
 0001:00003a80       ??0out_of_range@std@@QAE@ABV?$basic_string@DU?$char_traits@D@std@@V?$allocator@D@2@@1@@Z 00404a80 f i NetGMModule.obj
 0001:00003ab0       ??0logic_error@std@@QAE@ABV?$basic_string@DU?$char_traits@D@std@@V?$allocator@D@2@@1@@Z 00404ab0 f i NetGMModule.obj
 0001:00003b10       ?what@logic_error@std@@UBEPBDXZ 00404b10 f i NetGMModule.obj
 0001:00003b30       ??_Glogic_error@std@@UAEPAXI@Z 00404b30 f i NetGMModule.obj
 0001:00003b30       ??_Elogic_error@std@@UAEPAXI@Z 00404b30 f i NetGMModule.obj
 0001:00003b60       ??1logic_error@std@@UAE@XZ 00404b60 f i NetGMModule.obj
 0001:00003bc0       ??1out_of_range@std@@UAE@XZ 00404bc0 f i NetGMModule.obj
 0001:00003be0       ??_Gout_of_range@std@@UAEPAXI@Z 00404be0 f i NetGMModule.obj
 0001:00003be0       ??_Eout_of_range@std@@UAEPAXI@Z 00404be0 f i NetGMModule.obj
 0001:00003c10       ?clear@?$_Tree@V?$_Tmap_traits@V?$basic_string@DU?$char_traits@D@std@@V?$allocator@D@2@@std@@KU?$less@V?$basic_string@DU?$char_traits@D@std@@V?$allocator@D@2@@std@@@2@V?$allocator@U?$pair@$$CBV?$basic_string@DU?$char_traits@D@std@@V?$allocator@D@2@@std@@K@std@@@2@$0A@@std@@@std@@QAEXXZ 00404c10 f i NetGMModule.obj
 0001:00003c70       ?_Insert@?$_Tree@V?$_Tmap_traits@V?$basic_string@DU?$char_traits@D@std@@V?$allocator@D@2@@std@@KU?$less@V?$basic_string@DU?$char_traits@D@std@@V?$allocator@D@2@@std@@@2@V?$allocator@U?$pair@$$CBV?$basic_string@DU?$char_traits@D@std@@V?$allocator@D@2@@std@@K@std@@@2@$0A@@std@@@std@@IAE?AViterator@12@_NPAU_Node@?$_Tree_nod@V?$_Tmap_traits@V?$basic_string@DU?$char_traits@D@std@@V?$allocator@D@2@@std@@KU?$less@V?$basic_string@DU?$char_traits@D@std@@V?$allocator@D@2@@std@@@2@V?$allocator@U?$pair@$$CBV?$basic_string@DU?$char_traits@D@std@@V?$allocator@D@2@@std@@K@std@@@2@$0A@@std@@@2@ABU?$pair@$$CBV?$basic_string@DU?$char_traits@D@std@@V?$allocator@D@2@@std@@K@2@@Z 00404c70 f i NetGMModule.obj
 0001:000040d0       ??0length_error@std@@QAE@ABV?$basic_string@DU?$char_traits@D@std@@V?$allocator@D@2@@1@@Z 004050d0 f i NetGMModule.obj
 0001:00004100       ??1length_error@std@@UAE@XZ 00405100 f i NetGMModule.obj
 0001:00004120       ??_Elength_error@std@@UAEPAXI@Z 00405120 f i NetGMModule.obj
 0001:00004120       ??_Glength_error@std@@UAEPAXI@Z 00405120 f i NetGMModule.obj
 0001:00004150       ??Fiterator@?$_Tree@V?$_Tmap_traits@V?$basic_string@DU?$char_traits@D@std@@V?$allocator@D@2@@std@@USTraceFile@@U?$less@V?$basic_string@DU?$char_traits@D@std@@V?$allocator@D@2@@std@@@2@V?$allocator@U?$pair@$$CBV?$basic_string@DU?$char_traits@D@std@@V?$allocator@D@2@@std@@USTraceFile@@@std@@@2@$0A@@std@@@std@@QAEAAV012@XZ 00405150 f i traceinfo.obj
 0001:00004150       ??Fiterator@?$_Tree@V?$_Tmap_traits@V?$basic_string@DU?$char_traits@D@std@@V?$allocator@D@2@@std@@PAVBuffBase@@U?$less@V?$basic_string@DU?$char_traits@D@std@@V?$allocator@D@2@@std@@@2@V?$allocator@U?$pair@$$CBV?$basic_string@DU?$char_traits@D@std@@V?$allocator@D@2@@std@@PAVBuffBase@@@std@@@2@$0A@@std@@@std@@QAEAAV012@XZ 00405150 f i GameObjects:BuffSystem.obj
 0001:00004150       ??Fiterator@?$_Tree@V?$_Tmap_traits@V?$basic_string@DU?$char_traits@D@std@@V?$allocator@D@2@@std@@KU?$less@V?$basic_string@DU?$char_traits@D@std@@V?$allocator@D@2@@std@@@2@V?$allocator@U?$pair@$$CBV?$basic_string@DU?$char_traits@D@std@@V?$allocator@D@2@@std@@K@std@@@2@$0A@@std@@@std@@QAEAAV012@XZ 00405150 f i NetGMModule.obj
 0001:00004150       ??Fiterator@?$_Tree@V?$_Tmap_traits@KUSFBData@@U?$less@K@std@@V?$allocator@U?$pair@$$CBKUSFBData@@@std@@@3@$0A@@std@@@std@@QAEAAV012@XZ 00405150 f i GameObjects:Relation.obj
 0001:00004150       ??Fiterator@?$_Tree@V?$_Tmap_traits@V?$basic_string@DU?$char_traits@D@std@@V?$allocator@D@2@@std@@PAUCooler@@U?$less@V?$basic_string@DU?$char_traits@D@std@@V?$allocator@D@2@@std@@@2@V?$allocator@U?$pair@$$CBV?$basic_string@DU?$char_traits@D@std@@V?$allocator@D@2@@std@@PAUCooler@@@std@@@2@$0A@@std@@@std@@QAEAAV012@XZ 00405150 f i GameObjects:CooldownMgr.obj
 0001:00004150       ??Fiterator@?$_Tree@V?$_Tmap_traits@V?$basic_string@DU?$char_traits@D@std@@V?$allocator@D@2@@std@@HU?$less@V?$basic_string@DU?$char_traits@D@std@@V?$allocator@D@2@@std@@@2@V?$allocator@U?$pair@$$CBV?$basic_string@DU?$char_traits@D@std@@V?$allocator@D@2@@std@@H@std@@@2@$0A@@std@@@std@@QAEAAV012@XZ 00405150 f i 区域服务器.obj
 0001:00004170       ??Econst_iterator@?$_Tree@V?$_Tmap_traits@V?$basic_string@DU?$char_traits@D@std@@V?$allocator@D@2@@std@@KU?$less@V?$basic_string@DU?$char_traits@D@std@@V?$allocator@D@2@@std@@@2@V?$allocator@U?$pair@$$CBV?$basic_string@DU?$char_traits@D@std@@V?$allocator@D@2@@std@@K@std@@@2@$0A@@std@@@std@@QAEAAV012@XZ 00405170 f i NetGMModule.obj
 0001:00004170       ??Econst_iterator@?$_Tree@V?$_Tmap_traits@V?$basic_string@DU?$char_traits@D@std@@V?$allocator@D@2@@std@@PAVBuffBase@@U?$less@V?$basic_string@DU?$char_traits@D@std@@V?$allocator@D@2@@std@@@2@V?$allocator@U?$pair@$$CBV?$basic_string@DU?$char_traits@D@std@@V?$allocator@D@2@@std@@PAVBuffBase@@@std@@@2@$0A@@std@@@std@@QAEAAV012@XZ 00405170 f i GameObjects:Player.obj
 0001:00004170       ??Econst_iterator@?$_Tree@V?$_Tmap_traits@V?$basic_string@DU?$char_traits@D@std@@V?$allocator@D@2@@std@@USTraceFile@@U?$less@V?$basic_string@DU?$char_traits@D@std@@V?$allocator@D@2@@std@@@2@V?$allocator@U?$pair@$$CBV?$basic_string@DU?$char_traits@D@std@@V?$allocator@D@2@@std@@USTraceFile@@@std@@@2@$0A@@std@@@std@@QAEAAV012@XZ 00405170 f i traceinfo.obj
 0001:00004170       ??Econst_iterator@?$_Tree@V?$_Tmap_traits@KUSFBData@@U?$less@K@std@@V?$allocator@U?$pair@$$CBKUSFBData@@@std@@@3@$0A@@std@@@std@@QAEAAV012@XZ 00405170 f i GameObjects:Player.obj
 0001:00004170       ??Econst_iterator@?$_Tree@V?$_Tmap_traits@V?$basic_string@DU?$char_traits@D@std@@V?$allocator@D@2@@std@@PAUCooler@@U?$less@V?$basic_string@DU?$char_traits@D@std@@V?$allocator@D@2@@std@@@2@V?$allocator@U?$pair@$$CBV?$basic_string@DU?$char_traits@D@std@@V?$allocator@D@2@@std@@PAUCooler@@@std@@@2@$0A@@std@@@std@@QAEAAV012@XZ 00405170 f i GameObjects:FightObject.obj
 0001:00004170       ??Econst_iterator@?$_Tree@V?$_Tmap_traits@V?$basic_string@DU?$char_traits@D@std@@V?$allocator@D@2@@std@@HU?$less@V?$basic_string@DU?$char_traits@D@std@@V?$allocator@D@2@@std@@@2@V?$allocator@U?$pair@$$CBV?$basic_string@DU?$char_traits@D@std@@V?$allocator@D@2@@std@@H@std@@@2@$0A@@std@@@std@@QAEAAV012@XZ 00405170 f i 区域服务器.obj
 0001:00004190       ??0length_error@std@@QAE@ABV01@@Z 00405190 f i NetGMModule.obj
 0001:000041c0       ??0logic_error@std@@QAE@ABV01@@Z 004051c0 f i NetGMModule.obj
 0001:00004230       ??0out_of_range@std@@QAE@ABV01@@Z 00405230 f i NetGMModule.obj
 0001:00004260       ?max_size@?$_Tree@V?$_Tmap_traits@V?$basic_string@DU?$char_traits@D@std@@V?$allocator@D@2@@std@@USTraceFile@@U?$less@V?$basic_string@DU?$char_traits@D@std@@V?$allocator@D@2@@std@@@2@V?$allocator@U?$pair@$$CBV?$basic_string@DU?$char_traits@D@std@@V?$allocator@D@2@@std@@USTraceFile@@@std@@@2@$0A@@std@@@std@@QBEIXZ 00405260 f i traceinfo.obj
 0001:00004260       ?max_size@?$_Tree@V?$_Tmap_traits@KUSFBData@@U?$less@K@std@@V?$allocator@U?$pair@$$CBKUSFBData@@@std@@@3@$0A@@std@@@std@@QBEIXZ 00405260 f i GameObjects:Relation.obj
 0001:00004260       ?max_size@?$_Tree@V?$_Tmap_traits@V?$basic_string@DU?$char_traits@D@std@@V?$allocator@D@2@@std@@HU?$less@V?$basic_string@DU?$char_traits@D@std@@V?$allocator@D@2@@std@@@2@V?$allocator@U?$pair@$$CBV?$basic_string@DU?$char_traits@D@std@@V?$allocator@D@2@@std@@H@std@@@2@$0A@@std@@@std@@QBEIXZ 00405260 f i 区域服务器.obj
 0001:00004260       ?max_size@?$_Tree@V?$_Tmap_traits@V?$basic_string@DU?$char_traits@D@std@@V?$allocator@D@2@@std@@PAUCooler@@U?$less@V?$basic_string@DU?$char_traits@D@std@@V?$allocator@D@2@@std@@@2@V?$allocator@U?$pair@$$CBV?$basic_string@DU?$char_traits@D@std@@V?$allocator@D@2@@std@@PAUCooler@@@std@@@2@$0A@@std@@@std@@QBEIXZ 00405260 f i GameObjects:CooldownMgr.obj
 0001:00004260       ?max_size@?$_Tree@V?$_Tmap_traits@V?$basic_string@DU?$char_traits@D@std@@V?$allocator@D@2@@std@@KU?$less@V?$basic_string@DU?$char_traits@D@std@@V?$allocator@D@2@@std@@@2@V?$allocator@U?$pair@$$CBV?$basic_string@DU?$char_traits@D@std@@V?$allocator@D@2@@std@@K@std@@@2@$0A@@std@@@std@@QBEIXZ 00405260 f i NetGMModule.obj
 0001:00004260       ?max_size@?$_Tree@V?$_Tmap_traits@V?$basic_string@DU?$char_traits@D@std@@V?$allocator@D@2@@std@@PAVBuffBase@@U?$less@V?$basic_string@DU?$char_traits@D@std@@V?$allocator@D@2@@std@@@2@V?$allocator@U?$pair@$$CBV?$basic_string@DU?$char_traits@D@std@@V?$allocator@D@2@@std@@PAVBuffBase@@@std@@@2@$0A@@std@@@std@@QBEIXZ 00405260 f i GameObjects:BuffSystem.obj
 0001:00004280       ?_Erase@?$_Tree@V?$_Tmap_traits@V?$basic_string@DU?$char_traits@D@std@@V?$allocator@D@2@@std@@KU?$less@V?$basic_string@DU?$char_traits@D@std@@V?$allocator@D@2@@std@@@2@V?$allocator@U?$pair@$$CBV?$basic_string@DU?$char_traits@D@std@@V?$allocator@D@2@@std@@K@std@@@2@$0A@@std@@@std@@IAEXPAU_Node@?$_Tree_nod@V?$_Tmap_traits@V?$basic_string@DU?$char_traits@D@std@@V?$allocator@D@2@@std@@KU?$less@V?$basic_string@DU?$char_traits@D@std@@V?$allocator@D@2@@std@@@2@V?$allocator@U?$pair@$$CBV?$basic_string@DU?$char_traits@D@std@@V?$allocator@D@2@@std@@K@std@@@2@$0A@@std@@@2@@Z 00405280 f i NetGMModule.obj
 0001:00004300       ?_Lrotate@?$_Tree@V?$_Tmap_traits@V?$basic_string@DU?$char_traits@D@std@@V?$allocator@D@2@@std@@PAVBuffBase@@U?$less@V?$basic_string@DU?$char_traits@D@std@@V?$allocator@D@2@@std@@@2@V?$allocator@U?$pair@$$CBV?$basic_string@DU?$char_traits@D@std@@V?$allocator@D@2@@std@@PAVBuffBase@@@std@@@2@$0A@@std@@@std@@IAEXPAU_Node@?$_Tree_nod@V?$_Tmap_traits@V?$basic_string@DU?$char_traits@D@std@@V?$allocator@D@2@@std@@PAVBuffBase@@U?$less@V?$basic_string@DU?$char_traits@D@std@@V?$allocator@D@2@@std@@@2@V?$allocator@U?$pair@$$CBV?$basic_string@DU?$char_traits@D@std@@V?$allocator@D@2@@std@@PAVBuffBase@@@std@@@2@$0A@@std@@@2@@Z 00405300 f i GameObjects:Player.obj
 0001:00004300       ?_Lrotate@?$_Tree@V?$_Tmap_traits@V?$basic_string@DU?$char_traits@D@std@@V?$allocator@D@2@@std@@KU?$less@V?$basic_string@DU?$char_traits@D@std@@V?$allocator@D@2@@std@@@2@V?$allocator@U?$pair@$$CBV?$basic_string@DU?$char_traits@D@std@@V?$allocator@D@2@@std@@K@std@@@2@$0A@@std@@@std@@IAEXPAU_Node@?$_Tree_nod@V?$_Tmap_traits@V?$basic_string@DU?$char_traits@D@std@@V?$allocator@D@2@@std@@KU?$less@V?$basic_string@DU?$char_traits@D@std@@V?$allocator@D@2@@std@@@2@V?$allocator@U?$pair@$$CBV?$basic_string@DU?$char_traits@D@std@@V?$allocator@D@2@@std@@K@std@@@2@$0A@@std@@@2@@Z 00405300 f i NetGMModule.obj
 0001:00004300       ?_Lrotate@?$_Tree@V?$_Tmap_traits@V?$basic_string@DU?$char_traits@D@std@@V?$allocator@D@2@@std@@USTraceFile@@U?$less@V?$basic_string@DU?$char_traits@D@std@@V?$allocator@D@2@@std@@@2@V?$allocator@U?$pair@$$CBV?$basic_string@DU?$char_traits@D@std@@V?$allocator@D@2@@std@@USTraceFile@@@std@@@2@$0A@@std@@@std@@IAEXPAU_Node@?$_Tree_nod@V?$_Tmap_traits@V?$basic_string@DU?$char_traits@D@std@@V?$allocator@D@2@@std@@USTraceFile@@U?$less@V?$basic_string@DU?$char_traits@D@std@@V?$allocator@D@2@@std@@@2@V?$allocator@U?$pair@$$CBV?$basic_string@DU?$char_traits@D@std@@V?$allocator@D@2@@std@@USTraceFile@@@std@@@2@$0A@@std@@@2@@Z 00405300 f i traceinfo.obj
 0001:00004300       ?_Lrotate@?$_Tree@V?$_Tmap_traits@V?$basic_string@DU?$char_traits@D@std@@V?$allocator@D@2@@std@@PAUCooler@@U?$less@V?$basic_string@DU?$char_traits@D@std@@V?$allocator@D@2@@std@@@2@V?$allocator@U?$pair@$$CBV?$basic_string@DU?$char_traits@D@std@@V?$allocator@D@2@@std@@PAUCooler@@@std@@@2@$0A@@std@@@std@@IAEXPAU_Node@?$_Tree_nod@V?$_Tmap_traits@V?$basic_string@DU?$char_traits@D@std@@V?$allocator@D@2@@std@@PAUCooler@@U?$less@V?$basic_string@DU?$char_traits@D@std@@V?$allocator@D@2@@std@@@2@V?$allocator@U?$pair@$$CBV?$basic_string@DU?$char_traits@D@std@@V?$allocator@D@2@@std@@PAUCooler@@@std@@@2@$0A@@std@@@2@@Z 00405300 f i GameObjects:FightObject.obj
 0001:00004300       ?_Lrotate@?$_Tree@V?$_Tmap_traits@KUSFBData@@U?$less@K@std@@V?$allocator@U?$pair@$$CBKUSFBData@@@std@@@3@$0A@@std@@@std@@IAEXPAU_Node@?$_Tree_nod@V?$_Tmap_traits@KUSFBData@@U?$less@K@std@@V?$allocator@U?$pair@$$CBKUSFBData@@@std@@@3@$0A@@std@@@2@@Z 00405300 f i GameObjects:Player.obj
 0001:00004300       ?_Lrotate@?$_Tree@V?$_Tmap_traits@V?$basic_string@DU?$char_traits@D@std@@V?$allocator@D@2@@std@@HU?$less@V?$basic_string@DU?$char_traits@D@std@@V?$allocator@D@2@@std@@@2@V?$allocator@U?$pair@$$CBV?$basic_string@DU?$char_traits@D@std@@V?$allocator@D@2@@std@@H@std@@@2@$0A@@std@@@std@@IAEXPAU_Node@?$_Tree_nod@V?$_Tmap_traits@V?$basic_string@DU?$char_traits@D@std@@V?$allocator@D@2@@std@@HU?$less@V?$basic_string@DU?$char_traits@D@std@@V?$allocator@D@2@@std@@@2@V?$allocator@U?$pair@$$CBV?$basic_string@DU?$char_traits@D@std@@V?$allocator@D@2@@std@@H@std@@@2@$0A@@std@@@2@@Z 00405300 f i 区域服务器.obj
 0001:00004430       ?_Ubound@?$_Tree@V?$_Tmap_traits@V?$basic_string@DU?$char_traits@D@std@@V?$allocator@D@2@@std@@KU?$less@V?$basic_string@DU?$char_traits@D@std@@V?$allocator@D@2@@std@@@2@V?$allocator@U?$pair@$$CBV?$basic_string@DU?$char_traits@D@std@@V?$allocator@D@2@@std@@K@std@@@2@$0A@@std@@@std@@IBEPAU_Node@?$_Tree_nod@V?$_Tmap_traits@V?$basic_string@DU?$char_traits@D@std@@V?$allocator@D@2@@std@@KU?$less@V?$basic_string@DU?$char_traits@D@std@@V?$allocator@D@2@@std@@@2@V?$allocator@U?$pair@$$CBV?$basic_string@DU?$char_traits@D@std@@V?$allocator@D@2@@std@@K@std@@@2@$0A@@std@@@2@ABV?$basic_string@DU?$char_traits@D@std@@V?$allocator@D@2@@2@@Z 00405430 f i NetGMModule.obj
 0001:00004430       ?_Ubound@?$_Tree@V?$_Tmap_traits@V?$basic_string@DU?$char_traits@D@std@@V?$allocator@D@2@@std@@PAVBuffBase@@U?$less@V?$basic_string@DU?$char_traits@D@std@@V?$allocator@D@2@@std@@@2@V?$allocator@U?$pair@$$CBV?$basic_string@DU?$char_traits@D@std@@V?$allocator@D@2@@std@@PAVBuffBase@@@std@@@2@$0A@@std@@@std@@IBEPAU_Node@?$_Tree_nod@V?$_Tmap_traits@V?$basic_string@DU?$char_traits@D@std@@V?$allocator@D@2@@std@@PAVBuffBase@@U?$less@V?$basic_string@DU?$char_traits@D@std@@V?$allocator@D@2@@std@@@2@V?$allocator@U?$pair@$$CBV?$basic_string@DU?$char_traits@D@std@@V?$allocator@D@2@@std@@PAVBuffBase@@@std@@@2@$0A@@std@@@2@ABV?$basic_string@DU?$char_traits@D@std@@V?$allocator@D@2@@2@@Z 00405430 f i GameObjects:BuffSystem.obj
 0001:000044c0       ?_Buynode@?$_Tree@V?$_Tmap_traits@V?$basic_string@DU?$char_traits@D@std@@V?$allocator@D@2@@std@@KU?$less@V?$basic_string@DU?$char_traits@D@std@@V?$allocator@D@2@@std@@@2@V?$allocator@U?$pair@$$CBV?$basic_string@DU?$char_traits@D@std@@V?$allocator@D@2@@std@@K@std@@@2@$0A@@std@@@std@@IAEPAU_Node@?$_Tree_nod@V?$_Tmap_traits@V?$basic_string@DU?$char_traits@D@std@@V?$allocator@D@2@@std@@KU?$less@V?$basic_string@DU?$char_traits@D@std@@V?$allocator@D@2@@std@@@2@V?$allocator@U?$pair@$$CBV?$basic_string@DU?$char_traits@D@std@@V?$allocator@D@2@@std@@K@std@@@2@$0A@@std@@@2@PAU342@00ABU?$pair@$$CBV?$basic_string@DU?$char_traits@D@std@@V?$allocator@D@2@@std@@K@2@D@Z 004054c0 f i NetGMModule.obj
 0001:00004590       ??2@YAPAXIPAX@Z            00405590 f i NetGMModule.obj
 0001:000045a0       ?destroy@?$allocator@U_Node@?$_Tree_nod@V?$_Tmap_traits@V?$basic_string@DU?$char_traits@D@std@@V?$allocator@D@2@@std@@PAVBuffBase@@U?$less@V?$basic_string@DU?$char_traits@D@std@@V?$allocator@D@2@@std@@@2@V?$allocator@U?$pair@$$CBV?$basic_string@DU?$char_traits@D@std@@V?$allocator@D@2@@std@@PAVBuffBase@@@std@@@2@$0A@@std@@@std@@@std@@QAEXPAU_Node@?$_Tree_nod@V?$_Tmap_traits@V?$basic_string@DU?$char_traits@D@std@@V?$allocator@D@2@@std@@PAVBuffBase@@U?$less@V?$basic_string@DU?$char_traits@D@std@@V?$allocator@D@2@@std@@@2@V?$allocator@U?$pair@$$CBV?$basic_string@DU?$char_traits@D@std@@V?$allocator@D@2@@std@@PAVBuffBase@@@std@@@2@$0A@@std@@@2@@Z 004055a0 f i GameObjects:Player.obj
 0001:000045a0       ?destroy@?$allocator@U_Node@?$_Tree_nod@V?$_Tmap_traits@V?$basic_string@DU?$char_traits@D@std@@V?$allocator@D@2@@std@@HU?$less@V?$basic_string@DU?$char_traits@D@std@@V?$allocator@D@2@@std@@@2@V?$allocator@U?$pair@$$CBV?$basic_string@DU?$char_traits@D@std@@V?$allocator@D@2@@std@@H@std@@@2@$0A@@std@@@std@@@std@@QAEXPAU_Node@?$_Tree_nod@V?$_Tmap_traits@V?$basic_string@DU?$char_traits@D@std@@V?$allocator@D@2@@std@@HU?$less@V?$basic_string@DU?$char_traits@D@std@@V?$allocator@D@2@@std@@@2@V?$allocator@U?$pair@$$CBV?$basic_string@DU?$char_traits@D@std@@V?$allocator@D@2@@std@@H@std@@@2@$0A@@std@@@2@@Z 004055a0 f i 区域服务器.obj
 0001:000045a0       ?destroy@?$allocator@U_Node@?$_Tree_nod@V?$_Tmap_traits@V?$basic_string@DU?$char_traits@D@std@@V?$allocator@D@2@@std@@PAUCooler@@U?$less@V?$basic_string@DU?$char_traits@D@std@@V?$allocator@D@2@@std@@@2@V?$allocator@U?$pair@$$CBV?$basic_string@DU?$char_traits@D@std@@V?$allocator@D@2@@std@@PAUCooler@@@std@@@2@$0A@@std@@@std@@@std@@QAEXPAU_Node@?$_Tree_nod@V?$_Tmap_traits@V?$basic_string@DU?$char_traits@D@std@@V?$allocator@D@2@@std@@PAUCooler@@U?$less@V?$basic_string@DU?$char_traits@D@std@@V?$allocator@D@2@@std@@@2@V?$allocator@U?$pair@$$CBV?$basic_string@DU?$char_traits@D@std@@V?$allocator@D@2@@std@@PAUCooler@@@std@@@2@$0A@@std@@@2@@Z 004055a0 f i GameObjects:FightObject.obj
 0001:000045a0       ?destroy@?$allocator@U_Node@?$_Tree_nod@V?$_Tmap_traits@V?$basic_string@DU?$char_traits@D@std@@V?$allocator@D@2@@std@@KU?$less@V?$basic_string@DU?$char_traits@D@std@@V?$allocator@D@2@@std@@@2@V?$allocator@U?$pair@$$CBV?$basic_string@DU?$char_traits@D@std@@V?$allocator@D@2@@std@@K@std@@@2@$0A@@std@@@std@@@std@@QAEXPAU_Node@?$_Tree_nod@V?$_Tmap_traits@V?$basic_string@DU?$char_traits@D@std@@V?$allocator@D@2@@std@@KU?$less@V?$basic_string@DU?$char_traits@D@std@@V?$allocator@D@2@@std@@@2@V?$allocator@U?$pair@$$CBV?$basic_string@DU?$char_traits@D@std@@V?$allocator@D@2@@std@@K@std@@@2@$0A@@std@@@2@@Z 004055a0 f i NetGMModule.obj
 0001:000045a0       ?destroy@?$allocator@U_Node@?$_Tree_nod@V?$_Tmap_traits@V?$basic_string@DU?$char_traits@D@std@@V?$allocator@D@2@@std@@USTraceFile@@U?$less@V?$basic_string@DU?$char_traits@D@std@@V?$allocator@D@2@@std@@@2@V?$allocator@U?$pair@$$CBV?$basic_string@DU?$char_traits@D@std@@V?$allocator@D@2@@std@@USTraceFile@@@std@@@2@$0A@@std@@@std@@@std@@QAEXPAU_Node@?$_Tree_nod@V?$_Tmap_traits@V?$basic_string@DU?$char_traits@D@std@@V?$allocator@D@2@@std@@USTraceFile@@U?$less@V?$basic_string@DU?$char_traits@D@std@@V?$allocator@D@2@@std@@@2@V?$allocator@U?$pair@$$CBV?$basic_string@DU?$char_traits@D@std@@V?$allocator@D@2@@std@@USTraceFile@@@std@@@2@$0A@@std@@@2@@Z 004055a0 f i traceinfo.obj
 0001:000045c0       ??Fconst_iterator@?$_Tree@V?$_Tmap_traits@V?$basic_string@DU?$char_traits@D@std@@V?$allocator@D@2@@std@@KU?$less@V?$basic_string@DU?$char_traits@D@std@@V?$allocator@D@2@@std@@@2@V?$allocator@U?$pair@$$CBV?$basic_string@DU?$char_traits@D@std@@V?$allocator@D@2@@std@@K@std@@@2@$0A@@std@@@std@@QAEAAV012@XZ 004055c0 f i NetGMModule.obj
 0001:000045c0       ??Fconst_iterator@?$_Tree@V?$_Tmap_traits@V?$basic_string@DU?$char_traits@D@std@@V?$allocator@D@2@@std@@PAUCooler@@U?$less@V?$basic_string@DU?$char_traits@D@std@@V?$allocator@D@2@@std@@@2@V?$allocator@U?$pair@$$CBV?$basic_string@DU?$char_traits@D@std@@V?$allocator@D@2@@std@@PAUCooler@@@std@@@2@$0A@@std@@@std@@QAEAAV012@XZ 004055c0 f i GameObjects:CooldownMgr.obj
 0001:000045c0       ??Fconst_iterator@?$_Tree@V?$_Tmap_traits@V?$basic_string@DU?$char_traits@D@std@@V?$allocator@D@2@@std@@HU?$less@V?$basic_string@DU?$char_traits@D@std@@V?$allocator@D@2@@std@@@2@V?$allocator@U?$pair@$$CBV?$basic_string@DU?$char_traits@D@std@@V?$allocator@D@2@@std@@H@std@@@2@$0A@@std@@@std@@QAEAAV012@XZ 004055c0 f i 区域服务器.obj
 0001:000045c0       ??Fconst_iterator@?$_Tree@V?$_Tmap_traits@V?$basic_string@DU?$char_traits@D@std@@V?$allocator@D@2@@std@@PAVBuffBase@@U?$less@V?$basic_string@DU?$char_traits@D@std@@V?$allocator@D@2@@std@@@2@V?$allocator@U?$pair@$$CBV?$basic_string@DU?$char_traits@D@std@@V?$allocator@D@2@@std@@PAVBuffBase@@@std@@@2@$0A@@std@@@std@@QAEAAV012@XZ 004055c0 f i GameObjects:BuffSystem.obj
 0001:000045c0       ??Fconst_iterator@?$_Tree@V?$_Tmap_traits@KUSFBData@@U?$less@K@std@@V?$allocator@U?$pair@$$CBKUSFBData@@@std@@@3@$0A@@std@@@std@@QAEAAV012@XZ 004055c0 f i GameObjects:Relation.obj
 0001:000045c0       ??Fconst_iterator@?$_Tree@V?$_Tmap_traits@V?$basic_string@DU?$char_traits@D@std@@V?$allocator@D@2@@std@@USTraceFile@@U?$less@V?$basic_string@DU?$char_traits@D@std@@V?$allocator@D@2@@std@@@2@V?$allocator@U?$pair@$$CBV?$basic_string@DU?$char_traits@D@std@@V?$allocator@D@2@@std@@USTraceFile@@@std@@@2@$0A@@std@@@std@@QAEAAV012@XZ 004055c0 f i traceinfo.obj
 0001:000045e0       ?max_size@?$allocator@U?$pair@$$CBV?$basic_string@DU?$char_traits@D@std@@V?$allocator@D@2@@std@@H@std@@@std@@QBEIXZ 004055e0 f i 区域服务器.obj
 0001:000045e0       ?max_size@?$allocator@U?$pair@$$CBKUSFBData@@@std@@@std@@QBEIXZ 004055e0 f i GameObjects:Relation.obj
 0001:000045e0       ?max_size@?$allocator@U?$pair@$$CBV?$basic_string@DU?$char_traits@D@std@@V?$allocator@D@2@@std@@K@std@@@std@@QBEIXZ 004055e0 f i NetGMModule.obj
 0001:000045e0       ?max_size@?$allocator@U?$pair@$$CBV?$basic_string@DU?$char_traits@D@std@@V?$allocator@D@2@@std@@PAUCooler@@@std@@@std@@QBEIXZ 004055e0 f i GameObjects:CooldownMgr.obj
 0001:000045e0       ?max_size@?$allocator@U?$pair@$$CBV?$basic_string@DU?$char_traits@D@std@@V?$allocator@D@2@@std@@USTraceFile@@@std@@@std@@QBEIXZ 004055e0 f i traceinfo.obj
 0001:000045e0       ?max_size@?$allocator@U?$pair@$$CBV?$basic_string@DU?$char_traits@D@std@@V?$allocator@D@2@@std@@PAVBuffBase@@@std@@@std@@QBEIXZ 004055e0 f i GameObjects:BuffSystem.obj
 0001:000045e0       ?max_size@?$allocator@USPlayerRelates@typedef_v6@@@std@@QBEIXZ 004055e0 f i GameObjects:Relation.obj
 0001:00004610       ?_Dec@const_iterator@?$_Tree@V?$_Tmap_traits@V?$basic_string@DU?$char_traits@D@std@@V?$allocator@D@2@@std@@HU?$less@V?$basic_string@DU?$char_traits@D@std@@V?$allocator@D@2@@std@@@2@V?$allocator@U?$pair@$$CBV?$basic_string@DU?$char_traits@D@std@@V?$allocator@D@2@@std@@H@std@@@2@$0A@@std@@@std@@QAEXXZ 00405610 f i 区域服务器.obj
 0001:00004610       ?_Dec@const_iterator@?$_Tree@V?$_Tmap_traits@V?$basic_string@DU?$char_traits@D@std@@V?$allocator@D@2@@std@@PAVBuffBase@@U?$less@V?$basic_string@DU?$char_traits@D@std@@V?$allocator@D@2@@std@@@2@V?$allocator@U?$pair@$$CBV?$basic_string@DU?$char_traits@D@std@@V?$allocator@D@2@@std@@PAVBuffBase@@@std@@@2@$0A@@std@@@std@@QAEXXZ 00405610 f i GameObjects:BuffSystem.obj
 0001:00004610       ?_Dec@const_iterator@?$_Tree@V?$_Tmap_traits@V?$basic_string@DU?$char_traits@D@std@@V?$allocator@D@2@@std@@USTraceFile@@U?$less@V?$basic_string@DU?$char_traits@D@std@@V?$allocator@D@2@@std@@@2@V?$allocator@U?$pair@$$CBV?$basic_string@DU?$char_traits@D@std@@V?$allocator@D@2@@std@@USTraceFile@@@std@@@2@$0A@@std@@@std@@QAEXXZ 00405610 f i traceinfo.obj
 0001:00004610       ?_Dec@const_iterator@?$_Tree@V?$_Tmap_traits@V?$basic_string@DU?$char_traits@D@std@@V?$allocator@D@2@@std@@PAUCooler@@U?$less@V?$basic_string@DU?$char_traits@D@std@@V?$allocator@D@2@@std@@@2@V?$allocator@U?$pair@$$CBV?$basic_string@DU?$char_traits@D@std@@V?$allocator@D@2@@std@@PAUCooler@@@std@@@2@$0A@@std@@@std@@QAEXXZ 00405610 f i GameObjects:CooldownMgr.obj
 0001:00004610       ?_Dec@const_iterator@?$_Tree@V?$_Tmap_traits@V?$basic_string@DU?$char_traits@D@std@@V?$allocator@D@2@@std@@KU?$less@V?$basic_string@DU?$char_traits@D@std@@V?$allocator@D@2@@std@@@2@V?$allocator@U?$pair@$$CBV?$basic_string@DU?$char_traits@D@std@@V?$allocator@D@2@@std@@K@std@@@2@$0A@@std@@@std@@QAEXXZ 00405610 f i NetGMModule.obj
 0001:00004610       ?_Dec@const_iterator@?$_Tree@V?$_Tmap_traits@KUSFBData@@U?$less@K@std@@V?$allocator@U?$pair@$$CBKUSFBData@@@std@@@3@$0A@@std@@@std@@QAEXXZ 00405610 f i GameObjects:Relation.obj
 0001:000046f0       ??$strcpy_s@$0BF@@@YAXAAY0BF@DPBD@Z 004056f0 f i NetGMModule.obj
 0001:00004710       ?strcpy@dwt@@YGPADPADPBDI@Z 00405710 f i NetGMModule.obj
 0001:00004750       ??$strcpy_s@$0BE@@@YAXAAY0BE@DPBD@Z 00405750 f i NetGMModule.obj
 0001:00004770       ??$strcpy_s@$0PK@@@YAXAAY0PK@DPBD@Z 00405770 f i NetGMModule.obj
 0001:00004790       ??$memcpy_s@D$0IA@@@YAXAAY0IA@DPBXI@Z 00405790 f i NetGMModule.obj
 0001:000048b0       ??$_Distance@Viterator@?$_Tree@V?$_Tmap_traits@V?$basic_string@DU?$char_traits@D@std@@V?$allocator@D@2@@std@@KU?$less@V?$basic_string@DU?$char_traits@D@std@@V?$allocator@D@2@@std@@@2@V?$allocator@U?$pair@$$CBV?$basic_string@DU?$char_traits@D@std@@V?$allocator@D@2@@std@@K@std@@@2@$0A@@std@@@std@@I@std@@YAXViterator@?$_Tree@V?$_Tmap_traits@V?$basic_string@DU?$char_traits@D@std@@V?$allocator@D@2@@std@@KU?$less@V?$basic_string@DU?$char_traits@D@std@@V?$allocator@D@2@@std@@@2@V?$allocator@U?$pair@$$CBV?$basic_string@DU?$char_traits@D@std@@V?$allocator@D@2@@std@@K@std@@@2@$0A@@std@@@0@0AAI@Z 004058b0 f i NetGMModule.obj
 0001:000048e0       ??$swap@D@std@@YAXAAD0@Z   004058e0 f i NetGMModule.obj
 0001:00004910       ??$_Destroy@U_Node@?$_Tree_nod@V?$_Tmap_traits@V?$basic_string@DU?$char_traits@D@std@@V?$allocator@D@2@@std@@PAVBuffBase@@U?$less@V?$basic_string@DU?$char_traits@D@std@@V?$allocator@D@2@@std@@@2@V?$allocator@U?$pair@$$CBV?$basic_string@DU?$char_traits@D@std@@V?$allocator@D@2@@std@@PAVBuffBase@@@std@@@2@$0A@@std@@@std@@@std@@YAXPAU_Node@?$_Tree_nod@V?$_Tmap_traits@V?$basic_string@DU?$char_traits@D@std@@V?$allocator@D@2@@std@@PAVBuffBase@@U?$less@V?$basic_string@DU?$char_traits@D@std@@V?$allocator@D@2@@std@@@2@V?$allocator@U?$pair@$$CBV?$basic_string@DU?$char_traits@D@std@@V?$allocator@D@2@@std@@PAVBuffBase@@@std@@@2@$0A@@std@@@0@@Z 00405910 f i GameObjects:Player.obj
 0001:00004910       ??$_Destroy@U_Node@?$_Tree_nod@V?$_Tmap_traits@V?$basic_string@DU?$char_traits@D@std@@V?$allocator@D@2@@std@@HU?$less@V?$basic_string@DU?$char_traits@D@std@@V?$allocator@D@2@@std@@@2@V?$allocator@U?$pair@$$CBV?$basic_string@DU?$char_traits@D@std@@V?$allocator@D@2@@std@@H@std@@@2@$0A@@std@@@std@@@std@@YAXPAU_Node@?$_Tree_nod@V?$_Tmap_traits@V?$basic_string@DU?$char_traits@D@std@@V?$allocator@D@2@@std@@HU?$less@V?$basic_string@DU?$char_traits@D@std@@V?$allocator@D@2@@std@@@2@V?$allocator@U?$pair@$$CBV?$basic_string@DU?$char_traits@D@std@@V?$allocator@D@2@@std@@H@std@@@2@$0A@@std@@@0@@Z 00405910 f i 区域服务器.obj
 0001:00004910       ??$_Destroy@U_Node@?$_Tree_nod@V?$_Tmap_traits@V?$basic_string@DU?$char_traits@D@std@@V?$allocator@D@2@@std@@KU?$less@V?$basic_string@DU?$char_traits@D@std@@V?$allocator@D@2@@std@@@2@V?$allocator@U?$pair@$$CBV?$basic_string@DU?$char_traits@D@std@@V?$allocator@D@2@@std@@K@std@@@2@$0A@@std@@@std@@@std@@YAXPAU_Node@?$_Tree_nod@V?$_Tmap_traits@V?$basic_string@DU?$char_traits@D@std@@V?$allocator@D@2@@std@@KU?$less@V?$basic_string@DU?$char_traits@D@std@@V?$allocator@D@2@@std@@@2@V?$allocator@U?$pair@$$CBV?$basic_string@DU?$char_traits@D@std@@V?$allocator@D@2@@std@@K@std@@@2@$0A@@std@@@0@@Z 00405910 f i NetGMModule.obj
 0001:00004910       ??$_Destroy@U_Node@?$_Tree_nod@V?$_Tmap_traits@V?$basic_string@DU?$char_traits@D@std@@V?$allocator@D@2@@std@@PAUCooler@@U?$less@V?$basic_string@DU?$char_traits@D@std@@V?$allocator@D@2@@std@@@2@V?$allocator@U?$pair@$$CBV?$basic_string@DU?$char_traits@D@std@@V?$allocator@D@2@@std@@PAUCooler@@@std@@@2@$0A@@std@@@std@@@std@@YAXPAU_Node@?$_Tree_nod@V?$_Tmap_traits@V?$basic_string@DU?$char_traits@D@std@@V?$allocator@D@2@@std@@PAUCooler@@U?$less@V?$basic_string@DU?$char_traits@D@std@@V?$allocator@D@2@@std@@@2@V?$allocator@U?$pair@$$CBV?$basic_string@DU?$char_traits@D@std@@V?$allocator@D@2@@std@@PAUCooler@@@std@@@2@$0A@@std@@@0@@Z 00405910 f i GameObjects:FightObject.obj
 0001:00004910       ??$_Destroy@U_Node@?$_Tree_nod@V?$_Tmap_traits@V?$basic_string@DU?$char_traits@D@std@@V?$allocator@D@2@@std@@USTraceFile@@U?$less@V?$basic_string@DU?$char_traits@D@std@@V?$allocator@D@2@@std@@@2@V?$allocator@U?$pair@$$CBV?$basic_string@DU?$char_traits@D@std@@V?$allocator@D@2@@std@@USTraceFile@@@std@@@2@$0A@@std@@@std@@@std@@YAXPAU_Node@?$_Tree_nod@V?$_Tmap_traits@V?$basic_string@DU?$char_traits@D@std@@V?$allocator@D@2@@std@@USTraceFile@@U?$less@V?$basic_string@DU?$char_traits@D@std@@V?$allocator@D@2@@std@@@2@V?$allocator@U?$pair@$$CBV?$basic_string@DU?$char_traits@D@std@@V?$allocator@D@2@@std@@USTraceFile@@@std@@@2@$0A@@std@@@0@@Z 00405910 f i traceinfo.obj
 0001:00004920       ??1Variant@lite@@QAE@XZ    00405920 f i NetGMModule.obj
 0001:00004960       ??0Variant@lite@@QAE@XZ    00405960 f i NetGMModule.obj
 0001:00004990       ??0Variant@lite@@QAE@PBD@Z 00405990 f i NetGMModule.obj
 0001:00004a00       ??0BadString@lite@@QAE@XZ  00405a00 f i NetGMModule.obj
 0001:00004a30       ??0Xcpt@lite@@QAE@K@Z      00405a30 f i NetGMModule.obj
 0001:00004a60       ?GetErrInfo@BadString@lite@@UAEPBDXZ 00405a60 f i NetGMModule.obj
 0001:00004a70       ??0Variant@lite@@QAE@ABV01@@Z 00405a70 f i NetGMModule.obj
 0001:00004ac0       ??BVariant@lite@@QBEHXZ    00405ac0 f i NetGMModule.obj
 0001:00004b80       ??0InvalidConvert@lite@@QAE@XZ 00405b80 f i NetGMModule.obj
 0001:00004bb0       ?GetErrInfo@InvalidConvert@lite@@UAEPBDXZ 00405bb0 f i NetGMModule.obj
 0001:00004bc0       ??BVariant@lite@@QBEPBDXZ  00405bc0 f i NetGMModule.obj
 0001:00004c10       ?IsBadStringPtrA@Variant@lite@@QAEHPBDK@Z 00405c10 f i NetGMModule.obj
 0001:00004c90       ??0Xcpt@lite@@QAE@ABU01@@Z 00405c90 f i NetGMModule.obj
 0001:00004cc0       ??0BadString@lite@@QAE@ABV01@@Z 00405cc0 f i NetGMModule.obj
 0001:00004cf0       ??0InvalidConvert@lite@@QAE@ABV01@@Z 00405cf0 f i NetGMModule.obj
 0001:00004d20       ??0Serializer@lite@@QAE@PAXI@Z 00405d20 f i NetGMModule.obj
 0001:00004dd0       ??0InvalidBuffer@lite@@QAE@XZ 00405dd0 f i NetGMModule.obj
 0001:00004e00       ?GetErrInfo@InvalidBuffer@lite@@UAEPBDXZ 00405e00 f i NetGMModule.obj
 0001:00004e10       ??0BadBuffer@lite@@QAE@XZ  00405e10 f i NetGMModule.obj
 0001:00004e40       ?GetErrInfo@BadBuffer@lite@@UAEPBDXZ 00405e40 f i NetGMModule.obj
 0001:00004e50       ?maxSize@Serializer@lite@@QAEAAGXZ 00405e50 f i NetGMModule.obj
 0001:00004e70       ?EndEdition@Serializer@lite@@QAEIXZ 00405e70 f i NetGMModule.obj
 0001:00004ec0       ??RSerializer@lite@@QAEAAV01@VVariant@1@@Z 00405ec0 f i NetGMModule.obj
 0001:00004f20       ?PushVariant@Serializer@lite@@QAEXAAVVariant@2@@Z 00405f20 f i NetGMModule.obj
 0001:00005110       ??0FullBuffer@lite@@QAE@XZ 00406110 f i NetGMModule.obj
 0001:00005140       ?GetErrInfo@FullBuffer@lite@@UAEPBDXZ 00406140 f i NetGMModule.obj
 0001:00005150       ?memcpy_unsafe@@YAXPAXIPBXI@Z 00406150 f i NetGMModule.obj
 0001:00005380       ?curAddr@Serializer@lite@@QAEPAXXZ 00406380 f i NetGMModule.obj
 0001:000053a0       ??0InvalidBuffer@lite@@QAE@ABV01@@Z 004063a0 f i NetGMModule.obj
 0001:000053d0       ??0BadBuffer@lite@@QAE@ABV01@@Z 004063d0 f i NetGMModule.obj
 0001:00005400       ??0FullBuffer@lite@@QAE@ABV01@@Z 00406400 f i NetGMModule.obj
 0001:00005430       ??0Serialreader@lite@@QAE@PAX@Z 00406430 f i NetGMModule.obj
 0001:00005510       ??0NullPointer@lite@@QAE@XZ 00406510 f i NetGMModule.obj
 0001:00005540       ?GetErrInfo@NullPointer@lite@@UAEPBDXZ 00406540 f i NetGMModule.obj
 0001:00005550       ?data@ChainNode@details_SharedMemoryCache@@QAEPAXXZ 00406550 f i SMCache.obj
 0001:00005550       ?GetBuffMap@BuffContainer@@QAEABV?$map@V?$basic_string@DU?$char_traits@D@std@@V?$allocator@D@2@@std@@PAVBuffBase@@U?$less@V?$basic_string@DU?$char_traits@D@std@@V?$allocator@D@2@@std@@@2@V?$allocator@U?$pair@$$CBV?$basic_string@DU?$char_traits@D@std@@V?$allocator@D@2@@std@@PAVBuffBase@@@std@@@2@@std@@XZ 00406550 f i GameObjects:Player.obj
 0001:00005550       ?curSize@Serialreader@lite@@QAEAAGXZ 00406550 f i NetGMModule.obj
 0001:00005570       ?raw_curSize@Serialreader@lite@@QAEGXZ 00406570 f i NetGMModule.obj
 0001:00005590       ?maxSize@Serialreader@lite@@QAEGXZ 00406590 f i NetGMModule.obj
 0001:000055b0       ??RSerialreader@lite@@QAE?AVVariant@1@XZ 004065b0 f i NetGMModule.obj
 0001:000057c0       ??0CurrentIsEnd@lite@@QAE@XZ 004067c0 f i NetGMModule.obj
 0001:000057f0       ?GetErrInfo@CurrentIsEnd@lite@@UAEPBDXZ 004067f0 f i NetGMModule.obj
 0001:00005800       ?curAddr@Serialreader@lite@@QAEPBXXZ 00406800 f i NetGMModule.obj
 0001:00005820       ??0NullPointer@lite@@QAE@ABV01@@Z 00406820 f i NetGMModule.obj
 0001:00005850       ??0CurrentIsEnd@lite@@QAE@ABV01@@Z 00406850 f i NetGMModule.obj
 0001:00005880       ?g_AddSpendMoney@@YAX_J@Z  00406880 f   DMainApp.obj
 0001:000058a0       ?ShowVersion@@YAXXZ        004068a0 f   DMainApp.obj
 0001:000058e0       ?GetApp@@YAAAPAVCDAppMain@@XZ 004068e0 f   DMainApp.obj
 0001:000058f0       ?CreateApp@@YAHXZ          004068f0 f   DMainApp.obj
 0001:000059c0       ?ClearApp@@YAXXZ           004069c0 f   DMainApp.obj
 0001:00005a10       ?ModifyNormalPlayerNumber@@YAXH@Z 00406a10 f   DMainApp.obj
 0001:00005a40       ?ModifyHangupPlayerNumber@@YAXH@Z 00406a40 f   DMainApp.obj
 0001:00005a70       ?ModifyLinkBreakPlayerNumber@@YAXH@Z 00406a70 f   DMainApp.obj
 0001:00005aa0       ?InitMaskMap@@YAHXZ        00406aa0 f   DMainApp.obj
 0001:00005c20       ?IsValidName@@YAHPBD@Z     00406c20 f   DMainApp.obj
 0001:00005da0       ?SendMessageToPlayer@@YAXPBDPAUSMessage@@K@Z 00406da0 f   DMainApp.obj
 0001:00005e40       ?g_SendDirect@@YAH_KPAXK@Z 00406e40 f   DMainApp.obj
 0001:00005e80       ?g_StoreMessage@@YAH_KPAXK@Z 00406e80 f   DMainApp.obj
 0001:00005ec0       ?g_GetClientCount@@YAKXZ   00406ec0 f   DMainApp.obj
 0001:00005ee0       ?g_CutClient@@YAX_K@Z      00406ee0 f   DMainApp.obj
 0001:00006030       ?g_GetAddrByDnid@@YAH_KPAUsockaddr_in@@I@Z 00407030 f   DMainApp.obj
 0001:00006060       ?g_SetLogStatus@@YAX_KW4LINKSTATUS@@@Z 00407060 f   DMainApp.obj
 0001:00006090       ?g_GetLogStatus@@YA?AW4LINKSTATUS@@_K@Z 00407090 f   DMainApp.obj
 0001:000060b0       ?g_GetLinkMac@@YA_K_K@Z    004070b0 f   DMainApp.obj
 0001:000060d0       ?g_GetRandValue@@YAGGG@Z   004070d0 f   DMainApp.obj
 0001:00006110       ??0CDAppMain@@QAE@XZ       00407110 f   DMainApp.obj
 0001:000061c0       ??1CDAppMain@@QAE@XZ       004071c0 f   DMainApp.obj
 0001:00006220       ?InitServer@CDAppMain@@QAEHXZ 00407220 f   DMainApp.obj
 0001:00006a00       ?LoopServer@CDAppMain@@QAEHXZ 00407a00 f   DMainApp.obj
 0001:00007170       ?MsgProc@CDAppMain@@QAEJPAUHWND__@@IIJ@Z 00408170 f   DMainApp.obj
 0001:00007210       ?ExitServer@CDAppMain@@QAEHXZ 00408210 f   DMainApp.obj
 0001:000072c0       ?OnDispatch@CDAppMain@@QAE_N_KW4LINKSTATUS@@PAXI2@Z 004082c0 f   DMainApp.obj
 0001:000079b0       ?QuestCheckRebind@CDAppMain@@QAEH_KPAUSQRebindMsg@@@Z 004089b0 f   DMainApp.obj
 0001:00007cf0       ?DisplayServerInfo@CDAppMain@@QAEXD@Z 00408cf0 f   DMainApp.obj
 0001:00007eb0       ?GetInitPath@@YAPBDXZ      00408eb0 f   DMainApp.obj
 0001:00007ec0       ?GetServerID@@YAGXZ        00408ec0 f   DMainApp.obj
 0001:00007ed0       ?GetGroupID@@YAKXZ         00408ed0 f   DMainApp.obj
 0001:00007ee0       ?SendToLoginServer@@YAHPAUSMessage@@J@Z 00408ee0 f   DMainApp.obj
 0001:00007f00       ?SetDnidContext@@YAH_KPAX@Z 00408f00 f   DMainApp.obj
 0001:00007f30       ?GetServerName@@YAPBDXZ    00408f30 f   DMainApp.obj
 0001:00007f50       ?UpdateImmediately@@YAXPAVCPlayer@@0@Z 00408f50 f   DMainApp.obj
 0001:00008210       ?AddSpendMoney@CDAppMain@@QAEX_J@Z 00409210 f i DMainApp.obj
 0001:00008240       ??_GCDAppMain@@QAEPAXI@Z   00409240 f i DMainApp.obj
 0001:00008270       ?SetKeyWord@cStringMatchDict@dwt@@QAEXPBDK@Z 00409270 f i DMainApp.obj
 0001:000083b0       ??0sLetter@cStringMatchDict@dwt@@QAE@XZ 004093b0 f i DMainApp.obj
 0001:000083e0       ??0ifstream@dwt@@QAE@PBD@Z 004093e0 f i DMainApp.obj
 0001:000084a0       ??0AutoMemFile@dwt@@QAE@PBD@Z 004094a0 f i DMainApp.obj
 0001:000085c0       ??1AutoMemFile@dwt@@QAE@XZ 004095c0 f i DMainApp.obj
 0001:000085f0       ?is_open@ifstream@dwt@@QAE_NXZ 004095f0 f i DMainApp.obj
 0001:00008610       ??_Gifstream@dwt@@UAEPAXI@Z 00409610 f i DMainApp.obj
 0001:00008610       ??_Eifstream@dwt@@UAEPAXI@Z 00409610 f i DMainApp.obj
 0001:00008650       ??_Difstream@dwt@@QAEXXZ   00409650 f i DMainApp.obj
 0001:00008680       ??1ifstream@dwt@@UAE@XZ    00409680 f i DMainApp.obj
 0001:00008700       ?Contain@cStringMatchDict@dwt@@QAEHPBDK@Z 00409700 f i DMainApp.obj
 0001:00008730       ?Contain@cStringMatchDict@dwt@@QAEHPBDKAAK1@Z 00409730 f i DMainApp.obj
 0001:00008800       ?Check@sLetter@cStringMatchDict@dwt@@QAEPAU123@E@Z 00409800 f i DMainApp.obj
 0001:00008840       ??0SACheckRebindMsg@@QAE@XZ 00409840 f i DMainApp.obj
 0001:00008840       ??0SQCheckRebindMsg@@QAE@XZ 00409840 f i DMainApp.obj
 0001:00008860       ??0SCheckRebindMsg@@QAE@XZ 00409860 f i DMainApp.obj
 0001:00008880       ??0_SRebindMsg@@QAE@XZ     00409880 f i DMainApp.obj
 0001:000088a0       ?_rand@@YAHXZ              004098a0 f i DMainApp.obj
 0001:000088c0       ?strcmp@dwt@@YGHPBD0I@Z    004098c0 f i DMainApp.obj
 0001:00008920       ??0SQLoginMsg@@QAE@XZ      00409920 f i DMainApp.obj
 0001:00008940       ??0SLoginMsg@@QAE@XZ       00409940 f i DMainApp.obj
 0001:00008960       ??0SSysBaseMsg@@QAE@XZ     00409960 f i DMainApp.obj
 0001:00008980       ?trace_begin@CFrameTrace@@QAEXE@Z 00409980 f i DMainApp.obj
 0001:000089a0       ?trace_end@CFrameTrace@@QAENE@Z 004099a0 f i DMainApp.obj
 0001:00008a60       ?GetSID@CPlayer@@QBEKXZ    00409a60 f i DMainApp.obj
 0001:00008a80       ??0lzwDecoder@lzw@@QAE@XZ  00409a80 f i DMainApp.obj
 0001:00008aa0       ?reset@lzwDecoder@lzw@@QAEXXZ 00409aa0 f i DMainApp.obj
 0001:00008ae0       ?SetEncoderData@lzwDecoder@lzw@@QAEXPAXI@Z 00409ae0 f i DMainApp.obj
 0001:00008b20       ?lzw_decode@lzwDecoder@lzw@@QAEIPAXI@Z 00409b20 f i DMainApp.obj
 0001:00008de0       ?empty@lzwDecoder@lzw@@QAEHXZ 00409de0 f i DMainApp.obj
 0001:00008e00       ?get@lzwDecoder@lzw@@QAEKK@Z 00409e00 f i DMainApp.obj
 0001:00008eb0       ??0SASynObjectMsg@@QAE@XZ  00409eb0 f i DMainApp.obj
 0001:00008ed0       ??0SSynObjectMsg@@QAE@XZ   00409ed0 f i DMainApp.obj
 0001:00008ef0       ??0SRegionBaseMsg@@QAE@XZ  00409ef0 f i DMainApp.obj
 0001:00008f10       ??0SDoubleSavePlayerMsg@@QAE@XZ 00409f10 f i DMainApp.obj
 0001:00008f40       ??0_SDoubleSavePlayerMsg@@QAE@XZ 00409f40 f i DMainApp.obj
 0001:00008f60       ??0_SDataBaseMsg@@QAE@XZ   00409f60 f i DMainApp.obj
 0001:00008f80       ??0SFixProperty@typedef_v6@@QAE@XZ 00409f80 f i DMainApp.obj
 0001:00008fc0       ??0SPlayerDataExpand@typedef_v6@@QAE@XZ 00409fc0 f i DMainApp.obj
 0001:00008ff0       ??0SBuffSaveData@typedef_v6@@QAE@XZ 00409ff0 f i DMainApp.obj
 0001:00009040       ??0SClientSaveData@typedef_v6@@QAE@XZ 0040a040 f i DMainApp.obj
 0001:00009060       ??0SAutoFightSet@typedef_v6@@QAE@XZ 0040a060 f i DMainApp.obj
 0001:00009080       ??0SAutoUseItemSet@typedef_v6@@QAE@XZ 0040a080 f i DMainApp.obj
 0001:000090b0       ??0SPlayerRelation@typedef_v6@@QAE@XZ 0040a0b0 f i DMainApp.obj
 0001:00009100       ??0SRelatesBase@typedef_v6@@QAE@XZ 0040a100 f i DMainApp.obj
 0001:00009120       ??0SPlayerRelates@typedef_v6@@QAE@XZ 0040a120 f i DMainApp.obj
 0001:00009150       ?getSingleton@?$CSingleton@VCGlobalCount@@@@SAPAVCGlobalCount@@XZ 0040a150 f i DMainApp.obj
 0001:00009160       ?getSingleton@?$CSingleton@VCFrameTrace@@@@SAPAVCFrameTrace@@XZ 0040a160 f i DMainApp.obj
 0001:00009170       ?Instance@?$CSingleton@VCGlobalCount@@@@SAPAVCGlobalCount@@XZ 0040a170 f i DMainApp.obj
 0001:00009230       ??0CGlobalCount@@QAE@XZ    0040a230 f i DMainApp.obj
 0001:00009270       ??_ECGlobalCount@@UAEPAXI@Z 0040a270 f i DMainApp.obj
 0001:00009270       ??_GCGlobalCount@@UAEPAXI@Z 0040a270 f i DMainApp.obj
 0001:000092a0       ??1CGlobalCount@@UAE@XZ    0040a2a0 f i DMainApp.obj
 0001:000092c0       ??0?$CSingleton@VCGlobalCount@@@@QAE@XZ 0040a2c0 f i DMainApp.obj
 0001:000092e0       ??1?$CSingleton@VCGlobalCount@@@@UAE@XZ 0040a2e0 f i DMainApp.obj
 0001:00009300       ??_E?$CSingleton@VCGlobalCount@@@@UAEPAXI@Z 0040a300 f i DMainApp.obj
 0001:00009300       ??_G?$CSingleton@VCGlobalCount@@@@UAEPAXI@Z 0040a300 f i DMainApp.obj
 0001:00009330       ?Instance@?$CSingleton@VCFrameTrace@@@@SAPAVCFrameTrace@@XZ 0040a330 f i DMainApp.obj
 0001:000093f0       ??0CFrameTrace@@QAE@XZ     0040a3f0 f i DMainApp.obj
 0001:00009430       ??_ECFrameTrace@@UAEPAXI@Z 0040a430 f i DMainApp.obj
 0001:00009430       ??_GCFrameTrace@@UAEPAXI@Z 0040a430 f i DMainApp.obj
 0001:00009460       ??1CFrameTrace@@UAE@XZ     0040a460 f i DMainApp.obj
 0001:00009480       ??0?$CSingleton@VCFrameTrace@@@@QAE@XZ 0040a480 f i DMainApp.obj
 0001:000094a0       ??1?$CSingleton@VCFrameTrace@@@@UAE@XZ 0040a4a0 f i DMainApp.obj
 0001:000094c0       ??_G?$CSingleton@VCFrameTrace@@@@UAEPAXI@Z 0040a4c0 f i DMainApp.obj
 0001:000094c0       ??_E?$CSingleton@VCFrameTrace@@@@UAEPAXI@Z 0040a4c0 f i DMainApp.obj
 0001:000094f0       ??$sprintf_s@$0BE@@@YAHAAY0BE@DPBDZZ 0040a4f0 f i DMainApp.obj
 0001:00009540       ??$sprintf_s@$0EA@@@YAHAAY0EA@DPBDZZ 0040a540 f i DMainApp.obj
 0001:00009590       ??$bind@_NVCDAppMain@@_KW4LINKSTATUS@@PAXIPAXPAV1@V?$arg@$00@boost@@V?$arg@$01@4@V?$arg@$02@4@V?$arg@$03@4@V?$arg@$04@4@@boost@@YA?AV?$bind_t@_NV?$mf5@_NVCDAppMain@@_KW4LINKSTATUS@@PAXIPAX@_mfi@boost@@V?$list6@V?$value@PAVCDAppMain@@@_bi@boost@@V?$arg@$00@3@V?$arg@$01@3@V?$arg@$02@3@V?$arg@$03@3@V?$arg@$04@3@@_bi@3@@_bi@0@P8CDAppMain@@AE_N_KW4LINKSTATUS@@PAXI2@ZPAV3@V?$arg@$00@0@V?$arg@$01@0@V?$arg@$02@0@V?$arg@$03@0@V?$arg@$04@0@@Z 0040a590 f i DMainApp.obj
 0001:000095e0       ??$Execution@V?$bind_t@_NV?$mf5@_NVCDAppMain@@_KW4LINKSTATUS@@PAXIPAX@_mfi@boost@@V?$list6@V?$value@PAVCDAppMain@@@_bi@boost@@V?$arg@$00@3@V?$arg@$01@3@V?$arg@$02@3@V?$arg@$03@3@V?$arg@$04@3@@_bi@3@@_bi@boost@@@CNetProviderModuleAdvEx@@QAEHV?$bind_t@_NV?$mf5@_NVCDAppMain@@_KW4LINKSTATUS@@PAXIPAX@_mfi@boost@@V?$list6@V?$value@PAVCDAppMain@@@_bi@boost@@V?$arg@$00@3@V?$arg@$01@3@V?$arg@$02@3@V?$arg@$03@3@V?$arg@$04@3@@_bi@3@@_bi@boost@@@Z 0040a5e0 f i DMainApp.obj
 0001:000096b0       ??$sprintf_s@$0BCM@@@YAHAAY0BCM@DPBDZZ 0040a6b0 f i DMainApp.obj
 0001:00009700       ??$strcpy_s@$0IM@@@YAXAAY0IM@DPBD@Z 0040a700 f i DMainApp.obj
 0001:00009720       ??0?$bind_t@_NV?$mf5@_NVCDAppMain@@_KW4LINKSTATUS@@PAXIPAX@_mfi@boost@@V?$list6@V?$value@PAVCDAppMain@@@_bi@boost@@V?$arg@$00@3@V?$arg@$01@3@V?$arg@$02@3@V?$arg@$03@3@V?$arg@$04@3@@_bi@3@@_bi@boost@@QAE@V?$mf5@_NVCDAppMain@@_KW4LINKSTATUS@@PAXIPAX@_mfi@2@ABV?$list6@V?$value@PAVCDAppMain@@@_bi@boost@@V?$arg@$00@3@V?$arg@$01@3@V?$arg@$02@3@V?$arg@$03@3@V?$arg@$04@3@@12@@Z 0040a720 f i DMainApp.obj
 0001:00009760       ??0?$list6@V?$value@PAVCDAppMain@@@_bi@boost@@V?$arg@$00@3@V?$arg@$01@3@V?$arg@$02@3@V?$arg@$03@3@V?$arg@$04@3@@_bi@boost@@QAE@V?$value@PAVCDAppMain@@@12@V?$arg@$00@2@V?$arg@$01@2@V?$arg@$02@2@V?$arg@$03@2@V?$arg@$04@2@@Z 0040a760 f i DMainApp.obj
 0001:00009780       ??$?R_KW4LINKSTATUS@@PAXGPAX@?$bind_t@_NV?$mf5@_NVCDAppMain@@_KW4LINKSTATUS@@PAXIPAX@_mfi@boost@@V?$list6@V?$value@PAVCDAppMain@@@_bi@boost@@V?$arg@$00@3@V?$arg@$01@3@V?$arg@$02@3@V?$arg@$03@3@V?$arg@$04@3@@_bi@3@@_bi@boost@@QAE_NAA_KAAW4LINKSTATUS@@AAPAXAAG2@Z 0040a780 f i DMainApp.obj
 0001:000097d0       ??0?$list5@AA_KAAW4LINKSTATUS@@AAPAXAAGAAPAX@_bi@boost@@QAE@AA_KAAW4LINKSTATUS@@AAPAXAAG2@Z 0040a7d0 f i DMainApp.obj
 0001:00009810       ??$?R_NV?$mf5@_NVCDAppMain@@_KW4LINKSTATUS@@PAXIPAX@_mfi@boost@@V?$list5@AA_KAAW4LINKSTATUS@@AAPAXAAGAAPAX@_bi@2@@?$list6@V?$value@PAVCDAppMain@@@_bi@boost@@V?$arg@$00@3@V?$arg@$01@3@V?$arg@$02@3@V?$arg@$03@3@V?$arg@$04@3@@_bi@boost@@QAE_NV?$type@_N@12@AAV?$mf5@_NVCDAppMain@@_KW4LINKSTATUS@@PAXIPAX@_mfi@2@AAV?$list5@AA_KAAW4LINKSTATUS@@AAPAXAAGAAPAX@12@J@Z 0040a810 f i DMainApp.obj
 0001:000098a0       ??R?$mf5@_NVCDAppMain@@_KW4LINKSTATUS@@PAXIPAX@_mfi@boost@@QBE_NPAVCDAppMain@@_KW4LINKSTATUS@@PAXI3@Z 0040a8a0 f i DMainApp.obj
 0001:000098d0       ??A?$list2@AAPAXAAG@_bi@boost@@QBEAAGV?$arg@$01@2@@Z 0040a8d0 f i NetLoginServerModule.obj
 0001:000098d0       ??A?$list5@AA_KAAW4LINKSTATUS@@AAPAXAAGAAPAX@_bi@boost@@QBEAAW4LINKSTATUS@@V?$arg@$01@2@@Z 0040a8d0 f i DMainApp.obj
 0001:000098f0       ??A?$list5@AA_KAAW4LINKSTATUS@@AAPAXAAGAAPAX@_bi@boost@@QBEAAPAXV?$arg@$02@2@@Z 0040a8f0 f i DMainApp.obj
 0001:00009910       ??A?$list5@AA_KAAW4LINKSTATUS@@AAPAXAAGAAPAX@_bi@boost@@QBEAAGV?$arg@$03@2@@Z 0040a910 f i DMainApp.obj
 0001:00009930       ??A?$list5@AA_KAAW4LINKSTATUS@@AAPAXAAGAAPAX@_bi@boost@@QBEAAPAXV?$arg@$04@2@@Z 0040a930 f i DMainApp.obj
 0001:00009950       ?strlen_s@dwt@@YAIPBDH@Z   0040a950 f i DMainApp.obj
 0001:00009970       ?strlen@dwt@@YGIPBDI@Z     0040a970 f i DMainApp.obj
 0001:000099a0       ?strcpy_unsafe@@YAXPADIPBD@Z 0040a9a0 f i DMainApp.obj
 0001:00009a40       ??0cStringMatchDict@dwt@@QAE@XZ 0040aa40 f i DMainApp.obj
 0001:00009a60       ??1cStringMatchDict@dwt@@QAE@XZ 0040aa60 f i DMainApp.obj
 0001:00009a80       ??1sLetter@cStringMatchDict@dwt@@QAE@XZ 0040aa80 f i DMainApp.obj
 0001:00009aa0       ?Clear@sLetter@cStringMatchDict@dwt@@QAEXXZ 0040aaa0 f i DMainApp.obj
 0001:00009b20       ??_GsLetter@cStringMatchDict@dwt@@QAEPAXI@Z 0040ab20 f i DMainApp.obj
 0001:00009b50       ?GetTraceType@@YAAAHXZ     0040ab50 f   stdafx.obj
 0001:00009b60       ?GetUseEndl@@YAAAHXZ       0040ab60 f   stdafx.obj
 0001:00009b70       ?GetSkipMargin@@YAAA_NXZ   0040ab70 f   stdafx.obj
 0001:00009b80       ?trace@@YAXDD@Z            0040ab80 f   stdafx.obj
 0001:0000a1b0       ?FormatString@@YAPBDPBDZZ  0040b1b0 f   stdafx.obj
 0001:0000a1f0       ?rfalse@@YAHPBDZZ          0040b1f0 f   stdafx.obj
 0001:0000a240       ?rfalse@@YAHDDPBDZZ        0040b240 f   stdafx.obj
 0001:0000a2b0       ?GetStackValue@@YA_KXZ     0040b2b0 f   stdafx.obj
 0001:0000a2e0       ?GetCpuSpeed@@YA_KXZ       0040b2e0 f   stdafx.obj
 0001:0000a3b0       ?CycleSeg@@YA_KXZ          0040b3b0 f   stdafx.obj
 0001:0000a430       ?CycleEnd@@YA_KXZ          0040b430 f   stdafx.obj
 0001:0000a480       ?GetCpuCycle@@YA_KXZ       0040b480 f i stdafx.obj
 0001:0000a490       ?_AtlGetConversionACP@ATL@@YGIXZ 0040b490 f i stdafx.obj
 0001:0000a4a0       ?AtlThrow@ATL@@YGXJ@Z      0040b4a0 f i stdafx.obj
 0001:0000a4d0       ??$?HDU?$char_traits@D@std@@V?$allocator@D@1@@std@@YA?AV?$basic_string@DU?$char_traits@D@std@@V?$allocator@D@2@@0@ABV10@PBD@Z 0040b4d0 f i stdafx.obj
 0001:0000a550       ??0CallbackForUpdateMember@@QAE@XZ 0040b550 f i GameObjects:FactionManager.obj
 0001:0000a550       ??0CComCriticalSection@ATL@@QAE@XZ 0040b550 f i stdafx.obj
 0001:0000a570       ?Init@CComCriticalSection@ATL@@QAEJXZ 0040b570 f i stdafx.obj
 0001:0000a610       ??0CDebug@@QAE@XZ          0040b610 f i stdafx.obj
 0001:0000a680       ??1CDebug@@QAE@XZ          0040b680 f i stdafx.obj
 0001:0000a6b0       ?ChkNT@@YA_NE@Z            0040b6b0 f   区域服务器.obj
 0001:0000a6e0       ?DebugInfoShow@@YAXXZ      0040b6e0 f   区域服务器.obj
 0001:0000a8c0       ?GetStringParameter@@YAPBDPBDHH@Z 0040b8c0 f   区域服务器.obj
 0001:0000aa00       ?AppQuit@@YAXXZ            0040ba00 f   区域服务器.obj
 0001:0000aa20       ?AddInfo@@YAXPBD@Z         0040ba20 f   区域服务器.obj
 0001:0000aa40       ?CF_state@@YGXPAXHPAPBD@Z  0040ba40 f   区域服务器.obj
 0001:0000ab00       ?CF_frame@@YGXPAXHPAPBD@Z  0040bb00 f   区域服务器.obj
 0001:0000ab30       ?CF_GMTalkMask@@YGXPAXHPAPBD@Z 0040bb30 f   区域服务器.obj
 0001:0000ac60       ?CF_bc@@YGXPAXHPAPBD@Z     0040bc60 f   区域服务器.obj
 0001:0000ad20       ?CF_sreset@@YGXPAXHPAPBD@Z 0040bd20 f   区域服务器.obj
 0001:0000ad60       ?CF_mtsb@@YGXPAXHPAPBD@Z   0040bd60 f   区域服务器.obj
 0001:0000ae10       ?CF_typesb@@YGXPAXHPAPBD@Z 0040be10 f   区域服务器.obj
 0001:0000ae50       ?CF_frameout@@YGXPAXHPAPBD@Z 0040be50 f   区域服务器.obj
 0001:0000aef0       ?CF_loadenv@@YGXPAXHPAPBD@Z 0040bef0 f   区域服务器.obj
 0001:0000af00       ?CF_switchsm@@YGXPAXHPAPBD@Z 0040bf00 f   区域服务器.obj
 0001:0000af20       ?CF_newwaycheck@@YGXPAXHPAPBD@Z 0040bf20 f   区域服务器.obj
 0001:0000af40       ?CF_logchat@@YGXPAXHPAPBD@Z 0040bf40 f   区域服务器.obj
 0001:0000af90       ?CF_AutoRP@@YGXPAXHPAPBD@Z 0040bf90 f   区域服务器.obj
 0001:0000afd0       ?CF_setnetlimit@@YGXPAXHPAPBD@Z 0040bfd0 f   区域服务器.obj
 0001:0000b010       ?CF_autopackage@@YGXPAXHPAPBD@Z 0040c010 f   区域服务器.obj
 0001:0000b060       ?CF_loaditemconf@@YGXPAXHPAPBD@Z 0040c060 f   区域服务器.obj
 0001:0000b080       ?CF_backup@@YGXPAXHPAPBD@Z 0040c080 f   区域服务器.obj
 0001:0000b090       ?CF_lua@@YGXPAXHPAPBD@Z    0040c090 f   区域服务器.obj
 0001:0000b160       ?CF_checkdynamicregion@@YGXPAXHPAPBD@Z 0040c160 f   区域服务器.obj
 0001:0000b190       ?CF_checkhero@@YGXPAXHPAPBD@Z 0040c190 f   区域服务器.obj
 0001:0000b1c0       ?CF_checkflag@@YGXPAXHPAPBD@Z 0040c1c0 f   区域服务器.obj
 0001:0000b2f0       ?CF_unlimit@@YGXPAXHPAPBD@Z 0040c2f0 f   区域服务器.obj
 0001:0000b320       ?CF_debug@@YGXPAXHPAPBD@Z  0040c320 f   区域服务器.obj
 0001:0000b340       ?CF_functrace@@YGXPAXHPAPBD@Z 0040c340 f   区域服务器.obj
 0001:0000b370       ?CF_errorout@@YGXPAXHPAPBD@Z 0040c370 f   区域服务器.obj
 0001:0000b3a0       ?CF_chkluatimeout@@YGXPAXHPAPBD@Z 0040c3a0 f   区域服务器.obj
 0001:0000b440       ?CF_loadkeyitem@@YGXPAXHPAPBD@Z 0040c440 f   区域服务器.obj
 0001:0000b470       ?CF_TimeProberOut@@YGXPAXHPAPBD@Z 0040c470 f   区域服务器.obj
 0001:0000b4a0       ?CF_TimeProberSet@@YGXPAXHPAPBD@Z 0040c4a0 f   区域服务器.obj
 0001:0000b570       ?CF_keychangelogset@@YGXPAXHPAPBD@Z 0040c570 f   区域服务器.obj
 0001:0000b620       ?CF_keychangelogout@@YGXPAXHPAPBD@Z 0040c620 f   区域服务器.obj
 0001:0000b6d0       ?CF_scripterrorout@@YGXPAXHPAPBD@Z 0040c6d0 f   区域服务器.obj
 0001:0000b790       ?CF_sdebug@@YGXPAXHPAPBD@Z 0040c790 f   区域服务器.obj
 0001:0000b880       ?CF_showdebug@@YGXPAXHPAPBD@Z 0040c880 f   区域服务器.obj
 0001:0000b890       ?CF_luaevent@@YGXPAXHPAPBD@Z 0040c890 f   区域服务器.obj
 0001:0000b8c0       ?CF_cevent@@YGXPAXHPAPBD@Z 0040c8c0 f   区域服务器.obj
 0001:0000b8f0       ?CF_dellog@@YGXPAXHPAPBD@Z 0040c8f0 f   区域服务器.obj
 0001:0000b910       ?CF_nt@@YGXPAXHPAPBD@Z     0040c910 f   区域服务器.obj
 0001:0000b9c0       ?CF_checklock@@YGXPAXHPAPBD@Z 0040c9c0 f   区域服务器.obj
 0001:0000ba70       ?MyUnhandledExceptionFilter@@YGJPAU_EXCEPTION_POINTERS@@@Z 0040ca70 f   区域服务器.obj
 0001:0000bb80       ?getSingleton@StaticSingleton@@SAAAU1@XZ 0040cb80 f   区域服务器.obj
 0001:0000bbf0       _WinMain@16                0040cbf0 f   区域服务器.obj
 0001:0000be20       ??0LuaFunctor@@QAE@PAUlua_State@@PBD@Z 0040ce20 f i 区域服务器.obj
 0001:0000bfd0       ??1LuaFunctor@@QAE@XZ      0040cfd0 f i 区域服务器.obj
 0001:0000c0c0       ??ALuaFunctor@@QAEAAV0@ABVVariant@lite@@@Z 0040d0c0 f i 区域服务器.obj
 0001:0000c120       ?push@lua_variant@lite@@QBEHPAUlua_State@@@Z 0040d120 f i 区域服务器.obj
 0001:0000c300       ??RLuaFunctor@@QAEHHPAVVariant@lite@@@Z 0040d300 f i 区域服务器.obj
 0001:0000c6b0       ?get@lua_variant@lite@@QAEHPAUlua_State@@H@Z 0040d6b0 f i 区域服务器.obj
 0001:0000c8f0       ??0MyStaticSingleton@@QAE@XZ 0040d8f0 f i 区域服务器.obj
 0001:0000c910       ?Init@MyStaticSingleton@@UAEHXZ 0040d910 f i 区域服务器.obj
 0001:0000c980       ?Loop@MyStaticSingleton@@UAEXXZ 0040d980 f i 区域服务器.obj
 0001:0000ca00       ?Exit@MyStaticSingleton@@UAEXXZ 0040da00 f i 区域服务器.obj
 0001:0000ca20       ?RegisterCmds@MyStaticSingleton@@UAEXXZ 0040da20 f i 区域服务器.obj
 0001:0000ce20       ??0StaticSingleton@@QAE@XZ 0040de20 f i 区域服务器.obj
 0001:0000ce80       ??1?$map@V?$basic_string@DU?$char_traits@D@std@@V?$allocator@D@2@@std@@UCMD_FUNCDATA@StaticSingleton@@U?$less@V?$basic_string@DU?$char_traits@D@std@@V?$allocator@D@2@@std@@@2@V?$allocator@U?$pair@$$CBV?$basic_string@DU?$char_traits@D@std@@V?$allocator@D@2@@std@@UCMD_FUNCDATA@StaticSingleton@@@std@@@2@@std@@QAE@XZ 0040de80 f i 区域服务器.obj
 0001:0000cea0       ??0bad_exception@std@@QAE@PBD@Z 0040dea0 f i 区域服务器.obj
 0001:0000ced0       ??1bad_exception@std@@UAE@XZ 0040ded0 f i 区域服务器.obj
 0001:0000cef0       ??_Ebad_exception@std@@UAEPAXI@Z 0040def0 f i 区域服务器.obj
 0001:0000cef0       ??_Gbad_exception@std@@UAEPAXI@Z 0040def0 f i 区域服务器.obj
 0001:0000cf20       ??0bad_exception@std@@QAE@ABV01@@Z 0040df20 f i 区域服务器.obj
 0001:0000cf50       ??A?$map@V?$basic_string@DU?$char_traits@D@std@@V?$allocator@D@2@@std@@HU?$less@V?$basic_string@DU?$char_traits@D@std@@V?$allocator@D@2@@std@@@2@V?$allocator@U?$pair@$$CBV?$basic_string@DU?$char_traits@D@std@@V?$allocator@D@2@@std@@H@std@@@2@@std@@QAEAAHABV?$basic_string@DU?$char_traits@D@std@@V?$allocator@D@2@@1@@Z 0040df50 f i 区域服务器.obj
 0001:0000d030       ??0?$map@V?$basic_string@DU?$char_traits@D@std@@V?$allocator@D@2@@std@@UCMD_FUNCDATA@StaticSingleton@@U?$less@V?$basic_string@DU?$char_traits@D@std@@V?$allocator@D@2@@std@@@2@V?$allocator@U?$pair@$$CBV?$basic_string@DU?$char_traits@D@std@@V?$allocator@D@2@@std@@UCMD_FUNCDATA@StaticSingleton@@@std@@@2@@std@@QAE@XZ 0040e030 f i 区域服务器.obj
 0001:0000d060       ??1?$_Tree@V?$_Tmap_traits@V?$basic_string@DU?$char_traits@D@std@@V?$allocator@D@2@@std@@UCMD_FUNCDATA@StaticSingleton@@U?$less@V?$basic_string@DU?$char_traits@D@std@@V?$allocator@D@2@@std@@@2@V?$allocator@U?$pair@$$CBV?$basic_string@DU?$char_traits@D@std@@V?$allocator@D@2@@std@@UCMD_FUNCDATA@StaticSingleton@@@std@@@2@$0A@@std@@@std@@QAE@XZ 0040e060 f i 区域服务器.obj
 0001:0000d080       ??0?$list@V?$basic_string@DU?$char_traits@D@std@@V?$allocator@D@2@@std@@V?$allocator@V?$basic_string@DU?$char_traits@D@std@@V?$allocator@D@2@@std@@@2@@std@@QAE@XZ 0040e080 f i 区域服务器.obj
 0001:0000d0c0       ?_Key@?$_Tree@V?$_Tmap_traits@GV?$map@KGU?$less@K@std@@V?$allocator@U?$pair@$$CBKG@std@@@2@@std@@U?$less@G@2@V?$allocator@U?$pair@$$CBGV?$map@KGU?$less@K@std@@V?$allocator@U?$pair@$$CBKG@std@@@2@@std@@@std@@@2@$0A@@std@@@std@@KAABGPAU_Node@?$_Tree_nod@V?$_Tmap_traits@GV?$map@KGU?$less@K@std@@V?$allocator@U?$pair@$$CBKG@std@@@2@@std@@U?$less@G@2@V?$allocator@U?$pair@$$CBGV?$map@KGU?$less@K@std@@V?$allocator@U?$pair@$$CBKG@std@@@2@@std@@@std@@@2@$0A@@std@@@2@@Z 0040e0c0 f i GameObjects:MonsterDrop.obj
 0001:0000d0c0       ?_Key@?$_Tree@V?$_Tmap_traits@KUIRcd@@U?$less@K@std@@V?$allocator@U?$pair@$$CBKUIRcd@@@std@@@3@$0A@@std@@@std@@KAABKPAU_Node@?$_Tree_nod@V?$_Tmap_traits@KUIRcd@@U?$less@K@std@@V?$allocator@U?$pair@$$CBKUIRcd@@@std@@@3@$0A@@std@@@2@@Z 0040e0c0 f i GameObjects:ItemData.obj
 0001:0000d0c0       ?_Key@?$_Tree@V?$_Tmap_traits@V?$basic_string@DU?$char_traits@D@std@@V?$allocator@D@2@@std@@KU?$less@V?$basic_string@DU?$char_traits@D@std@@V?$allocator@D@2@@std@@@2@V?$allocator@U?$pair@$$CBV?$basic_string@DU?$char_traits@D@std@@V?$allocator@D@2@@std@@K@std@@@2@$0A@@std@@@std@@KAABV?$basic_string@DU?$char_traits@D@std@@V?$allocator@D@2@@2@PAU_Node@?$_Tree_nod@V?$_Tmap_traits@V?$basic_string@DU?$char_traits@D@std@@V?$allocator@D@2@@std@@KU?$less@V?$basic_string@DU?$char_traits@D@std@@V?$allocator@D@2@@std@@@2@V?$allocator@U?$pair@$$CBV?$basic_string@DU?$char_traits@D@std@@V?$allocator@D@2@@std@@K@std@@@2@$0A@@std@@@2@@Z 0040e0c0 f i NetGMModule.obj
 0001:0000d0c0       ?_Key@?$_Tree@V?$_Tmap_traits@KGU?$less@K@std@@V?$allocator@U?$pair@$$CBKG@std@@@2@$0A@@std@@@std@@KAABKPAU_Node@?$_Tree_nod@V?$_Tmap_traits@KGU?$less@K@std@@V?$allocator@U?$pair@$$CBKG@std@@@2@$0A@@std@@@2@@Z 0040e0c0 f i GameObjects:MonsterDrop.obj
 0001:0000d0c0       ?_Key@?$_Tree@V?$_Tmap_traits@V?$basic_string@DU?$char_traits@D@std@@V?$allocator@D@2@@std@@PAVBuffBase@@U?$less@V?$basic_string@DU?$char_traits@D@std@@V?$allocator@D@2@@std@@@2@V?$allocator@U?$pair@$$CBV?$basic_string@DU?$char_traits@D@std@@V?$allocator@D@2@@std@@PAVBuffBase@@@std@@@2@$0A@@std@@@std@@KAABV?$basic_string@DU?$char_traits@D@std@@V?$allocator@D@2@@2@PAU_Node@?$_Tree_nod@V?$_Tmap_traits@V?$basic_string@DU?$char_traits@D@std@@V?$allocator@D@2@@std@@PAVBuffBase@@U?$less@V?$basic_string@DU?$char_traits@D@std@@V?$allocator@D@2@@std@@@2@V?$allocator@U?$pair@$$CBV?$basic_string@DU?$char_traits@D@std@@V?$allocator@D@2@@std@@PAVBuffBase@@@std@@@2@$0A@@std@@@2@@Z 0040e0c0 f i GameObjects:BuffEntityManager.obj
 0001:0000d0c0       ?_Key@?$_Tree@V?$_Tmap_traits@V?$basic_string@DU?$char_traits@D@std@@V?$allocator@D@2@@std@@PAUCooler@@U?$less@V?$basic_string@DU?$char_traits@D@std@@V?$allocator@D@2@@std@@@2@V?$allocator@U?$pair@$$CBV?$basic_string@DU?$char_traits@D@std@@V?$allocator@D@2@@std@@PAUCooler@@@std@@@2@$0A@@std@@@std@@KAABV?$basic_string@DU?$char_traits@D@std@@V?$allocator@D@2@@2@PAU_Node@?$_Tree_nod@V?$_Tmap_traits@V?$basic_string@DU?$char_traits@D@std@@V?$allocator@D@2@@std@@PAUCooler@@U?$less@V?$basic_string@DU?$char_traits@D@std@@V?$allocator@D@2@@std@@@2@V?$allocator@U?$pair@$$CBV?$basic_string@DU?$char_traits@D@std@@V?$allocator@D@2@@std@@PAUCooler@@@std@@@2@$0A@@std@@@2@@Z 0040e0c0 f i GameObjects:CooldownMgr.obj
 0001:0000d0c0       ?_Key@?$_Tree@V?$_Tmap_traits@GKU?$less@G@std@@V?$allocator@U?$pair@$$CBGK@std@@@2@$0A@@std@@@std@@KAABGPAU_Node@?$_Tree_nod@V?$_Tmap_traits@GKU?$less@G@std@@V?$allocator@U?$pair@$$CBGK@std@@@2@$0A@@std@@@2@@Z 0040e0c0 f i GameObjects:MonsterDrop.obj
 0001:0000d0c0       ?_Key@?$_Tree@V?$_Tmap_traits@V?$basic_string@DU?$char_traits@D@std@@V?$allocator@D@2@@std@@USTaskExBuffer@@U?$less@V?$basic_string@DU?$char_traits@D@std@@V?$allocator@D@2@@std@@@2@V?$allocator@U?$pair@$$CBV?$basic_string@DU?$char_traits@D@std@@V?$allocator@D@2@@std@@USTaskExBuffer@@@std@@@2@$0A@@std@@@std@@KAABV?$basic_string@DU?$char_traits@D@std@@V?$allocator@D@2@@2@PAU_Node@?$_Tree_nod@V?$_Tmap_traits@V?$basic_string@DU?$char_traits@D@std@@V?$allocator@D@2@@std@@USTaskExBuffer@@U?$less@V?$basic_string@DU?$char_traits@D@std@@V?$allocator@D@2@@std@@@2@V?$allocator@U?$pair@$$CBV?$basic_string@DU?$char_traits@D@std@@V?$allocator@D@2@@std@@USTaskExBuffer@@@std@@@2@$0A@@std@@@2@@Z 0040e0c0 f i GameObjects:ExtraScriptFunctions.obj
 0001:0000d0c0       ?_Key@?$_Tree@V?$_Tmap_traits@PBDV?$deque@KV?$allocator@K@std@@@std@@U?$less@PBD@2@V?$allocator@U?$pair@QBDV?$deque@KV?$allocator@K@std@@@std@@@std@@@2@$0A@@std@@@std@@KAABQBDPAU_Node@?$_Tree_nod@V?$_Tmap_traits@PBDV?$deque@KV?$allocator@K@std@@@std@@U?$less@PBD@2@V?$allocator@U?$pair@QBDV?$deque@KV?$allocator@K@std@@@std@@@std@@@2@$0A@@std@@@2@@Z 0040e0c0 f i TimeProber.obj
 0001:0000d0c0       ?_Key@?$_Tree@V?$_Tset_traits@KU?$less@K@std@@V?$allocator@K@2@$0A@@std@@@std@@KAABKPAU_Node@?$_Tree_nod@V?$_Tset_traits@KU?$less@K@std@@V?$allocator@K@2@$0A@@std@@@2@@Z 0040e0c0 f i GameObjects:ExtraScriptFunctions.obj
 0001:0000d0c0       ?_Key@?$_Tree@V?$_Tmap_traits@HV?$vector@USItemOddsTabledata@@V?$allocator@USItemOddsTabledata@@@std@@@std@@U?$less@H@2@V?$allocator@U?$pair@$$CBHV?$vector@USItemOddsTabledata@@V?$allocator@USItemOddsTabledata@@@std@@@std@@@std@@@2@$0A@@std@@@std@@KAABHPAU_Node@?$_Tree_nod@V?$_Tmap_traits@HV?$vector@USItemOddsTabledata@@V?$allocator@USItemOddsTabledata@@@std@@@std@@U?$less@H@2@V?$allocator@U?$pair@$$CBHV?$vector@USItemOddsTabledata@@V?$allocator@USItemOddsTabledata@@@std@@@std@@@std@@@2@$0A@@std@@@2@@Z 0040e0c0 f i GameObjects:DynDropTable.obj
 0001:0000d0c0       ?_Key@?$_Tree@V?$_Tmap_traits@IV?$shared_ptr@VIObject@@@boost@@U?$less@I@std@@V?$allocator@U?$pair@$$CBIV?$shared_ptr@VIObject@@@boost@@@std@@@4@$0A@@std@@@std@@KAABIPAU_Node@?$_Tree_nod@V?$_Tmap_traits@IV?$shared_ptr@VIObject@@@boost@@U?$less@I@std@@V?$allocator@U?$pair@$$CBIV?$shared_ptr@VIObject@@@boost@@@std@@@4@$0A@@std@@@2@@Z 0040e0c0 f i GameObjects:BaseObject.obj
 0001:0000d0c0       ?_Key@?$_Tree@V?$_Tmap_traits@HV?$shared_ptr@V?$pool@Udefault_user_allocator_new_delete@boost@@@boost@@@boost@@U?$less@H@std@@V?$allocator@U?$pair@$$CBHV?$shared_ptr@V?$pool@Udefault_user_allocator_new_delete@boost@@@boost@@@boost@@@std@@@4@$0A@@std@@@std@@KAABHPAU_Node@?$_Tree_nod@V?$_Tmap_traits@HV?$shared_ptr@V?$pool@Udefault_user_allocator_new_delete@boost@@@boost@@@boost@@U?$less@H@std@@V?$allocator@U?$pair@$$CBHV?$shared_ptr@V?$pool@Udefault_user_allocator_new_delete@boost@@@boost@@@boost@@@std@@@4@$0A@@std@@@2@@Z 0040e0c0 f i GameObjects:Region.obj
 0001:0000d0c0       ?_Key@?$_Tree@V?$_Tmap_traits@HVCTrigger@@U?$less@H@std@@V?$allocator@U?$pair@$$CBHVCTrigger@@@std@@@3@$0A@@std@@@std@@KAABHPAU_Node@?$_Tree_nod@V?$_Tmap_traits@HVCTrigger@@U?$less@H@std@@V?$allocator@U?$pair@$$CBHVCTrigger@@@std@@@3@$0A@@std@@@2@@Z 0040e0c0 f i GameObjects:Region.obj
 0001:0000d0c0       ?_Key@?$_Tree@V?$_Tmap_traits@GJU?$less@G@std@@V?$allocator@U?$pair@$$CBGJ@std@@@2@$0A@@std@@@std@@KAABGPAU_Node@?$_Tree_nod@V?$_Tmap_traits@GJU?$less@G@std@@V?$allocator@U?$pair@$$CBGJ@std@@@2@$0A@@std@@@2@@Z 0040e0c0 f i GameObjects:Item.obj
 0001:0000d0c0       ?_Key@?$_Tree@V?$_Tmap_traits@KUSHitData@CMonster@@U?$less@K@std@@V?$allocator@U?$pair@$$CBKUSHitData@CMonster@@@std@@@4@$0A@@std@@@std@@KAABKPAU_Node@?$_Tree_nod@V?$_Tmap_traits@KUSHitData@CMonster@@U?$less@K@std@@V?$allocator@U?$pair@$$CBKUSHitData@CMonster@@@std@@@4@$0A@@std@@@2@@Z 0040e0c0 f i GameObjects:Player.obj
 0001:0000d0c0       ?_Key@?$_Tree@V?$_Tmap_traits@KKU?$less@K@std@@V?$allocator@U?$pair@$$CBKK@std@@@2@$0A@@std@@@std@@KAABKPAU_Node@?$_Tree_nod@V?$_Tmap_traits@KKU?$less@K@std@@V?$allocator@U?$pair@$$CBKK@std@@@2@$0A@@std@@@2@@Z 0040e0c0 f i GameObjects:Player.obj
 0001:0000d0c0       ?_Key@?$_Tree@V?$_Tmap_traits@KUSFBData@@U?$less@K@std@@V?$allocator@U?$pair@$$CBKUSFBData@@@std@@@3@$0A@@std@@@std@@KAABKPAU_Node@?$_Tree_nod@V?$_Tmap_traits@KUSFBData@@U?$less@K@std@@V?$allocator@U?$pair@$$CBKUSFBData@@@std@@@3@$0A@@std@@@2@@Z 0040e0c0 f i GameObjects:Player.obj
 0001:0000d0c0       ?_Key@?$_Tree@V?$_Tset_traits@GU?$less@G@std@@V?$allocator@G@2@$0A@@std@@@std@@KAABGPAU_Node@?$_Tree_nod@V?$_Tset_traits@GU?$less@G@std@@V?$allocator@G@2@$0A@@std@@@2@@Z 0040e0c0 f i GameObjects:ExtraScriptFunctions.obj
 0001:0000d0c0       ?_Key@?$_Tree@V?$_Tmap_traits@V?$stringkey@$$BY0BF@D@dwt@@KU?$less@V?$stringkey@$$BY0BF@D@dwt@@@std@@V?$allocator@U?$pair@$$CBV?$stringkey@$$BY0BF@D@dwt@@K@std@@@4@$0A@@std@@@std@@KAABV?$stringkey@$$BY0BF@D@dwt@@PAU_Node@?$_Tree_nod@V?$_Tmap_traits@V?$stringkey@$$BY0BF@D@dwt@@KU?$less@V?$stringkey@$$BY0BF@D@dwt@@@std@@V?$allocator@U?$pair@$$CBV?$stringkey@$$BY0BF@D@dwt@@K@std@@@4@$0A@@std@@@2@@Z 0040e0c0 f i GameObjects:PlayerManager.obj
 0001:0000d0c0       ?_Key@?$_Tree@V?$_Tmap_traits@V?$basic_string@DU?$char_traits@D@std@@V?$allocator@D@2@@std@@HU?$less@V?$basic_string@DU?$char_traits@D@std@@V?$allocator@D@2@@std@@@2@V?$allocator@U?$pair@$$CBV?$basic_string@DU?$char_traits@D@std@@V?$allocator@D@2@@std@@H@std@@@2@$0A@@std@@@std@@KAABV?$basic_string@DU?$char_traits@D@std@@V?$allocator@D@2@@2@PAU_Node@?$_Tree_nod@V?$_Tmap_traits@V?$basic_string@DU?$char_traits@D@std@@V?$allocator@D@2@@std@@HU?$less@V?$basic_string@DU?$char_traits@D@std@@V?$allocator@D@2@@std@@@2@V?$allocator@U?$pair@$$CBV?$basic_string@DU?$char_traits@D@std@@V?$allocator@D@2@@std@@H@std@@@2@$0A@@std@@@2@@Z 0040e0c0 f i 区域服务器.obj
 0001:0000d0c0       ?_Key@?$_Tree@V?$_Tmap_traits@KUSTraceOBJ@CFuncTrace@@U?$less@K@std@@V?$allocator@U?$pair@$$CBKUSTraceOBJ@CFuncTrace@@@std@@@4@$0A@@std@@@std@@KAABKPAU_Node@?$_Tree_nod@V?$_Tmap_traits@KUSTraceOBJ@CFuncTrace@@U?$less@K@std@@V?$allocator@U?$pair@$$CBKUSTraceOBJ@CFuncTrace@@@std@@@4@$0A@@std@@@2@@Z 0040e0c0 f i GameObjects:xyLog.obj
 0001:0000d0c0       ?_Key@?$_Tree@V?$_Tmap_traits@V?$basic_string@DU?$char_traits@D@std@@V?$allocator@D@2@@std@@UCMD_FUNCDATA@StaticSingleton@@U?$less@V?$basic_string@DU?$char_traits@D@std@@V?$allocator@D@2@@std@@@2@V?$allocator@U?$pair@$$CBV?$basic_string@DU?$char_traits@D@std@@V?$allocator@D@2@@std@@UCMD_FUNCDATA@StaticSingleton@@@std@@@2@$0A@@std@@@std@@KAABV?$basic_string@DU?$char_traits@D@std@@V?$allocator@D@2@@2@PAU_Node@?$_Tree_nod@V?$_Tmap_traits@V?$basic_string@DU?$char_traits@D@std@@V?$allocator@D@2@@std@@UCMD_FUNCDATA@StaticSingleton@@U?$less@V?$basic_string@DU?$char_traits@D@std@@V?$allocator@D@2@@std@@@2@V?$allocator@U?$pair@$$CBV?$basic_string@DU?$char_traits@D@std@@V?$allocator@D@2@@std@@UCMD_FUNCDATA@StaticSingleton@@@std@@@2@$0A@@std@@@2@@Z 0040e0c0 f i StdFrame.obj
 0001:0000d0c0       ?_Key@?$_Tree@V?$_Tmap_traits@GHU?$less@G@std@@V?$allocator@U?$pair@$$CBGH@std@@@2@$0A@@std@@@std@@KAABGPAU_Node@?$_Tree_nod@V?$_Tmap_traits@GHU?$less@G@std@@V?$allocator@U?$pair@$$CBGH@std@@@2@$0A@@std@@@2@@Z 0040e0c0 f i GameObjects:Region.obj
 0001:0000d0c0       ?_Key@?$_Tree@V?$_Tmap_traits@PBDUSortNode@ProfileManager@jex@@U?$less@PBD@std@@V?$allocator@U?$pair@QBDUSortNode@ProfileManager@jex@@@std@@@5@$0A@@std@@@std@@KAABQBDPAU_Node@?$_Tree_nod@V?$_Tmap_traits@PBDUSortNode@ProfileManager@jex@@U?$less@PBD@std@@V?$allocator@U?$pair@QBDUSortNode@ProfileManager@jex@@@std@@@5@$0A@@std@@@2@@Z 0040e0c0 f i TimeProber.obj
 0001:0000d0c0       ?_Key@?$_Tree@V?$_Tmap_traits@GGU?$less@G@std@@V?$allocator@U?$pair@$$CBGG@std@@@2@$0A@@std@@@std@@KAABGPAU_Node@?$_Tree_nod@V?$_Tmap_traits@GGU?$less@G@std@@V?$allocator@U?$pair@$$CBGG@std@@@2@$0A@@std@@@2@@Z 0040e0c0 f i GameObjects:MonsterDrop.obj
 0001:0000d0c0       ?_Key@?$_Tree@V?$_Tmap_traits@V?$basic_string@DU?$char_traits@D@std@@V?$allocator@D@2@@std@@USTraceFile@@U?$less@V?$basic_string@DU?$char_traits@D@std@@V?$allocator@D@2@@std@@@2@V?$allocator@U?$pair@$$CBV?$basic_string@DU?$char_traits@D@std@@V?$allocator@D@2@@std@@USTraceFile@@@std@@@2@$0A@@std@@@std@@KAABV?$basic_string@DU?$char_traits@D@std@@V?$allocator@D@2@@2@PAU_Node@?$_Tree_nod@V?$_Tmap_traits@V?$basic_string@DU?$char_traits@D@std@@V?$allocator@D@2@@std@@USTraceFile@@U?$less@V?$basic_string@DU?$char_traits@D@std@@V?$allocator@D@2@@std@@@2@V?$allocator@U?$pair@$$CBV?$basic_string@DU?$char_traits@D@std@@V?$allocator@D@2@@std@@USTraceFile@@@std@@@2@$0A@@std@@@2@@Z 0040e0c0 f i traceinfo.obj
 0001:0000d0e0       ?insert@?$_Tree@V?$_Tmap_traits@V?$basic_string@DU?$char_traits@D@std@@V?$allocator@D@2@@std@@HU?$less@V?$basic_string@DU?$char_traits@D@std@@V?$allocator@D@2@@std@@@2@V?$allocator@U?$pair@$$CBV?$basic_string@DU?$char_traits@D@std@@V?$allocator@D@2@@std@@H@std@@@2@$0A@@std@@@std@@QAE?AViterator@12@V312@ABU?$pair@$$CBV?$basic_string@DU?$char_traits@D@std@@V?$allocator@D@2@@std@@H@2@@Z 0040e0e0 f i 区域服务器.obj
 0001:0000d6b0       ??0?$_Tree@V?$_Tmap_traits@V?$basic_string@DU?$char_traits@D@std@@V?$allocator@D@2@@std@@UCMD_FUNCDATA@StaticSingleton@@U?$less@V?$basic_string@DU?$char_traits@D@std@@V?$allocator@D@2@@std@@@2@V?$allocator@U?$pair@$$CBV?$basic_string@DU?$char_traits@D@std@@V?$allocator@D@2@@std@@UCMD_FUNCDATA@StaticSingleton@@@std@@@2@$0A@@std@@@std@@QAE@ABU?$less@V?$basic_string@DU?$char_traits@D@std@@V?$allocator@D@2@@std@@@1@ABV?$allocator@U?$pair@$$CBV?$basic_string@DU?$char_traits@D@std@@V?$allocator@D@2@@std@@UCMD_FUNCDATA@StaticSingleton@@@std@@@1@@Z 0040e6b0 f i 区域服务器.obj
 0001:0000d6f0       ?_Tidy@?$_Tree@V?$_Tmap_traits@V?$basic_string@DU?$char_traits@D@std@@V?$allocator@D@2@@std@@UCMD_FUNCDATA@StaticSingleton@@U?$less@V?$basic_string@DU?$char_traits@D@std@@V?$allocator@D@2@@std@@@2@V?$allocator@U?$pair@$$CBV?$basic_string@DU?$char_traits@D@std@@V?$allocator@D@2@@std@@UCMD_FUNCDATA@StaticSingleton@@@std@@@2@$0A@@std@@@std@@IAEXXZ 0040e6f0 f i 区域服务器.obj
 0001:0000d7a0       ?_Buynode@?$list@V?$basic_string@DU?$char_traits@D@std@@V?$allocator@D@2@@std@@V?$allocator@V?$basic_string@DU?$char_traits@D@std@@V?$allocator@D@2@@std@@@2@@std@@IAEPAU_Node@?$_List_nod@V?$basic_string@DU?$char_traits@D@std@@V?$allocator@D@2@@std@@V?$allocator@V?$basic_string@DU?$char_traits@D@std@@V?$allocator@D@2@@std@@@2@@2@XZ 0040e7a0 f i 区域服务器.obj
 0001:0000d880       ??0?$_List_val@USMonsterData@@V?$allocator@USMonsterData@@@std@@@std@@IAE@V?$allocator@USMonsterData@@@1@@Z 0040e880 f i GameObjects:Monster.obj
 0001:0000d880       ??0?$_List_val@KV?$allocator@K@std@@@std@@IAE@V?$allocator@K@1@@Z 0040e880 f i GameObjects:FactionManager.obj
 0001:0000d880       ??0?$_List_val@V?$shared_ptr@VIObject@@@boost@@V?$allocator@V?$shared_ptr@VIObject@@@boost@@@std@@@std@@IAE@V?$allocator@V?$shared_ptr@VIObject@@@boost@@@1@@Z 0040e880 f i GameObjects:ExtraScriptFunctions.obj
 0001:0000d880       ??0?$_List_val@USPlayerRelates@typedef_v6@@V?$allocator@USPlayerRelates@typedef_v6@@@std@@@std@@IAE@V?$allocator@USPlayerRelates@typedef_v6@@@1@@Z 0040e880 f i GameObjects:Player.obj
 0001:0000d880       ??0?$_List_val@UtempAddItem@CPlayer@@V?$allocator@UtempAddItem@CPlayer@@@std@@@std@@IAE@V?$allocator@UtempAddItem@CPlayer@@@1@@Z 0040e880 f i GameObjects:Player.obj
 0001:0000d880       ??0?$_List_val@PAVCFightListener@@V?$allocator@PAVCFightListener@@@std@@@std@@IAE@V?$allocator@PAVCFightListener@@@1@@Z 0040e880 f i GameObjects:FightObject.obj
 0001:0000d880       ??0?$_List_val@USRelatesBase@typedef_v6@@V?$allocator@USRelatesBase@typedef_v6@@@std@@@std@@IAE@V?$allocator@USRelatesBase@typedef_v6@@@1@@Z 0040e880 f i GameObjects:Player.obj
 0001:0000d880       ??0?$_List_val@PAVCDynamicRegion@@V?$allocator@PAVCDynamicRegion@@@std@@@std@@IAE@V?$allocator@PAVCDynamicRegion@@@1@@Z 0040e880 f i GameObjects:RegionManager.obj
 0001:0000d880       ??0?$_List_val@V?$basic_string@DU?$char_traits@D@std@@V?$allocator@D@2@@std@@V?$allocator@V?$basic_string@DU?$char_traits@D@std@@V?$allocator@D@2@@std@@@2@@std@@IAE@V?$allocator@V?$basic_string@DU?$char_traits@D@std@@V?$allocator@D@2@@std@@@1@@Z 0040e880 f i 区域服务器.obj
 0001:0000d880       ??0?$_List_val@Vlua_variant@lite@@V?$allocator@Vlua_variant@lite@@@std@@@std@@IAE@V?$allocator@Vlua_variant@lite@@@1@@Z 0040e880 f i GameObjects:ScriptManager.obj
 0001:0000d880       ??0?$_List_val@USLuaEvent@@V?$allocator@USLuaEvent@@@std@@@std@@IAE@V?$allocator@USLuaEvent@@@1@@Z 0040e880 f i GameObjects:ScriptManager.obj
 0001:0000d880       ??0?$_List_val@V?$shared_ptr@UCooler@@@boost@@V?$allocator@V?$shared_ptr@UCooler@@@boost@@@std@@@std@@IAE@V?$allocator@V?$shared_ptr@UCooler@@@boost@@@1@@Z 0040e880 f i GameObjects:FightObject.obj
 0001:0000d880       ??0?$_List_val@USPackageItem@typedef_v6@@V?$allocator@USPackageItem@typedef_v6@@@std@@@std@@IAE@V?$allocator@USPackageItem@typedef_v6@@@1@@Z 0040e880 f i GameObjects:ItemUser.obj
 0001:0000d8c0       ?insert@?$_Tree@V?$_Tmap_traits@V?$basic_string@DU?$char_traits@D@std@@V?$allocator@D@2@@std@@HU?$less@V?$basic_string@DU?$char_traits@D@std@@V?$allocator@D@2@@std@@@2@V?$allocator@U?$pair@$$CBV?$basic_string@DU?$char_traits@D@std@@V?$allocator@D@2@@std@@H@std@@@2@$0A@@std@@@std@@QAE?AU?$pair@Viterator@?$_Tree@V?$_Tmap_traits@V?$basic_string@DU?$char_traits@D@std@@V?$allocator@D@2@@std@@HU?$less@V?$basic_string@DU?$char_traits@D@std@@V?$allocator@D@2@@std@@@2@V?$allocator@U?$pair@$$CBV?$basic_string@DU?$char_traits@D@std@@V?$allocator@D@2@@std@@H@std@@@2@$0A@@std@@@std@@_N@2@ABU?$pair@$$CBV?$basic_string@DU?$char_traits@D@std@@V?$allocator@D@2@@std@@H@2@@Z 0040e8c0 f i 区域服务器.obj
 0001:0000da70       ?_Insert@?$_Tree@V?$_Tmap_traits@V?$basic_string@DU?$char_traits@D@std@@V?$allocator@D@2@@std@@HU?$less@V?$basic_string@DU?$char_traits@D@std@@V?$allocator@D@2@@std@@@2@V?$allocator@U?$pair@$$CBV?$basic_string@DU?$char_traits@D@std@@V?$allocator@D@2@@std@@H@std@@@2@$0A@@std@@@std@@IAE?AViterator@12@_NPAU_Node@?$_Tree_nod@V?$_Tmap_traits@V?$basic_string@DU?$char_traits@D@std@@V?$allocator@D@2@@std@@HU?$less@V?$basic_string@DU?$char_traits@D@std@@V?$allocator@D@2@@std@@@2@V?$allocator@U?$pair@$$CBV?$basic_string@DU?$char_traits@D@std@@V?$allocator@D@2@@std@@H@std@@@2@$0A@@std@@@2@ABU?$pair@$$CBV?$basic_string@DU?$char_traits@D@std@@V?$allocator@D@2@@std@@H@2@@Z 0040ea70 f i 区域服务器.obj
 0001:0000ded0       ?_Lbound@?$_Tree@V?$_Tmap_traits@V?$basic_string@DU?$char_traits@D@std@@V?$allocator@D@2@@std@@PAVBuffBase@@U?$less@V?$basic_string@DU?$char_traits@D@std@@V?$allocator@D@2@@std@@@2@V?$allocator@U?$pair@$$CBV?$basic_string@DU?$char_traits@D@std@@V?$allocator@D@2@@std@@PAVBuffBase@@@std@@@2@$0A@@std@@@std@@IBEPAU_Node@?$_Tree_nod@V?$_Tmap_traits@V?$basic_string@DU?$char_traits@D@std@@V?$allocator@D@2@@std@@PAVBuffBase@@U?$less@V?$basic_string@DU?$char_traits@D@std@@V?$allocator@D@2@@std@@@2@V?$allocator@U?$pair@$$CBV?$basic_string@DU?$char_traits@D@std@@V?$allocator@D@2@@std@@PAVBuffBase@@@std@@@2@$0A@@std@@@2@ABV?$basic_string@DU?$char_traits@D@std@@V?$allocator@D@2@@2@@Z 0040eed0 f i GameObjects:BuffEntityManager.obj
 0001:0000ded0       ?_Lbound@?$_Tree@V?$_Tmap_traits@V?$basic_string@DU?$char_traits@D@std@@V?$allocator@D@2@@std@@PAUCooler@@U?$less@V?$basic_string@DU?$char_traits@D@std@@V?$allocator@D@2@@std@@@2@V?$allocator@U?$pair@$$CBV?$basic_string@DU?$char_traits@D@std@@V?$allocator@D@2@@std@@PAUCooler@@@std@@@2@$0A@@std@@@std@@IBEPAU_Node@?$_Tree_nod@V?$_Tmap_traits@V?$basic_string@DU?$char_traits@D@std@@V?$allocator@D@2@@std@@PAUCooler@@U?$less@V?$basic_string@DU?$char_traits@D@std@@V?$allocator@D@2@@std@@@2@V?$allocator@U?$pair@$$CBV?$basic_string@DU?$char_traits@D@std@@V?$allocator@D@2@@std@@PAUCooler@@@std@@@2@$0A@@std@@@2@ABV?$basic_string@DU?$char_traits@D@std@@V?$allocator@D@2@@2@@Z 0040eed0 f i GameObjects:CooldownMgr.obj
 0001:0000ded0       ?_Lbound@?$_Tree@V?$_Tmap_traits@V?$basic_string@DU?$char_traits@D@std@@V?$allocator@D@2@@std@@HU?$less@V?$basic_string@DU?$char_traits@D@std@@V?$allocator@D@2@@std@@@2@V?$allocator@U?$pair@$$CBV?$basic_string@DU?$char_traits@D@std@@V?$allocator@D@2@@std@@H@std@@@2@$0A@@std@@@std@@IBEPAU_Node@?$_Tree_nod@V?$_Tmap_traits@V?$basic_string@DU?$char_traits@D@std@@V?$allocator@D@2@@std@@HU?$less@V?$basic_string@DU?$char_traits@D@std@@V?$allocator@D@2@@std@@@2@V?$allocator@U?$pair@$$CBV?$basic_string@DU?$char_traits@D@std@@V?$allocator@D@2@@std@@H@std@@@2@$0A@@std@@@2@ABV?$basic_string@DU?$char_traits@D@std@@V?$allocator@D@2@@2@@Z 0040eed0 f i 区域服务器.obj
 0001:0000ded0       ?_Lbound@?$_Tree@V?$_Tmap_traits@V?$basic_string@DU?$char_traits@D@std@@V?$allocator@D@2@@std@@KU?$less@V?$basic_string@DU?$char_traits@D@std@@V?$allocator@D@2@@std@@@2@V?$allocator@U?$pair@$$CBV?$basic_string@DU?$char_traits@D@std@@V?$allocator@D@2@@std@@K@std@@@2@$0A@@std@@@std@@IBEPAU_Node@?$_Tree_nod@V?$_Tmap_traits@V?$basic_string@DU?$char_traits@D@std@@V?$allocator@D@2@@std@@KU?$less@V?$basic_string@DU?$char_traits@D@std@@V?$allocator@D@2@@std@@@2@V?$allocator@U?$pair@$$CBV?$basic_string@DU?$char_traits@D@std@@V?$allocator@D@2@@std@@K@std@@@2@$0A@@std@@@2@ABV?$basic_string@DU?$char_traits@D@std@@V?$allocator@D@2@@2@@Z 0040eed0 f i NetGMModule.obj
 0001:0000ded0       ?_Lbound@?$_Tree@V?$_Tmap_traits@V?$basic_string@DU?$char_traits@D@std@@V?$allocator@D@2@@std@@USTraceFile@@U?$less@V?$basic_string@DU?$char_traits@D@std@@V?$allocator@D@2@@std@@@2@V?$allocator@U?$pair@$$CBV?$basic_string@DU?$char_traits@D@std@@V?$allocator@D@2@@std@@USTraceFile@@@std@@@2@$0A@@std@@@std@@IBEPAU_Node@?$_Tree_nod@V?$_Tmap_traits@V?$basic_string@DU?$char_traits@D@std@@V?$allocator@D@2@@std@@USTraceFile@@U?$less@V?$basic_string@DU?$char_traits@D@std@@V?$allocator@D@2@@std@@@2@V?$allocator@U?$pair@$$CBV?$basic_string@DU?$char_traits@D@std@@V?$allocator@D@2@@std@@USTraceFile@@@std@@@2@$0A@@std@@@2@ABV?$basic_string@DU?$char_traits@D@std@@V?$allocator@D@2@@2@@Z 0040eed0 f i traceinfo.obj
 0001:0000df60       ?erase@?$_Tree@V?$_Tmap_traits@V?$basic_string@DU?$char_traits@D@std@@V?$allocator@D@2@@std@@UCMD_FUNCDATA@StaticSingleton@@U?$less@V?$basic_string@DU?$char_traits@D@std@@V?$allocator@D@2@@std@@@2@V?$allocator@U?$pair@$$CBV?$basic_string@DU?$char_traits@D@std@@V?$allocator@D@2@@std@@UCMD_FUNCDATA@StaticSingleton@@@std@@@2@$0A@@std@@@std@@QAE?AViterator@12@V312@0@Z 0040ef60 f i 区域服务器.obj
 0001:0000e000       ?_Init@?$_Tree@V?$_Tmap_traits@V?$basic_string@DU?$char_traits@D@std@@V?$allocator@D@2@@std@@UCMD_FUNCDATA@StaticSingleton@@U?$less@V?$basic_string@DU?$char_traits@D@std@@V?$allocator@D@2@@std@@@2@V?$allocator@U?$pair@$$CBV?$basic_string@DU?$char_traits@D@std@@V?$allocator@D@2@@std@@UCMD_FUNCDATA@StaticSingleton@@@std@@@2@$0A@@std@@@std@@IAEXXZ 0040f000 f i 区域服务器.obj
 0001:0000e070       ?_Buynode@?$_Tree@V?$_Tmap_traits@V?$basic_string@DU?$char_traits@D@std@@V?$allocator@D@2@@std@@HU?$less@V?$basic_string@DU?$char_traits@D@std@@V?$allocator@D@2@@std@@@2@V?$allocator@U?$pair@$$CBV?$basic_string@DU?$char_traits@D@std@@V?$allocator@D@2@@std@@H@std@@@2@$0A@@std@@@std@@IAEPAU_Node@?$_Tree_nod@V?$_Tmap_traits@V?$basic_string@DU?$char_traits@D@std@@V?$allocator@D@2@@std@@HU?$less@V?$basic_string@DU?$char_traits@D@std@@V?$allocator@D@2@@std@@@2@V?$allocator@U?$pair@$$CBV?$basic_string@DU?$char_traits@D@std@@V?$allocator@D@2@@std@@H@std@@@2@$0A@@std@@@2@PAU342@00ABU?$pair@$$CBV?$basic_string@DU?$char_traits@D@std@@V?$allocator@D@2@@std@@H@2@D@Z 0040f070 f i 区域服务器.obj
 0001:0000e140       ?_Isnil@?$_Tree@V?$_Tmap_traits@V?$basic_string@DU?$char_traits@D@std@@V?$allocator@D@2@@std@@UCMD_FUNCDATA@StaticSingleton@@U?$less@V?$basic_string@DU?$char_traits@D@std@@V?$allocator@D@2@@std@@@2@V?$allocator@U?$pair@$$CBV?$basic_string@DU?$char_traits@D@std@@V?$allocator@D@2@@std@@UCMD_FUNCDATA@StaticSingleton@@@std@@@2@$0A@@std@@@std@@KAAADPAU_Node@?$_Tree_nod@V?$_Tmap_traits@V?$basic_string@DU?$char_traits@D@std@@V?$allocator@D@2@@std@@UCMD_FUNCDATA@StaticSingleton@@U?$less@V?$basic_string@DU?$char_traits@D@std@@V?$allocator@D@2@@std@@@2@V?$allocator@U?$pair@$$CBV?$basic_string@DU?$char_traits@D@std@@V?$allocator@D@2@@std@@UCMD_FUNCDATA@StaticSingleton@@@std@@@2@$0A@@std@@@2@@Z 0040f140 f i 区域服务器.obj
 0001:0000e140       ?_Isnil@?$_Tree@V?$_Tmap_traits@UPath@ProfileManager@jex@@UNode@23@U?$less@UPath@ProfileManager@jex@@@std@@V?$allocator@U?$pair@$$CBUPath@ProfileManager@jex@@UNode@23@@std@@@6@$0A@@std@@@std@@KAAADPAU_Node@?$_Tree_nod@V?$_Tmap_traits@UPath@ProfileManager@jex@@UNode@23@U?$less@UPath@ProfileManager@jex@@@std@@V?$allocator@U?$pair@$$CBUPath@ProfileManager@jex@@UNode@23@@std@@@6@$0A@@std@@@2@@Z 0040f140 f i TimeProber.obj
 0001:0000e150       ?erase@?$_Tree@V?$_Tmap_traits@V?$basic_string@DU?$char_traits@D@std@@V?$allocator@D@2@@std@@UCMD_FUNCDATA@StaticSingleton@@U?$less@V?$basic_string@DU?$char_traits@D@std@@V?$allocator@D@2@@std@@@2@V?$allocator@U?$pair@$$CBV?$basic_string@DU?$char_traits@D@std@@V?$allocator@D@2@@std@@UCMD_FUNCDATA@StaticSingleton@@@std@@@2@$0A@@std@@@std@@QAE?AViterator@12@V312@@Z 0040f150 f i 区域服务器.obj
 0001:0000e900       ?clear@?$_Tree@V?$_Tmap_traits@V?$basic_string@DU?$char_traits@D@std@@V?$allocator@D@2@@std@@UCMD_FUNCDATA@StaticSingleton@@U?$less@V?$basic_string@DU?$char_traits@D@std@@V?$allocator@D@2@@std@@@2@V?$allocator@U?$pair@$$CBV?$basic_string@DU?$char_traits@D@std@@V?$allocator@D@2@@std@@UCMD_FUNCDATA@StaticSingleton@@@std@@@2@$0A@@std@@@std@@QAEXXZ 0040f900 f i 区域服务器.obj
 0001:0000e960       ?_Buynode@?$_Tree@V?$_Tmap_traits@V?$basic_string@DU?$char_traits@D@std@@V?$allocator@D@2@@std@@UCMD_FUNCDATA@StaticSingleton@@U?$less@V?$basic_string@DU?$char_traits@D@std@@V?$allocator@D@2@@std@@@2@V?$allocator@U?$pair@$$CBV?$basic_string@DU?$char_traits@D@std@@V?$allocator@D@2@@std@@UCMD_FUNCDATA@StaticSingleton@@@std@@@2@$0A@@std@@@std@@IAEPAU_Node@?$_Tree_nod@V?$_Tmap_traits@V?$basic_string@DU?$char_traits@D@std@@V?$allocator@D@2@@std@@UCMD_FUNCDATA@StaticSingleton@@U?$less@V?$basic_string@DU?$char_traits@D@std@@V?$allocator@D@2@@std@@@2@V?$allocator@U?$pair@$$CBV?$basic_string@DU?$char_traits@D@std@@V?$allocator@D@2@@std@@UCMD_FUNCDATA@StaticSingleton@@@std@@@2@$0A@@std@@@2@XZ 0040f960 f i 区域服务器.obj
 0001:0000ead0       ?_Erase@?$_Tree@V?$_Tmap_traits@V?$basic_string@DU?$char_traits@D@std@@V?$allocator@D@2@@std@@UCMD_FUNCDATA@StaticSingleton@@U?$less@V?$basic_string@DU?$char_traits@D@std@@V?$allocator@D@2@@std@@@2@V?$allocator@U?$pair@$$CBV?$basic_string@DU?$char_traits@D@std@@V?$allocator@D@2@@std@@UCMD_FUNCDATA@StaticSingleton@@@std@@@2@$0A@@std@@@std@@IAEXPAU_Node@?$_Tree_nod@V?$_Tmap_traits@V?$basic_string@DU?$char_traits@D@std@@V?$allocator@D@2@@std@@UCMD_FUNCDATA@StaticSingleton@@U?$less@V?$basic_string@DU?$char_traits@D@std@@V?$allocator@D@2@@std@@@2@V?$allocator@U?$pair@$$CBV?$basic_string@DU?$char_traits@D@std@@V?$allocator@D@2@@std@@UCMD_FUNCDATA@StaticSingleton@@@std@@@2@$0A@@std@@@2@@Z 0040fad0 f i 区域服务器.obj
 0001:0000eb50       ?_Lrotate@?$_Tree@V?$_Tmap_traits@UPath@ProfileManager@jex@@UNode@23@U?$less@UPath@ProfileManager@jex@@@std@@V?$allocator@U?$pair@$$CBUPath@ProfileManager@jex@@UNode@23@@std@@@6@$0A@@std@@@std@@IAEXPAU_Node@?$_Tree_nod@V?$_Tmap_traits@UPath@ProfileManager@jex@@UNode@23@U?$less@UPath@ProfileManager@jex@@@std@@V?$allocator@U?$pair@$$CBUPath@ProfileManager@jex@@UNode@23@@std@@@6@$0A@@std@@@2@@Z 0040fb50 f i TimeProber.obj
 0001:0000eb50       ?_Lrotate@?$_Tree@V?$_Tmap_traits@V?$basic_string@DU?$char_traits@D@std@@V?$allocator@D@2@@std@@UCMD_FUNCDATA@StaticSingleton@@U?$less@V?$basic_string@DU?$char_traits@D@std@@V?$allocator@D@2@@std@@@2@V?$allocator@U?$pair@$$CBV?$basic_string@DU?$char_traits@D@std@@V?$allocator@D@2@@std@@UCMD_FUNCDATA@StaticSingleton@@@std@@@2@$0A@@std@@@std@@IAEXPAU_Node@?$_Tree_nod@V?$_Tmap_traits@V?$basic_string@DU?$char_traits@D@std@@V?$allocator@D@2@@std@@UCMD_FUNCDATA@StaticSingleton@@U?$less@V?$basic_string@DU?$char_traits@D@std@@V?$allocator@D@2@@std@@@2@V?$allocator@U?$pair@$$CBV?$basic_string@DU?$char_traits@D@std@@V?$allocator@D@2@@std@@UCMD_FUNCDATA@StaticSingleton@@@std@@@2@$0A@@std@@@2@@Z 0040fb50 f i 区域服务器.obj
 0001:0000ec80       ?allocate@?$allocator@U_Node@?$_Tree_nod@V?$_Tmap_traits@V?$basic_string@DU?$char_traits@D@std@@V?$allocator@D@2@@std@@UCMD_FUNCDATA@StaticSingleton@@U?$less@V?$basic_string@DU?$char_traits@D@std@@V?$allocator@D@2@@std@@@2@V?$allocator@U?$pair@$$CBV?$basic_string@DU?$char_traits@D@std@@V?$allocator@D@2@@std@@UCMD_FUNCDATA@StaticSingleton@@@std@@@2@$0A@@std@@@std@@@std@@QAEPAU_Node@?$_Tree_nod@V?$_Tmap_traits@V?$basic_string@DU?$char_traits@D@std@@V?$allocator@D@2@@std@@UCMD_FUNCDATA@StaticSingleton@@U?$less@V?$basic_string@DU?$char_traits@D@std@@V?$allocator@D@2@@std@@@2@V?$allocator@U?$pair@$$CBV?$basic_string@DU?$char_traits@D@std@@V?$allocator@D@2@@std@@UCMD_FUNCDATA@StaticSingleton@@@std@@@2@$0A@@std@@@2@I@Z 0040fc80 f i 区域服务器.obj
 0001:0000eca0       ?destroy@?$allocator@U_Node@?$_Tree_nod@V?$_Tmap_traits@V?$basic_string@DU?$char_traits@D@std@@V?$allocator@D@2@@std@@UCMD_FUNCDATA@StaticSingleton@@U?$less@V?$basic_string@DU?$char_traits@D@std@@V?$allocator@D@2@@std@@@2@V?$allocator@U?$pair@$$CBV?$basic_string@DU?$char_traits@D@std@@V?$allocator@D@2@@std@@UCMD_FUNCDATA@StaticSingleton@@@std@@@2@$0A@@std@@@std@@@std@@QAEXPAU_Node@?$_Tree_nod@V?$_Tmap_traits@V?$basic_string@DU?$char_traits@D@std@@V?$allocator@D@2@@std@@UCMD_FUNCDATA@StaticSingleton@@U?$less@V?$basic_string@DU?$char_traits@D@std@@V?$allocator@D@2@@std@@@2@V?$allocator@U?$pair@$$CBV?$basic_string@DU?$char_traits@D@std@@V?$allocator@D@2@@std@@UCMD_FUNCDATA@StaticSingleton@@@std@@@2@$0A@@std@@@2@@Z 0040fca0 f i 区域服务器.obj
 0001:0000ecc0       ??Eiterator@?$_Tree@V?$_Tmap_traits@V?$basic_string@DU?$char_traits@D@std@@V?$allocator@D@2@@std@@UCMD_FUNCDATA@StaticSingleton@@U?$less@V?$basic_string@DU?$char_traits@D@std@@V?$allocator@D@2@@std@@@2@V?$allocator@U?$pair@$$CBV?$basic_string@DU?$char_traits@D@std@@V?$allocator@D@2@@std@@UCMD_FUNCDATA@StaticSingleton@@@std@@@2@$0A@@std@@@std@@QAEAAV012@XZ 0040fcc0 f i 区域服务器.obj
 0001:0000ecc0       ??Eiterator@?$_Tree@V?$_Tmap_traits@UPath@ProfileManager@jex@@UNode@23@U?$less@UPath@ProfileManager@jex@@@std@@V?$allocator@U?$pair@$$CBUPath@ProfileManager@jex@@UNode@23@@std@@@6@$0A@@std@@@std@@QAEAAV012@XZ 0040fcc0 f i TimeProber.obj
 0001:0000ece0       ??Econst_iterator@?$_Tree@V?$_Tmap_traits@V?$basic_string@DU?$char_traits@D@std@@V?$allocator@D@2@@std@@UCMD_FUNCDATA@StaticSingleton@@U?$less@V?$basic_string@DU?$char_traits@D@std@@V?$allocator@D@2@@std@@@2@V?$allocator@U?$pair@$$CBV?$basic_string@DU?$char_traits@D@std@@V?$allocator@D@2@@std@@UCMD_FUNCDATA@StaticSingleton@@@std@@@2@$0A@@std@@@std@@QAEAAV012@XZ 0040fce0 f i 区域服务器.obj
 0001:0000ece0       ??Econst_iterator@?$_Tree@V?$_Tmap_traits@UPath@ProfileManager@jex@@UNode@23@U?$less@UPath@ProfileManager@jex@@@std@@V?$allocator@U?$pair@$$CBUPath@ProfileManager@jex@@UNode@23@@std@@@6@$0A@@std@@@std@@QAEAAV012@XZ 0040fce0 f i TimeProber.obj
 0001:0000ed00       ?_Inc@const_iterator@?$_Tree@V?$_Tmap_traits@V?$basic_string@DU?$char_traits@D@std@@V?$allocator@D@2@@std@@UCMD_FUNCDATA@StaticSingleton@@U?$less@V?$basic_string@DU?$char_traits@D@std@@V?$allocator@D@2@@std@@@2@V?$allocator@U?$pair@$$CBV?$basic_string@DU?$char_traits@D@std@@V?$allocator@D@2@@std@@UCMD_FUNCDATA@StaticSingleton@@@std@@@2@$0A@@std@@@std@@QAEXXZ 0040fd00 f i 区域服务器.obj
 0001:0000ed00       ?_Inc@const_iterator@?$_Tree@V?$_Tmap_traits@UPath@ProfileManager@jex@@UNode@23@U?$less@UPath@ProfileManager@jex@@@std@@V?$allocator@U?$pair@$$CBUPath@ProfileManager@jex@@UNode@23@@std@@@6@$0A@@std@@@std@@QAEXXZ 0040fd00 f i TimeProber.obj
 0001:0000edc0       ??$sprintf_s@$0EAA@@@YAHAAY0EAA@DPBDZZ 0040fdc0 f i 区域服务器.obj
 0001:0000ee10       ??$sprintf_s@$0IA@@@YAHAAY0IA@DPBDZZ 0040fe10 f i 区域服务器.obj
 0001:0000ee60       ??0Variant@lite@@QAE@H@Z   0040fe60 f i 区域服务器.obj
 0001:0000eed0       ??0Variant@lite@@QAE@AB_K@Z 0040fed0 f i 区域服务器.obj
 0001:0000ef70       ??$_Allocate@U_Node@?$_Tree_nod@V?$_Tmap_traits@V?$basic_string@DU?$char_traits@D@std@@V?$allocator@D@2@@std@@UCMD_FUNCDATA@StaticSingleton@@U?$less@V?$basic_string@DU?$char_traits@D@std@@V?$allocator@D@2@@std@@@2@V?$allocator@U?$pair@$$CBV?$basic_string@DU?$char_traits@D@std@@V?$allocator@D@2@@std@@UCMD_FUNCDATA@StaticSingleton@@@std@@@2@$0A@@std@@@std@@@std@@YAPAU_Node@?$_Tree_nod@V?$_Tmap_traits@V?$basic_string@DU?$char_traits@D@std@@V?$allocator@D@2@@std@@UCMD_FUNCDATA@StaticSingleton@@U?$less@V?$basic_string@DU?$char_traits@D@std@@V?$allocator@D@2@@std@@@2@V?$allocator@U?$pair@$$CBV?$basic_string@DU?$char_traits@D@std@@V?$allocator@D@2@@std@@UCMD_FUNCDATA@StaticSingleton@@@std@@@2@$0A@@std@@@0@IPAU120@@Z 0040ff70 f i 区域服务器.obj
 0001:0000ef90       ??$_Destroy@U_Node@?$_Tree_nod@V?$_Tmap_traits@V?$basic_string@DU?$char_traits@D@std@@V?$allocator@D@2@@std@@UCMD_FUNCDATA@StaticSingleton@@U?$less@V?$basic_string@DU?$char_traits@D@std@@V?$allocator@D@2@@std@@@2@V?$allocator@U?$pair@$$CBV?$basic_string@DU?$char_traits@D@std@@V?$allocator@D@2@@std@@UCMD_FUNCDATA@StaticSingleton@@@std@@@2@$0A@@std@@@std@@@std@@YAXPAU_Node@?$_Tree_nod@V?$_Tmap_traits@V?$basic_string@DU?$char_traits@D@std@@V?$allocator@D@2@@std@@UCMD_FUNCDATA@StaticSingleton@@U?$less@V?$basic_string@DU?$char_traits@D@std@@V?$allocator@D@2@@std@@@2@V?$allocator@U?$pair@$$CBV?$basic_string@DU?$char_traits@D@std@@V?$allocator@D@2@@std@@UCMD_FUNCDATA@StaticSingleton@@@std@@@2@$0A@@std@@@0@@Z 0040ff90 f i 区域服务器.obj
 0001:0000efa0       ??_G_Node@?$_Tree_nod@V?$_Tmap_traits@V?$basic_string@DU?$char_traits@D@std@@V?$allocator@D@2@@std@@UCMD_FUNCDATA@StaticSingleton@@U?$less@V?$basic_string@DU?$char_traits@D@std@@V?$allocator@D@2@@std@@@2@V?$allocator@U?$pair@$$CBV?$basic_string@DU?$char_traits@D@std@@V?$allocator@D@2@@std@@UCMD_FUNCDATA@StaticSingleton@@@std@@@2@$0A@@std@@@std@@QAEPAXI@Z 0040ffa0 f i 区域服务器.obj
 0001:0000efd0       ??1_Node@?$_Tree_nod@V?$_Tmap_traits@V?$basic_string@DU?$char_traits@D@std@@V?$allocator@D@2@@std@@UCMD_FUNCDATA@StaticSingleton@@U?$less@V?$basic_string@DU?$char_traits@D@std@@V?$allocator@D@2@@std@@@2@V?$allocator@U?$pair@$$CBV?$basic_string@DU?$char_traits@D@std@@V?$allocator@D@2@@std@@UCMD_FUNCDATA@StaticSingleton@@@std@@@2@$0A@@std@@@std@@QAE@XZ 0040ffd0 f i 区域服务器.obj
 0001:0000eff0       ?AllocateAndAssign@Variant@lite@@IAEXW4VARIANT_TYPE@12@PBXI@Z 0040fff0 f i 区域服务器.obj
 0001:0000f090       ??0BadDataSize@lite@@QAE@XZ 00410090 f i 区域服务器.obj
 0001:0000f0c0       ?GetErrInfo@BadDataSize@lite@@UAEPBDXZ 004100c0 f i 区域服务器.obj
 0001:0000f0d0       ??1?$pair@$$CBV?$basic_string@DU?$char_traits@D@std@@V?$allocator@D@2@@std@@UCMD_FUNCDATA@StaticSingleton@@@std@@QAE@XZ 004100d0 f i 区域服务器.obj
 0001:0000f120       ??1CMD_FUNCDATA@StaticSingleton@@QAE@XZ 00410120 f i 区域服务器.obj
 0001:0000f140       ?DeepCopy@Variant@lite@@QAEXABV12@@Z 00410140 f i 区域服务器.obj
 0001:0000f1a0       ??4Variant@lite@@QAEAAV01@ABV01@@Z 004101a0 f i 区域服务器.obj
 0001:0000f230       ??BVariant@lite@@QBEKXZ    00410230 f i 区域服务器.obj
 0001:0000f290       ??BVariant@lite@@QBE_KXZ   00410290 f i 区域服务器.obj
 0001:0000f350       ??BVariant@lite@@QBE_JXZ   00410350 f i 区域服务器.obj
 0001:0000f4a0       ??BVariant@lite@@QBENXZ    004104a0 f i 区域服务器.obj
 0001:0000f4e0       ??0BadDataSize@lite@@QAE@ABV01@@Z 004104e0 f i 区域服务器.obj
 0001:0000f510       ?strlen_s@@YAIPBD@Z        00410510 f i 区域服务器.obj
 0001:0000f530       ??0?$map@V?$basic_string@DU?$char_traits@D@std@@V?$allocator@D@2@@std@@HU?$less@V?$basic_string@DU?$char_traits@D@std@@V?$allocator@D@2@@std@@@2@V?$allocator@U?$pair@$$CBV?$basic_string@DU?$char_traits@D@std@@V?$allocator@D@2@@std@@H@std@@@2@@std@@QAE@XZ 00410530 f i 区域服务器.obj
 0001:0000f560       ??0?$_Tree@V?$_Tmap_traits@V?$basic_string@DU?$char_traits@D@std@@V?$allocator@D@2@@std@@HU?$less@V?$basic_string@DU?$char_traits@D@std@@V?$allocator@D@2@@std@@@2@V?$allocator@U?$pair@$$CBV?$basic_string@DU?$char_traits@D@std@@V?$allocator@D@2@@std@@H@std@@@2@$0A@@std@@@std@@QAE@ABU?$less@V?$basic_string@DU?$char_traits@D@std@@V?$allocator@D@2@@std@@@1@ABV?$allocator@U?$pair@$$CBV?$basic_string@DU?$char_traits@D@std@@V?$allocator@D@2@@std@@H@std@@@1@@Z 00410560 f i 区域服务器.obj
 0001:0000f5a0       ?_Init@?$_Tree@V?$_Tmap_traits@V?$basic_string@DU?$char_traits@D@std@@V?$allocator@D@2@@std@@HU?$less@V?$basic_string@DU?$char_traits@D@std@@V?$allocator@D@2@@std@@@2@V?$allocator@U?$pair@$$CBV?$basic_string@DU?$char_traits@D@std@@V?$allocator@D@2@@std@@H@std@@@2@$0A@@std@@@std@@IAEXXZ 004105a0 f i 区域服务器.obj
 0001:0000f610       ?_Buynode@?$_Tree@V?$_Tmap_traits@V?$basic_string@DU?$char_traits@D@std@@V?$allocator@D@2@@std@@HU?$less@V?$basic_string@DU?$char_traits@D@std@@V?$allocator@D@2@@std@@@2@V?$allocator@U?$pair@$$CBV?$basic_string@DU?$char_traits@D@std@@V?$allocator@D@2@@std@@H@std@@@2@$0A@@std@@@std@@IAEPAU_Node@?$_Tree_nod@V?$_Tmap_traits@V?$basic_string@DU?$char_traits@D@std@@V?$allocator@D@2@@std@@HU?$less@V?$basic_string@DU?$char_traits@D@std@@V?$allocator@D@2@@std@@@2@V?$allocator@U?$pair@$$CBV?$basic_string@DU?$char_traits@D@std@@V?$allocator@D@2@@std@@H@std@@@2@$0A@@std@@@2@XZ 00410610 f i 区域服务器.obj
 0001:0000f780       ??1?$map@V?$basic_string@DU?$char_traits@D@std@@V?$allocator@D@2@@std@@HU?$less@V?$basic_string@DU?$char_traits@D@std@@V?$allocator@D@2@@std@@@2@V?$allocator@U?$pair@$$CBV?$basic_string@DU?$char_traits@D@std@@V?$allocator@D@2@@std@@H@std@@@2@@std@@QAE@XZ 00410780 f i 区域服务器.obj
 0001:0000f7a0       ??1?$_Tree@V?$_Tmap_traits@V?$basic_string@DU?$char_traits@D@std@@V?$allocator@D@2@@std@@HU?$less@V?$basic_string@DU?$char_traits@D@std@@V?$allocator@D@2@@std@@@2@V?$allocator@U?$pair@$$CBV?$basic_string@DU?$char_traits@D@std@@V?$allocator@D@2@@std@@H@std@@@2@$0A@@std@@@std@@QAE@XZ 004107a0 f i 区域服务器.obj
 0001:0000f7c0       ?_Tidy@?$_Tree@V?$_Tmap_traits@V?$basic_string@DU?$char_traits@D@std@@V?$allocator@D@2@@std@@HU?$less@V?$basic_string@DU?$char_traits@D@std@@V?$allocator@D@2@@std@@@2@V?$allocator@U?$pair@$$CBV?$basic_string@DU?$char_traits@D@std@@V?$allocator@D@2@@std@@H@std@@@2@$0A@@std@@@std@@IAEXXZ 004107c0 f i 区域服务器.obj
 0001:0000f870       ?erase@?$_Tree@V?$_Tmap_traits@V?$basic_string@DU?$char_traits@D@std@@V?$allocator@D@2@@std@@HU?$less@V?$basic_string@DU?$char_traits@D@std@@V?$allocator@D@2@@std@@@2@V?$allocator@U?$pair@$$CBV?$basic_string@DU?$char_traits@D@std@@V?$allocator@D@2@@std@@H@std@@@2@$0A@@std@@@std@@QAE?AViterator@12@V312@0@Z 00410870 f i 区域服务器.obj
 0001:0000f910       ?erase@?$_Tree@V?$_Tmap_traits@V?$basic_string@DU?$char_traits@D@std@@V?$allocator@D@2@@std@@HU?$less@V?$basic_string@DU?$char_traits@D@std@@V?$allocator@D@2@@std@@@2@V?$allocator@U?$pair@$$CBV?$basic_string@DU?$char_traits@D@std@@V?$allocator@D@2@@std@@H@std@@@2@$0A@@std@@@std@@QAE?AViterator@12@V312@@Z 00410910 f i 区域服务器.obj
 0001:000100c0       ?clear@?$_Tree@V?$_Tmap_traits@V?$basic_string@DU?$char_traits@D@std@@V?$allocator@D@2@@std@@HU?$less@V?$basic_string@DU?$char_traits@D@std@@V?$allocator@D@2@@std@@@2@V?$allocator@U?$pair@$$CBV?$basic_string@DU?$char_traits@D@std@@V?$allocator@D@2@@std@@H@std@@@2@$0A@@std@@@std@@QAEXXZ 004110c0 f i 区域服务器.obj
 0001:00010120       ?_Erase@?$_Tree@V?$_Tmap_traits@V?$basic_string@DU?$char_traits@D@std@@V?$allocator@D@2@@std@@HU?$less@V?$basic_string@DU?$char_traits@D@std@@V?$allocator@D@2@@std@@@2@V?$allocator@U?$pair@$$CBV?$basic_string@DU?$char_traits@D@std@@V?$allocator@D@2@@std@@H@std@@@2@$0A@@std@@@std@@IAEXPAU_Node@?$_Tree_nod@V?$_Tmap_traits@V?$basic_string@DU?$char_traits@D@std@@V?$allocator@D@2@@std@@HU?$less@V?$basic_string@DU?$char_traits@D@std@@V?$allocator@D@2@@std@@@2@V?$allocator@U?$pair@$$CBV?$basic_string@DU?$char_traits@D@std@@V?$allocator@D@2@@std@@H@std@@@2@$0A@@std@@@2@@Z 00411120 f i 区域服务器.obj
 0001:000101a0       ??1MyStaticSingleton@@QAE@XZ 004111a0 f i 区域服务器.obj
 0001:000101c0       ??1StaticSingleton@@QAE@XZ 004111c0 f i 区域服务器.obj
 0001:00010210       ??1?$list@V?$basic_string@DU?$char_traits@D@std@@V?$allocator@D@2@@std@@V?$allocator@V?$basic_string@DU?$char_traits@D@std@@V?$allocator@D@2@@std@@@2@@std@@QAE@XZ 00411210 f i 区域服务器.obj
 0001:00010230       ?_Tidy@?$list@V?$basic_string@DU?$char_traits@D@std@@V?$allocator@D@2@@std@@V?$allocator@V?$basic_string@DU?$char_traits@D@std@@V?$allocator@D@2@@std@@@2@@std@@IAEXXZ 00411230 f i 区域服务器.obj
 0001:000102a0       ?clear@?$list@V?$basic_string@DU?$char_traits@D@std@@V?$allocator@D@2@@std@@V?$allocator@V?$basic_string@DU?$char_traits@D@std@@V?$allocator@D@2@@std@@@2@@std@@QAEXXZ 004112a0 f i 区域服务器.obj
 0001:00010340       ?destroy@?$allocator@U_Node@?$_List_nod@V?$basic_string@DU?$char_traits@D@std@@V?$allocator@D@2@@std@@V?$allocator@V?$basic_string@DU?$char_traits@D@std@@V?$allocator@D@2@@std@@@2@@std@@@std@@QAEXPAU_Node@?$_List_nod@V?$basic_string@DU?$char_traits@D@std@@V?$allocator@D@2@@std@@V?$allocator@V?$basic_string@DU?$char_traits@D@std@@V?$allocator@D@2@@std@@@2@@2@@Z 00411340 f i 区域服务器.obj
 0001:00010360       ??$_Destroy@U_Node@?$_List_nod@V?$basic_string@DU?$char_traits@D@std@@V?$allocator@D@2@@std@@V?$allocator@V?$basic_string@DU?$char_traits@D@std@@V?$allocator@D@2@@std@@@2@@std@@@std@@YAXPAU_Node@?$_List_nod@V?$basic_string@DU?$char_traits@D@std@@V?$allocator@D@2@@std@@V?$allocator@V?$basic_string@DU?$char_traits@D@std@@V?$allocator@D@2@@std@@@2@@0@@Z 00411360 f i 区域服务器.obj
 0001:00010370       ??_G_Node@?$_List_nod@V?$basic_string@DU?$char_traits@D@std@@V?$allocator@D@2@@std@@V?$allocator@V?$basic_string@DU?$char_traits@D@std@@V?$allocator@D@2@@std@@@2@@std@@QAEPAXI@Z 00411370 f i 区域服务器.obj
 0001:000103a0       ??1_Node@?$_List_nod@V?$basic_string@DU?$char_traits@D@std@@V?$allocator@D@2@@std@@V?$allocator@V?$basic_string@DU?$char_traits@D@std@@V?$allocator@D@2@@std@@@2@@std@@QAE@XZ 004113a0 f i 区域服务器.obj
 0001:000103c0       ?LoadEnvironment@@YAXXZ    004113c0 f   Environment.obj
 0001:000108b0       ?g_GetExpScale@@YAME@Z     004118b0 f   Environment.obj
 0001:000108f0       ?GBK_InitVisibleTable@@YAHXZ 004118f0 f   GBK_VisibleTest.obj
 0001:00010c90       ?isVisibleCharacterA@@YA_ND@Z 00411c90 f   GBK_VisibleTest.obj
 0001:00010cb0       ?isVisibleCharacterW@@YA_NG@Z 00411cb0 f   GBK_VisibleTest.obj
 0001:00010d10       ??$strcpy_s@$0CA@@@YAXAAY0CA@DPBD@Z 00411d10 f i GBK_VisibleTest.obj
 0001:00010d30       ?ts_testlock@@YAXXZ        00411d30 f   MemCheck.obj
 0001:00010e00       ?STACK_INIT@@YAXXZ         00411e00 f   MemCheck.obj
 0001:00010e60       ?STACK_SET@@YAXKKKKK@Z     00411e60 f   MemCheck.obj
 0001:00010ed0       ?STACK_LOG@@YAX_N@Z        00411ed0 f   MemCheck.obj
 0001:00010f90       ?mem_record@@YAXPBDHPAX@Z  00411f90 f   MemCheck.obj
 0001:00011010       ?mem_check@@YA_NXZ         00412010 f   MemCheck.obj
 0001:000111c0       ?Lock@Mutex@Loki@@QAEXXZ   004121c0 f i GameObjects:GameWorld.obj
 0001:000111c0       ?Lock@CriticalLock@UGE@@QAEXXZ 004121c0 f i MemCheck.obj
 0001:000111c0       ?lock@win32_mutex@pool@details@boost@@QAEXXZ 004121c0 f i GameObjects:EventManager.obj
 0001:000111e0       ??1?$guard@Vwin32_mutex@pool@details@boost@@@pool@details@boost@@QAE@XZ 004121e0 f i GameObjects:EventManager.obj
 0001:000111e0       ??1AutoLock@@QAE@XZ        004121e0 f i MemCheck.obj
 0001:00011200       ?Unlock@CriticalLock@UGE@@QAEXXZ 00412200 f i MemCheck.obj
 0001:00011200       ?unlock@win32_mutex@pool@details@boost@@QAEXXZ 00412200 f i GameObjects:EventManager.obj
 0001:00011200       ?Unlock@Mutex@Loki@@QAEXXZ 00412200 f i GameObjects:GameWorld.obj
 0001:00011220       ??0CriticalLock@UGE@@QAE@XZ 00412220 f i MemCheck.obj
 0001:00011220       ??0Mutex@Loki@@QAE@XZ      00412220 f i GameObjects:GameWorld.obj
 0001:00011220       ??0win32_mutex@pool@details@boost@@QAE@XZ 00412220 f i GameObjects:EventManager.obj
 0001:00011240       ??1Mutex@Loki@@QAE@XZ      00412240 f i GameObjects:GameWorld.obj
 0001:00011240       ??1win32_mutex@pool@details@boost@@QAE@XZ 00412240 f i GameObjects:EventManager.obj
 0001:00011240       ??1CriticalLock@UGE@@QAE@XZ 00412240 f i MemCheck.obj
 0001:00011260       ??0CMoilWorker@@QAE@XZ     00412260 f   MoilWorker.obj
 0001:000112b0       ??1CMoilWorker@@QAE@XZ     004122b0 f   MoilWorker.obj
 0001:00011300       ?init@CMoilWorker@@QAEHXZ  00412300 f   MoilWorker.obj
 0001:00011320       ?uinit@CMoilWorker@@QAEXXZ 00412320 f   MoilWorker.obj
 0001:00011340       ??RCMoilWorker@@QAEHXZ     00412340 f   MoilWorker.obj
 0001:00011410       ?PushMoiler@CMoilWorker@@QAEXPAUSMoiler@@@Z 00412410 f   MoilWorker.obj
 0001:00011450       ??0ThreadWaiter@UGE@@QAE@XZ 00412450 f i MoilWorker.obj
 0001:000114b0       ??0?$mtQueue@PAUSMoiler@@@UGE@@QAE@XZ 004124b0 f i MoilWorker.obj
 0001:00011500       ??1?$queue@PAUSMoiler@@V?$deque@PAUSMoiler@@V?$allocator@PAUSMoiler@@@std@@@std@@@std@@QAE@XZ 00412500 f i MoilWorker.obj
 0001:00011500       ??1?$queue@PAUSNetServerPacketAdvEx@@V?$deque@PAUSNetServerPacketAdvEx@@V?$allocator@PAUSNetServerPacketAdvEx@@@std@@@std@@@std@@QAE@XZ 00412500 f i NetProviderModuleEx:NetProviderModuleAdvEx.obj
 0001:00011500       ??1?$queue@KV?$deque@KV?$allocator@K@std@@@std@@@std@@QAE@XZ 00412500 f i GameObjects:Player.obj
 0001:00011500       ??1?$stack@PAXV?$deque@PAXV?$allocator@PAX@std@@@std@@@std@@QAE@XZ 00412500 f i MoilWorker.obj
 0001:00011500       ??1?$queue@PAUSNetServerPacket@@V?$deque@PAUSNetServerPacket@@V?$allocator@PAUSNetServerPacket@@@std@@@std@@@std@@QAE@XZ 00412500 f i NetProviderModuleEx:NetProviderModule.obj
 0001:00011500       ??1?$queue@PAUSNetClientPacket@@V?$deque@PAUSNetClientPacket@@V?$allocator@PAUSNetClientPacket@@@std@@@std@@@std@@QAE@XZ 00412500 f i NetConsumerModule:NetConsummerModule.obj
 0001:00011520       ??1ThreadWaiter@UGE@@QAE@XZ 00412520 f i MoilWorker.obj
 0001:00011580       ?Quit@ThreadWaiter@UGE@@QAEXXZ 00412580 f i MoilWorker.obj
 0001:00011690       ?QuitFlag@ThreadWaiter@UGE@@QAEHXZ 00412690 f i MoilWorker.obj
 0001:000116b0       ??1?$deque@PAXV?$allocator@PAX@std@@@std@@QAE@XZ 004126b0 f i MoilWorker.obj
 0001:000116b0       ??1?$deque@PAUSNetServerPacket@@V?$allocator@PAUSNetServerPacket@@@std@@@std@@QAE@XZ 004126b0 f i NetProviderModuleEx:NetProviderModule.obj
 0001:000116b0       ??1?$deque@PAUSNetServerPacketAdvEx@@V?$allocator@PAUSNetServerPacketAdvEx@@@std@@@std@@QAE@XZ 004126b0 f i NetProviderModuleEx:NetProviderModuleAdvEx.obj
 0001:000116b0       ??1?$deque@KV?$allocator@K@std@@@std@@QAE@XZ 004126b0 f i TimeProber.obj
 0001:000116b0       ??1?$deque@PAUSNetClientPacket@@V?$allocator@PAUSNetClientPacket@@@std@@@std@@QAE@XZ 004126b0 f i NetConsumerModule:NetConsummerModule.obj
 0001:000116b0       ??1?$deque@PAUSMoiler@@V?$allocator@PAUSMoiler@@@std@@@std@@QAE@XZ 004126b0 f i MoilWorker.obj
 0001:000116d0       ??1?$Barrier@VCriticalLock@UGE@@$0A@@Details@UGE@@QAE@XZ 004126d0 f i MoilWorker.obj
 0001:000116f0       ?empty@?$queue@PAUSNetServerPacket@@V?$deque@PAUSNetServerPacket@@V?$allocator@PAUSNetServerPacket@@@std@@@std@@@std@@QBE_NXZ 004126f0 f i NetProviderModuleEx:NetProviderModule.obj
 0001:000116f0       ?empty@?$stack@PAXV?$deque@PAXV?$allocator@PAX@std@@@std@@@std@@QBE_NXZ 004126f0 f i MoilWorker.obj
 0001:000116f0       ?empty@?$queue@PAUSMoiler@@V?$deque@PAUSMoiler@@V?$allocator@PAUSMoiler@@@std@@@std@@@std@@QBE_NXZ 004126f0 f i MoilWorker.obj
 0001:000116f0       ?empty@?$queue@PAUSNetServerPacketAdvEx@@V?$deque@PAUSNetServerPacketAdvEx@@V?$allocator@PAUSNetServerPacketAdvEx@@@std@@@std@@@std@@QBE_NXZ 004126f0 f i NetProviderModuleEx:NetProviderModuleAdvEx.obj
 0001:00011710       ?top@?$stack@PAXV?$deque@PAXV?$allocator@PAX@std@@@std@@@std@@QAEAAPAXXZ 00412710 f i MoilWorker.obj
 0001:00011730       ?pop@?$stack@PAXV?$deque@PAXV?$allocator@PAX@std@@@std@@@std@@QAEXXZ 00412730 f i MoilWorker.obj
 0001:00011750       ??1?$mtQueue@PAUSMoiler@@@UGE@@QAE@XZ 00412750 f i MoilWorker.obj
 0001:000117d0       ?mtsafe_push@?$mtQueue@PAUSMoiler@@@UGE@@QAEXABQAUSMoiler@@@Z 004127d0 f i MoilWorker.obj
 0001:00011850       ?mtsafe_get_and_pop@?$mtQueue@PAUSMoiler@@@UGE@@QAEHAAPAUSMoiler@@@Z 00412850 f i MoilWorker.obj
 0001:00011910       ?back@?$deque@PAXV?$allocator@PAX@std@@@std@@QAEAAPAXXZ 00412910 f i MoilWorker.obj
 0001:00011940       ?_Growmap@?$deque@PAUSMoiler@@V?$allocator@PAUSMoiler@@@std@@@std@@IAEXI@Z 00412940 f i MoilWorker.obj
 0001:00011940       ?_Growmap@?$deque@PAXV?$allocator@PAX@std@@@std@@IAEXI@Z 00412940 f i MoilWorker.obj
 0001:00011b50       ??Yiterator@?$deque@KV?$allocator@K@std@@@std@@QAEAAV012@H@Z 00412b50 f i TimeProber.obj
 0001:00011b50       ??Yiterator@?$deque@PAXV?$allocator@PAX@std@@@std@@QAEAAV012@H@Z 00412b50 f i MoilWorker.obj
 0001:00011b50       ??Yconst_iterator@?$deque@KV?$allocator@K@std@@@std@@QAEAAV012@H@Z 00412b50 f i TimeProber.obj
 0001:00011b70       ??0iterator@?$deque@PAUSNetClientPacket@@V?$allocator@PAUSNetClientPacket@@@std@@@std@@QAE@IPBV12@@Z 00412b70 f i NetConsumerModule:NetConsummerModule.obj
 0001:00011b70       ??0iterator@?$deque@PAUSNetServerPacket@@V?$allocator@PAUSNetServerPacket@@@std@@@std@@QAE@IPBV12@@Z 00412b70 f i NetProviderModuleEx:NetProviderModule.obj
 0001:00011b70       ??0iterator@?$deque@KV?$allocator@K@std@@@std@@QAE@IPBV12@@Z 00412b70 f i TimeProber.obj
 0001:00011b70       ??0iterator@?$deque@PAUSNetServerPacketAdvEx@@V?$allocator@PAUSNetServerPacketAdvEx@@@std@@@std@@QAE@IPBV12@@Z 00412b70 f i NetProviderModuleEx:NetProviderModuleAdvEx.obj
 0001:00011b70       ??0iterator@?$deque@PAUSMoiler@@V?$allocator@PAUSMoiler@@@std@@@std@@QAE@IPBV12@@Z 00412b70 f i MoilWorker.obj
 0001:00011b70       ??0iterator@?$deque@PAXV?$allocator@PAX@std@@@std@@QAE@IPBV12@@Z 00412b70 f i MoilWorker.obj
 0001:00011b70       ??0iterator@?$deque@U?$pair@U_SYSTEMTIME@@V?$map@PBDV?$deque@KV?$allocator@K@std@@@std@@U?$less@PBD@2@V?$allocator@U?$pair@QBDV?$deque@KV?$allocator@K@std@@@std@@@std@@@2@@std@@@std@@V?$allocator@U?$pair@U_SYSTEMTIME@@V?$map@PBDV?$deque@KV?$allocator@K@std@@@std@@U?$less@PBD@2@V?$allocator@U?$pair@QBDV?$deque@KV?$allocator@K@std@@@std@@@std@@@2@@std@@@std@@@2@@std@@QAE@IPBV12@@Z 00412b70 f i TimeProber.obj
 0001:00011b90       ??$BeginThread_Ref@VCMoilWorker@@@ThreadWaiter@UGE@@QAEPAXAAVCMoilWorker@@@Z 00412b90 f i MoilWorker.obj
 0001:00011c20       ??$DeallocateMoiler@USMoiler@@@@YAXPAUSMoiler@@@Z 00412c20 f i MoilWorker.obj
 0001:00011c60       ?push@?$stack@PAXV?$deque@PAXV?$allocator@PAX@std@@@std@@@std@@QAEXABQAX@Z 00412c60 f i MoilWorker.obj
 0001:00011c60       ?push@?$queue@PAUSMoiler@@V?$deque@PAUSMoiler@@V?$allocator@PAUSMoiler@@@std@@@std@@@std@@QAEXABQAUSMoiler@@@Z 00412c60 f i MoilWorker.obj
 0001:00011c80       ?push_back@?$deque@PAUSMoiler@@V?$allocator@PAUSMoiler@@@std@@@std@@QAEXABQAUSMoiler@@@Z 00412c80 f i MoilWorker.obj
 0001:00011c80       ?push_back@?$deque@PAXV?$allocator@PAX@std@@@std@@QAEXABQAX@Z 00412c80 f i MoilWorker.obj
 0001:00011d60       ?_Xlen@?$deque@PAXV?$allocator@PAX@std@@@std@@IBEXXZ 00412d60 f i MoilWorker.obj
 0001:00011d60       ?_Xlen@?$deque@PAUSMoiler@@V?$allocator@PAUSMoiler@@@std@@@std@@IBEXXZ 00412d60 f i MoilWorker.obj
 0001:00011dc0       ??$ThreadEntry_Ref@VCMoilWorker@@@ThreadWaiter@UGE@@CGIPAX@Z 00412dc0 f i MoilWorker.obj
 0001:00011de0       ??$_Destroy_range@PBDV?$allocator@PBD@std@@@std@@YAXPAPBD0AAV?$allocator@PBD@0@@Z 00412de0 f i TimeProber.obj
 0001:00011de0       ??$_Destroy_range@PAUSFactionData@@V?$allocator@PAUSFactionData@@@std@@@std@@YAXPAPAUSFactionData@@0AAV?$allocator@PAUSFactionData@@@0@@Z 00412de0 f i GameObjects:FactionManager.obj
 0001:00011de0       ??$_Destroy_range@DV?$allocator@D@std@@@std@@YAXPAD0AAV?$allocator@D@0@@Z 00412de0 f i GameObjects:xyLog.obj
 0001:00011de0       ??$_Destroy_range@HV?$allocator@H@std@@@std@@YAXPAH0AAV?$allocator@H@0@@Z 00412de0 f i GameObjects:ScriptManager.obj
 0001:00011de0       ??$_Destroy_range@PAPAUSMoiler@@V?$allocator@PAPAUSMoiler@@@std@@@std@@YAXPAPAPAUSMoiler@@0AAV?$allocator@PAPAUSMoiler@@@0@@Z 00412de0 f i MoilWorker.obj
 0001:00011de0       ??$_Destroy_range@PAVBuffAction@@V?$allocator@PAVBuffAction@@@std@@@std@@YAXPAPAVBuffAction@@0AAV?$allocator@PAVBuffAction@@@0@@Z 00412de0 f i GameObjects:BuffPropertyModify.obj
 0001:00011de0       ??$_Destroy_range@KV?$allocator@K@std@@@std@@YAXPAK0AAV?$allocator@K@0@@Z 00412de0 f i GameObjects:Region.obj
 0001:00011de0       ??$_Destroy_range@PAU?$pair@U_SYSTEMTIME@@V?$map@PBDV?$deque@KV?$allocator@K@std@@@std@@U?$less@PBD@2@V?$allocator@U?$pair@QBDV?$deque@KV?$allocator@K@std@@@std@@@std@@@2@@std@@@std@@V?$allocator@PAU?$pair@U_SYSTEMTIME@@V?$map@PBDV?$deque@KV?$allocator@K@std@@@std@@U?$less@PBD@2@V?$allocator@U?$pair@QBDV?$deque@KV?$allocator@K@std@@@std@@@std@@@2@@std@@@std@@@2@@std@@YAXPAPAU?$pair@U_SYSTEMTIME@@V?$map@PBDV?$deque@KV?$allocator@K@std@@@std@@U?$less@PBD@2@V?$allocator@U?$pair@QBDV?$deque@KV?$allocator@K@std@@@std@@@std@@@2@@std@@@0@0AAV?$allocator@PAU?$pair@U_SYSTEMTIME@@V?$map@PBDV?$deque@KV?$allocator@K@std@@@std@@U?$less@PBD@2@V?$allocator@U?$pair@QBDV?$deque@KV?$allocator@K@std@@@std@@@std@@@2@@std@@@std@@@0@@Z 00412de0 f i TimeProber.obj
 0001:00011de0       ??$_Destroy_range@PAU_tagXMLAttr@@V?$allocator@PAU_tagXMLAttr@@@std@@@std@@YAXPAPAU_tagXMLAttr@@0AAV?$allocator@PAU_tagXMLAttr@@@0@@Z 00412de0 f i GameObjects:BuffBaseData.obj
 0001:00011de0       ??$_Destroy_range@PAPAUSNetClientPacket@@V?$allocator@PAPAUSNetClientPacket@@@std@@@std@@YAXPAPAPAUSNetClientPacket@@0AAV?$allocator@PAPAUSNetClientPacket@@@0@@Z 00412de0 f i NetConsumerModule:NetConsummerModule.obj
 0001:00011de0       ??$_Destroy_range@PAKV?$allocator@PAK@std@@@std@@YAXPAPAK0AAV?$allocator@PAK@0@@Z 00412de0 f i TimeProber.obj
 0001:00011de0       ??$_Destroy_range@PAU_tagXMLNode@@V?$allocator@PAU_tagXMLNode@@@std@@@std@@YAXPAPAU_tagXMLNode@@0AAV?$allocator@PAU_tagXMLNode@@@0@@Z 00412de0 f i GameObjects:BuffBaseData.obj
 0001:00011de0       ??$_Destroy_range@PAPAUSNetServerPacketAdvEx@@V?$allocator@PAPAUSNetServerPacketAdvEx@@@std@@@std@@YAXPAPAPAUSNetServerPacketAdvEx@@0AAV?$allocator@PAPAUSNetServerPacketAdvEx@@@0@@Z 00412de0 f i NetProviderModuleEx:NetProviderModuleAdvEx.obj
 0001:00011de0       ??$_Destroy_range@PAPAXV?$allocator@PAPAX@std@@@std@@YAXPAPAPAX0AAV?$allocator@PAPAX@0@@Z 00412de0 f i MoilWorker.obj
 0001:00011de0       ??$_Destroy_range@GV?$allocator@G@std@@@std@@YAXPAG0AAV?$allocator@G@0@@Z 00412de0 f i GameObjects:ExtraScriptFunctions.obj
 0001:00011de0       ??$_Destroy_range@PAPAUSNetServerPacket@@V?$allocator@PAPAUSNetServerPacket@@@std@@@std@@YAXPAPAPAUSNetServerPacket@@0AAV?$allocator@PAPAUSNetServerPacket@@@0@@Z 00412de0 f i NetProviderModuleEx:NetProviderModule.obj
 0001:00011de0       ??$_Destroy_range@PAVBuffTrigger@@V?$allocator@PAVBuffTrigger@@@std@@@std@@YAXPAPAVBuffTrigger@@0AAV?$allocator@PAVBuffTrigger@@@0@@Z 00412de0 f i GameObjects:BuffEntityManager.obj
 0001:00011e20       ?Singleton@SharedMemoryCache@@SAAAU1@PBDGKE@Z 00412e20 f   SMCache.obj
 0001:00012090       ??0details_SharedMemoryCache@@QAE@PBDGKE@Z 00413090 f i SMCache.obj
 0001:00012150       ?initialize@details_SharedMemoryCache@@QAEXPBDGKE@Z 00413150 f i SMCache.obj
 0001:00012770       ?Insert@ChainNode@details_SharedMemoryCache@@QAEXPAXPAU12@@Z 00413770 f i SMCache.obj
 0001:000127a0       ?Release@details_SharedMemoryCache@@UAEXXZ 004137a0 f i SMCache.obj
 0001:00012820       ?Size@details_SharedMemoryCache@@UAEKXZ 00413820 f i SMCache.obj
 0001:00012850       ?Capacity@details_SharedMemoryCache@@UAEKXZ 00413850 f i SMCache.obj
 0001:00012870       ?isNewly@details_SharedMemoryCache@@UAEHXZ 00413870 f i SMCache.obj
 0001:00012890       ?Clear@details_SharedMemoryCache@@UAEXXZ 00413890 f i SMCache.obj
 0001:00012940       ?Erase@details_SharedMemoryCache@@UAEHPBX@Z 00413940 f i SMCache.obj
 0001:00012ac0       ?next@ChainNode@details_SharedMemoryCache@@QAEPAU12@PAX@Z 00413ac0 f i SMCache.obj
 0001:00012af0       ?Remove@ChainNode@details_SharedMemoryCache@@QAEHPAXPAU12@@Z 00413af0 f i SMCache.obj
 0001:00012b70       ??Adetails_SharedMemoryCache@@UAEPAXPBX@Z 00413b70 f i SMCache.obj
 0001:00012d20       ?Pop@ChainNode@details_SharedMemoryCache@@QAEPAU12@PAX@Z 00413d20 f i SMCache.obj
 0001:00012d60       ?Traverse@details_SharedMemoryCache@@UAEXP6GHPAX00@Z0@Z 00413d60 f i SMCache.obj
 0001:00012e20       ??0SharedMemoryCache@@QAE@XZ 00413e20 f i SMCache.obj
 0001:00012e40       ??$memcpy_s@D$0CAA@@@YAXAAY0CAA@DPBXI@Z 00413e40 f i SMCache.obj
 0001:00012f60       _stdargv                   00413f60 f   stdargv.obj
 0001:000133d0       ?OnCmdExit@@YGXPAXHPAPBD@Z 004143d0 f   StdFrame.obj
 0001:000133f0       ?OnCmdHelp@@YGXPAXHPAPBD@Z 004143f0 f   StdFrame.obj
 0001:00013480       ?handler_routine@@YGHK@Z   00414480 f   StdFrame.obj
 0001:00013540       ?RegisterCmd@StaticSingleton@@SAXPBDP6GXPAXHPAPBD@Z1H0@Z 00414540 f   StdFrame.obj
 0001:00013660       ?PutUnderLine@@YAXPAXPBDH@Z 00414660 f   StdFrame.obj
 0001:00013700       ?SetTitle@StaticSingleton@@SAXPBD@Z 00414700 f   StdFrame.obj
 0001:00013720       ?StdStartUp@StaticSingleton@@QAEHPBD@Z 00414720 f   StdFrame.obj
 0001:000140c0       ??0CMD_FUNCDATA@StaticSingleton@@QAE@P6GXPAXHPAPBD@Z0HPBD@Z 004150c0 f i StdFrame.obj
 0001:00014120       ??4CMD_FUNCDATA@StaticSingleton@@QAEAAU01@ABU01@@Z 00415120 f i StdFrame.obj
 0001:00014170       ?Trylock@TryCriticalLock@UGE@@QAEHK@Z 00415170 f i StdFrame.obj
 0001:000141f0       ??0WorkThread@@QAE@AAVThreadWaiter@UGE@@@Z 004151f0 f i StdFrame.obj
 0001:00014220       ??0TryCriticalLock@UGE@@QAE@XZ 00415220 f i StdFrame.obj
 0001:00014240       ??1WorkThread@@QAE@XZ      00415240 f i StdFrame.obj
 0001:00014260       ??1TryCriticalLock@UGE@@QAE@XZ 00415260 f i StdFrame.obj
 0001:00014280       ??A?$map@V?$basic_string@DU?$char_traits@D@std@@V?$allocator@D@2@@std@@UCMD_FUNCDATA@StaticSingleton@@U?$less@V?$basic_string@DU?$char_traits@D@std@@V?$allocator@D@2@@std@@@2@V?$allocator@U?$pair@$$CBV?$basic_string@DU?$char_traits@D@std@@V?$allocator@D@2@@std@@UCMD_FUNCDATA@StaticSingleton@@@std@@@2@@std@@QAEAAUCMD_FUNCDATA@StaticSingleton@@ABV?$basic_string@DU?$char_traits@D@std@@V?$allocator@D@2@@1@@Z 00415280 f i StdFrame.obj
 0001:000143b0       ?find@?$_Tree@V?$_Tmap_traits@V?$basic_string@DU?$char_traits@D@std@@V?$allocator@D@2@@std@@UCMD_FUNCDATA@StaticSingleton@@U?$less@V?$basic_string@DU?$char_traits@D@std@@V?$allocator@D@2@@std@@@2@V?$allocator@U?$pair@$$CBV?$basic_string@DU?$char_traits@D@std@@V?$allocator@D@2@@std@@UCMD_FUNCDATA@StaticSingleton@@@std@@@2@$0A@@std@@@std@@QAE?AViterator@12@ABV?$basic_string@DU?$char_traits@D@std@@V?$allocator@D@2@@2@@Z 004153b0 f i StdFrame.obj
 0001:00014440       ?front@?$list@V?$basic_string@DU?$char_traits@D@std@@V?$allocator@D@2@@std@@V?$allocator@V?$basic_string@DU?$char_traits@D@std@@V?$allocator@D@2@@std@@@2@@std@@QAEAAV?$basic_string@DU?$char_traits@D@std@@V?$allocator@D@2@@2@XZ 00415440 f i StdFrame.obj
 0001:00014460       ?push_front@?$list@V?$basic_string@DU?$char_traits@D@std@@V?$allocator@D@2@@std@@V?$allocator@V?$basic_string@DU?$char_traits@D@std@@V?$allocator@D@2@@std@@@2@@std@@QAEXABV?$basic_string@DU?$char_traits@D@std@@V?$allocator@D@2@@2@@Z 00415460 f i StdFrame.obj
 0001:00014490       ?pop_front@?$list@V?$basic_string@DU?$char_traits@D@std@@V?$allocator@D@2@@std@@V?$allocator@V?$basic_string@DU?$char_traits@D@std@@V?$allocator@D@2@@std@@@2@@std@@QAEXXZ 00415490 f i StdFrame.obj
 0001:000144c0       ?push_back@?$list@V?$basic_string@DU?$char_traits@D@std@@V?$allocator@D@2@@std@@V?$allocator@V?$basic_string@DU?$char_traits@D@std@@V?$allocator@D@2@@std@@@2@@std@@QAEXABV?$basic_string@DU?$char_traits@D@std@@V?$allocator@D@2@@2@@Z 004154c0 f i StdFrame.obj
 0001:000144f0       ?pop_back@?$list@V?$basic_string@DU?$char_traits@D@std@@V?$allocator@D@2@@std@@V?$allocator@V?$basic_string@DU?$char_traits@D@std@@V?$allocator@D@2@@std@@@2@@std@@QAEXXZ 004154f0 f i StdFrame.obj
 0001:00014520       ?insert@?$_Tree@V?$_Tmap_traits@V?$basic_string@DU?$char_traits@D@std@@V?$allocator@D@2@@std@@UCMD_FUNCDATA@StaticSingleton@@U?$less@V?$basic_string@DU?$char_traits@D@std@@V?$allocator@D@2@@std@@@2@V?$allocator@U?$pair@$$CBV?$basic_string@DU?$char_traits@D@std@@V?$allocator@D@2@@std@@UCMD_FUNCDATA@StaticSingleton@@@std@@@2@$0A@@std@@@std@@QAE?AViterator@12@V312@ABU?$pair@$$CBV?$basic_string@DU?$char_traits@D@std@@V?$allocator@D@2@@std@@UCMD_FUNCDATA@StaticSingleton@@@2@@Z 00415520 f i StdFrame.obj
 0001:00014af0       ?lower_bound@?$_Tree@V?$_Tmap_traits@V?$basic_string@DU?$char_traits@D@std@@V?$allocator@D@2@@std@@UCMD_FUNCDATA@StaticSingleton@@U?$less@V?$basic_string@DU?$char_traits@D@std@@V?$allocator@D@2@@std@@@2@V?$allocator@U?$pair@$$CBV?$basic_string@DU?$char_traits@D@std@@V?$allocator@D@2@@std@@UCMD_FUNCDATA@StaticSingleton@@@std@@@2@$0A@@std@@@std@@QAE?AViterator@12@ABV?$basic_string@DU?$char_traits@D@std@@V?$allocator@D@2@@2@@Z 00415af0 f i StdFrame.obj
 0001:00014b20       ?_Insert@?$list@V?$basic_string@DU?$char_traits@D@std@@V?$allocator@D@2@@std@@V?$allocator@V?$basic_string@DU?$char_traits@D@std@@V?$allocator@D@2@@std@@@2@@std@@QAEXViterator@12@ABV?$basic_string@DU?$char_traits@D@std@@V?$allocator@D@2@@2@@Z 00415b20 f i StdFrame.obj
 0001:00014ba0       ?erase@?$list@V?$basic_string@DU?$char_traits@D@std@@V?$allocator@D@2@@std@@V?$allocator@V?$basic_string@DU?$char_traits@D@std@@V?$allocator@D@2@@std@@@2@@std@@QAE?AViterator@12@V312@@Z 00415ba0 f i StdFrame.obj
 0001:00014c60       ??0?$pair@$$CBV?$basic_string@DU?$char_traits@D@std@@V?$allocator@D@2@@std@@UCMD_FUNCDATA@StaticSingleton@@@std@@QAE@ABV?$basic_string@DU?$char_traits@D@std@@V?$allocator@D@2@@1@ABUCMD_FUNCDATA@StaticSingleton@@@Z 00415c60 f i StdFrame.obj
 0001:00014cc0       ??0CMD_FUNCDATA@StaticSingleton@@QAE@ABU01@@Z 00415cc0 f i StdFrame.obj
 0001:00014d10       ?insert@?$_Tree@V?$_Tmap_traits@V?$basic_string@DU?$char_traits@D@std@@V?$allocator@D@2@@std@@UCMD_FUNCDATA@StaticSingleton@@U?$less@V?$basic_string@DU?$char_traits@D@std@@V?$allocator@D@2@@std@@@2@V?$allocator@U?$pair@$$CBV?$basic_string@DU?$char_traits@D@std@@V?$allocator@D@2@@std@@UCMD_FUNCDATA@StaticSingleton@@@std@@@2@$0A@@std@@@std@@QAE?AU?$pair@Viterator@?$_Tree@V?$_Tmap_traits@V?$basic_string@DU?$char_traits@D@std@@V?$allocator@D@2@@std@@UCMD_FUNCDATA@StaticSingleton@@U?$less@V?$basic_string@DU?$char_traits@D@std@@V?$allocator@D@2@@std@@@2@V?$allocator@U?$pair@$$CBV?$basic_string@DU?$char_traits@D@std@@V?$allocator@D@2@@std@@UCMD_FUNCDATA@StaticSingleton@@@std@@@2@$0A@@std@@@std@@_N@2@ABU?$pair@$$CBV?$basic_string@DU?$char_traits@D@std@@V?$allocator@D@2@@std@@UCMD_FUNCDATA@StaticSingleton@@@2@@Z 00415d10 f i StdFrame.obj
 0001:00014ec0       ?_Insert@?$_Tree@V?$_Tmap_traits@V?$basic_string@DU?$char_traits@D@std@@V?$allocator@D@2@@std@@UCMD_FUNCDATA@StaticSingleton@@U?$less@V?$basic_string@DU?$char_traits@D@std@@V?$allocator@D@2@@std@@@2@V?$allocator@U?$pair@$$CBV?$basic_string@DU?$char_traits@D@std@@V?$allocator@D@2@@std@@UCMD_FUNCDATA@StaticSingleton@@@std@@@2@$0A@@std@@@std@@IAE?AViterator@12@_NPAU_Node@?$_Tree_nod@V?$_Tmap_traits@V?$basic_string@DU?$char_traits@D@std@@V?$allocator@D@2@@std@@UCMD_FUNCDATA@StaticSingleton@@U?$less@V?$basic_string@DU?$char_traits@D@std@@V?$allocator@D@2@@std@@@2@V?$allocator@U?$pair@$$CBV?$basic_string@DU?$char_traits@D@std@@V?$allocator@D@2@@std@@UCMD_FUNCDATA@StaticSingleton@@@std@@@2@$0A@@std@@@2@ABU?$pair@$$CBV?$basic_string@DU?$char_traits@D@std@@V?$allocator@D@2@@std@@UCMD_FUNCDATA@StaticSingleton@@@2@@Z 00415ec0 f i StdFrame.obj
 0001:00015320       ?_Lbound@?$_Tree@V?$_Tmap_traits@V?$basic_string@DU?$char_traits@D@std@@V?$allocator@D@2@@std@@UCMD_FUNCDATA@StaticSingleton@@U?$less@V?$basic_string@DU?$char_traits@D@std@@V?$allocator@D@2@@std@@@2@V?$allocator@U?$pair@$$CBV?$basic_string@DU?$char_traits@D@std@@V?$allocator@D@2@@std@@UCMD_FUNCDATA@StaticSingleton@@@std@@@2@$0A@@std@@@std@@IBEPAU_Node@?$_Tree_nod@V?$_Tmap_traits@V?$basic_string@DU?$char_traits@D@std@@V?$allocator@D@2@@std@@UCMD_FUNCDATA@StaticSingleton@@U?$less@V?$basic_string@DU?$char_traits@D@std@@V?$allocator@D@2@@std@@@2@V?$allocator@U?$pair@$$CBV?$basic_string@DU?$char_traits@D@std@@V?$allocator@D@2@@std@@UCMD_FUNCDATA@StaticSingleton@@@std@@@2@$0A@@std@@@2@ABV?$basic_string@DU?$char_traits@D@std@@V?$allocator@D@2@@2@@Z 00416320 f i StdFrame.obj
 0001:000153b0       ?_Buynode@?$list@V?$basic_string@DU?$char_traits@D@std@@V?$allocator@D@2@@std@@V?$allocator@V?$basic_string@DU?$char_traits@D@std@@V?$allocator@D@2@@std@@@2@@std@@IAEPAU_Node@?$_List_nod@V?$basic_string@DU?$char_traits@D@std@@V?$allocator@D@2@@std@@V?$allocator@V?$basic_string@DU?$char_traits@D@std@@V?$allocator@D@2@@std@@@2@@2@PAU342@0ABV?$basic_string@DU?$char_traits@D@std@@V?$allocator@D@2@@2@@Z 004163b0 f i StdFrame.obj
 0001:00015470       ?_Incsize@?$list@V?$basic_string@DU?$char_traits@D@std@@V?$allocator@D@2@@std@@V?$allocator@V?$basic_string@DU?$char_traits@D@std@@V?$allocator@D@2@@std@@@2@@std@@IAEXI@Z 00416470 f i StdFrame.obj
 0001:000154f0       ??Fiterator@?$_Tree@V?$_Tmap_traits@UPath@ProfileManager@jex@@UNode@23@U?$less@UPath@ProfileManager@jex@@@std@@V?$allocator@U?$pair@$$CBUPath@ProfileManager@jex@@UNode@23@@std@@@6@$0A@@std@@@std@@QAEAAV012@XZ 004164f0 f i TimeProber.obj
 0001:000154f0       ??Fiterator@?$_Tree@V?$_Tmap_traits@V?$basic_string@DU?$char_traits@D@std@@V?$allocator@D@2@@std@@UCMD_FUNCDATA@StaticSingleton@@U?$less@V?$basic_string@DU?$char_traits@D@std@@V?$allocator@D@2@@std@@@2@V?$allocator@U?$pair@$$CBV?$basic_string@DU?$char_traits@D@std@@V?$allocator@D@2@@std@@UCMD_FUNCDATA@StaticSingleton@@@std@@@2@$0A@@std@@@std@@QAEAAV012@XZ 004164f0 f i StdFrame.obj
 0001:00015510       ?max_size@?$_Tree@V?$_Tmap_traits@V?$basic_string@DU?$char_traits@D@std@@V?$allocator@D@2@@std@@UCMD_FUNCDATA@StaticSingleton@@U?$less@V?$basic_string@DU?$char_traits@D@std@@V?$allocator@D@2@@std@@@2@V?$allocator@U?$pair@$$CBV?$basic_string@DU?$char_traits@D@std@@V?$allocator@D@2@@std@@UCMD_FUNCDATA@StaticSingleton@@@std@@@2@$0A@@std@@@std@@QBEIXZ 00416510 f i StdFrame.obj
 0001:00015530       ?_Buynode@?$_Tree@V?$_Tmap_traits@V?$basic_string@DU?$char_traits@D@std@@V?$allocator@D@2@@std@@UCMD_FUNCDATA@StaticSingleton@@U?$less@V?$basic_string@DU?$char_traits@D@std@@V?$allocator@D@2@@std@@@2@V?$allocator@U?$pair@$$CBV?$basic_string@DU?$char_traits@D@std@@V?$allocator@D@2@@std@@UCMD_FUNCDATA@StaticSingleton@@@std@@@2@$0A@@std@@@std@@IAEPAU_Node@?$_Tree_nod@V?$_Tmap_traits@V?$basic_string@DU?$char_traits@D@std@@V?$allocator@D@2@@std@@UCMD_FUNCDATA@StaticSingleton@@U?$less@V?$basic_string@DU?$char_traits@D@std@@V?$allocator@D@2@@std@@@2@V?$allocator@U?$pair@$$CBV?$basic_string@DU?$char_traits@D@std@@V?$allocator@D@2@@std@@UCMD_FUNCDATA@StaticSingleton@@@std@@@2@$0A@@std@@@2@PAU342@00ABU?$pair@$$CBV?$basic_string@DU?$char_traits@D@std@@V?$allocator@D@2@@std@@UCMD_FUNCDATA@StaticSingleton@@@2@D@Z 00416530 f i StdFrame.obj
 0001:00015600       ?_Right@?$_Tree@V?$_Tmap_traits@KUSHitData@CMonster@@U?$less@K@std@@V?$allocator@U?$pair@$$CBKUSHitData@CMonster@@@std@@@4@$0A@@std@@@std@@KAAAPAU_Node@?$_Tree_nod@V?$_Tmap_traits@KUSHitData@CMonster@@U?$less@K@std@@V?$allocator@U?$pair@$$CBKUSHitData@CMonster@@@std@@@4@$0A@@std@@@2@PAU342@@Z 00416600 f i GameObjects:Player.obj
 0001:00015600       ?_Right@?$_Tree@V?$_Tmap_traits@KUIRcd@@U?$less@K@std@@V?$allocator@U?$pair@$$CBKUIRcd@@@std@@@3@$0A@@std@@@std@@KAAAPAU_Node@?$_Tree_nod@V?$_Tmap_traits@KUIRcd@@U?$less@K@std@@V?$allocator@U?$pair@$$CBKUIRcd@@@std@@@3@$0A@@std@@@2@PAU342@@Z 00416600 f i GameObjects:ItemData.obj
 0001:00015600       ?_Right@?$_Tree@V?$_Tmap_traits@GJU?$less@G@std@@V?$allocator@U?$pair@$$CBGJ@std@@@2@$0A@@std@@@std@@KAAAPAU_Node@?$_Tree_nod@V?$_Tmap_traits@GJU?$less@G@std@@V?$allocator@U?$pair@$$CBGJ@std@@@2@$0A@@std@@@2@PAU342@@Z 00416600 f i GameObjects:Item.obj
 0001:00015600       ?_Right@?$_Tree@V?$_Tmap_traits@KUSFBData@@U?$less@K@std@@V?$allocator@U?$pair@$$CBKUSFBData@@@std@@@3@$0A@@std@@@std@@KAAAPAU_Node@?$_Tree_nod@V?$_Tmap_traits@KUSFBData@@U?$less@K@std@@V?$allocator@U?$pair@$$CBKUSFBData@@@std@@@3@$0A@@std@@@2@PAU342@@Z 00416600 f i GameObjects:Player.obj
 0001:00015600       ?_Myval@?$list@USMonsterData@@V?$allocator@USMonsterData@@@std@@@std@@KAAAUSMonsterData@@PAU_Node@?$_List_nod@USMonsterData@@V?$allocator@USMonsterData@@@std@@@2@@Z 00416600 f i GameObjects:Monster.obj
 0001:00015600       ?_Right@?$_Tree@V?$_Tmap_traits@V?$basic_string@DU?$char_traits@D@std@@V?$allocator@D@2@@std@@UNode@ProfileManager@jex@@U?$less@V?$basic_string@DU?$char_traits@D@std@@V?$allocator@D@2@@std@@@2@V?$allocator@U?$pair@$$CBV?$basic_string@DU?$char_traits@D@std@@V?$allocator@D@2@@std@@UNode@ProfileManager@jex@@@std@@@2@$0A@@std@@@std@@KAAAPAU_Node@?$_Tree_nod@V?$_Tmap_traits@V?$basic_string@DU?$char_traits@D@std@@V?$allocator@D@2@@std@@UNode@ProfileManager@jex@@U?$less@V?$basic_string@DU?$char_traits@D@std@@V?$allocator@D@2@@std@@@2@V?$allocator@U?$pair@$$CBV?$basic_string@DU?$char_traits@D@std@@V?$allocator@D@2@@std@@UNode@ProfileManager@jex@@@std@@@2@$0A@@std@@@2@PAU342@@Z 00416600 f i TimeProber.obj
 0001:00015600       ?_Right@?$_Tree@V?$_Tmap_traits@V?$basic_string@DU?$char_traits@D@std@@V?$allocator@D@2@@std@@USTraceFile@@U?$less@V?$basic_string@DU?$char_traits@D@std@@V?$allocator@D@2@@std@@@2@V?$allocator@U?$pair@$$CBV?$basic_string@DU?$char_traits@D@std@@V?$allocator@D@2@@std@@USTraceFile@@@std@@@2@$0A@@std@@@std@@KAAAPAU_Node@?$_Tree_nod@V?$_Tmap_traits@V?$basic_string@DU?$char_traits@D@std@@V?$allocator@D@2@@std@@USTraceFile@@U?$less@V?$basic_string@DU?$char_traits@D@std@@V?$allocator@D@2@@std@@@2@V?$allocator@U?$pair@$$CBV?$basic_string@DU?$char_traits@D@std@@V?$allocator@D@2@@std@@USTraceFile@@@std@@@2@$0A@@std@@@2@PAU342@@Z 00416600 f i traceinfo.obj
 0001:00015600       ?_Myval@?$list@UtempAddItem@CPlayer@@V?$allocator@UtempAddItem@CPlayer@@@std@@@std@@KAAAUtempAddItem@CPlayer@@PAU_Node@?$_List_nod@UtempAddItem@CPlayer@@V?$allocator@UtempAddItem@CPlayer@@@std@@@2@@Z 00416600 f i GameObjects:GameWorld.obj
 0001:00015600       ?_Myval@?$list@KV?$allocator@K@std@@@std@@KAAAKPAU_Node@?$_List_nod@KV?$allocator@K@std@@@2@@Z 00416600 f i GameObjects:ExtraScriptFunctions.obj
 0001:00015600       ?_Right@?$_Tree@V?$_Tmap_traits@HV?$shared_ptr@V?$pool@Udefault_user_allocator_new_delete@boost@@@boost@@@boost@@U?$less@H@std@@V?$allocator@U?$pair@$$CBHV?$shared_ptr@V?$pool@Udefault_user_allocator_new_delete@boost@@@boost@@@boost@@@std@@@4@$0A@@std@@@std@@KAAAPAU_Node@?$_Tree_nod@V?$_Tmap_traits@HV?$shared_ptr@V?$pool@Udefault_user_allocator_new_delete@boost@@@boost@@@boost@@U?$less@H@std@@V?$allocator@U?$pair@$$CBHV?$shared_ptr@V?$pool@Udefault_user_allocator_new_delete@boost@@@boost@@@boost@@@std@@@4@$0A@@std@@@2@PAU342@@Z 00416600 f i GameObjects:Region.obj
 0001:00015600       ?_Right@?$_Tree@V?$_Tset_traits@GU?$less@G@std@@V?$allocator@G@2@$0A@@std@@@std@@KAAAPAU_Node@?$_Tree_nod@V?$_Tset_traits@GU?$less@G@std@@V?$allocator@G@2@$0A@@std@@@2@PAU342@@Z 00416600 f i GameObjects:ExtraScriptFunctions.obj
 0001:00015600       ?_Right@?$_Tree@V?$_Tmap_traits@KUTeam@@U?$less@K@std@@V?$allocator@U?$pair@$$CBKUTeam@@@std@@@3@$0A@@std@@@std@@KAAAPAU_Node@?$_Tree_nod@V?$_Tmap_traits@KUTeam@@U?$less@K@std@@V?$allocator@U?$pair@$$CBKUTeam@@@std@@@3@$0A@@std@@@2@PAU342@@Z 00416600 f i GameObjects:Player.obj
 0001:00015600       ?_Right@?$_Tree@V?$_Tmap_traits@PBDUSortNode@ProfileManager@jex@@U?$less@PBD@std@@V?$allocator@U?$pair@QBDUSortNode@ProfileManager@jex@@@std@@@5@$0A@@std@@@std@@KAAAPAU_Node@?$_Tree_nod@V?$_Tmap_traits@PBDUSortNode@ProfileManager@jex@@U?$less@PBD@std@@V?$allocator@U?$pair@QBDUSortNode@ProfileManager@jex@@@std@@@5@$0A@@std@@@2@PAU342@@Z 00416600 f i TimeProber.obj
 0001:00015600       ?_Myval@?$list@PAVCFightListener@@V?$allocator@PAVCFightListener@@@std@@@std@@KAAAPAVCFightListener@@PAU_Node@?$_List_nod@PAVCFightListener@@V?$allocator@PAVCFightListener@@@std@@@2@@Z 00416600 f i GameObjects:FightObject.obj
 0001:00015600       ?_Right@?$_Tree@V?$_Tmap_traits@PBDV?$deque@KV?$allocator@K@std@@@std@@U?$less@PBD@2@V?$allocator@U?$pair@QBDV?$deque@KV?$allocator@K@std@@@std@@@std@@@2@$0A@@std@@@std@@KAAAPAU_Node@?$_Tree_nod@V?$_Tmap_traits@PBDV?$deque@KV?$allocator@K@std@@@std@@U?$less@PBD@2@V?$allocator@U?$pair@QBDV?$deque@KV?$allocator@K@std@@@std@@@std@@@2@$0A@@std@@@2@PAU342@@Z 00416600 f i TimeProber.obj
 0001:00015600       ?_Right@?$_Tree@V?$_Tmap_traits@KUSFactionData@@U?$less@K@std@@V?$allocator@U?$pair@$$CBKUSFactionData@@@std@@@3@$0A@@std@@@std@@KAAAPAU_Node@?$_Tree_nod@V?$_Tmap_traits@KUSFactionData@@U?$less@K@std@@V?$allocator@U?$pair@$$CBKUSFactionData@@@std@@@3@$0A@@std@@@2@PAU342@@Z 00416600 f i GameObjects:FactionManager.obj
 0001:00015600       ?_Right@?$_Tree@V?$_Tmap_traits@_KKU?$less@_K@std@@V?$allocator@U?$pair@$$CB_KK@std@@@2@$0A@@std@@@std@@KAAAPAU_Node@?$_Tree_nod@V?$_Tmap_traits@_KKU?$less@_K@std@@V?$allocator@U?$pair@$$CB_KK@std@@@2@$0A@@std@@@2@PAU342@@Z 00416600 f i GameObjects:GameWorld.obj
 0001:00015600       ?_Myval@?$list@USLuaEvent@@V?$allocator@USLuaEvent@@@std@@@std@@KAAAUSLuaEvent@@PAU_Node@?$_List_nod@USLuaEvent@@V?$allocator@USLuaEvent@@@std@@@2@@Z 00416600 f i GameObjects:ScriptManager.obj
 0001:00015600       ?_Right@?$_Tree@V?$_Tmap_traits@_KVCLinkData@@U?$less@_K@std@@V?$allocator@U?$pair@$$CB_KVCLinkData@@@std@@@3@$0A@@std@@@std@@KAAAPAU_Node@?$_Tree_nod@V?$_Tmap_traits@_KVCLinkData@@U?$less@_K@std@@V?$allocator@U?$pair@$$CB_KVCLinkData@@@std@@@3@$0A@@std@@@2@PAU342@@Z 00416600 f i NetProviderModuleEx:NetProviderModule.obj
 0001:00015600       ?_Right@?$_Tree@V?$_Tmap_traits@V?$basic_string@DU?$char_traits@D@std@@V?$allocator@D@2@@std@@USTaskExBuffer@@U?$less@V?$basic_string@DU?$char_traits@D@std@@V?$allocator@D@2@@std@@@2@V?$allocator@U?$pair@$$CBV?$basic_string@DU?$char_traits@D@std@@V?$allocator@D@2@@std@@USTaskExBuffer@@@std@@@2@$0A@@std@@@std@@KAAAPAU_Node@?$_Tree_nod@V?$_Tmap_traits@V?$basic_string@DU?$char_traits@D@std@@V?$allocator@D@2@@std@@USTaskExBuffer@@U?$less@V?$basic_string@DU?$char_traits@D@std@@V?$allocator@D@2@@std@@@2@V?$allocator@U?$pair@$$CBV?$basic_string@DU?$char_traits@D@std@@V?$allocator@D@2@@std@@USTaskExBuffer@@@std@@@2@$0A@@std@@@2@PAU342@@Z 00416600 f i GameObjects:ScriptManager.obj
 0001:00015600       ?_Right@?$_Tree@V?$_Tmap_traits@GHU?$less@G@std@@V?$allocator@U?$pair@$$CBGH@std@@@2@$0A@@std@@@std@@KAAAPAU_Node@?$_Tree_nod@V?$_Tmap_traits@GHU?$less@G@std@@V?$allocator@U?$pair@$$CBGH@std@@@2@$0A@@std@@@2@PAU342@@Z 00416600 f i GameObjects:Region.obj
 0001:00015600       ?_Myval@?$list@USPlayerRelates@typedef_v6@@V?$allocator@USPlayerRelates@typedef_v6@@@std@@@std@@KAAAUSPlayerRelates@typedef_v6@@PAU_Node@?$_List_nod@USPlayerRelates@typedef_v6@@V?$allocator@USPlayerRelates@typedef_v6@@@std@@@2@@Z 00416600 f i GameObjects:Relation.obj
 0001:00015600       ?_Myval@?$list@V?$shared_ptr@VIObject@@@boost@@V?$allocator@V?$shared_ptr@VIObject@@@boost@@@std@@@std@@KAAAV?$shared_ptr@VIObject@@@boost@@PAU_Node@?$_List_nod@V?$shared_ptr@VIObject@@@boost@@V?$allocator@V?$shared_ptr@VIObject@@@boost@@@std@@@2@@Z 00416600 f i GameObjects:ExtraScriptFunctions.obj
 0001:00015600       ?_Right@?$_Tree@V?$_Tmap_traits@_KU?$pair@_K_K@std@@U?$less@_K@2@V?$allocator@U?$pair@$$CB_KU?$pair@_K_K@std@@@std@@@2@$0A@@std@@@std@@KAAAPAU_Node@?$_Tree_nod@V?$_Tmap_traits@_KU?$pair@_K_K@std@@U?$less@_K@2@V?$allocator@U?$pair@$$CB_KU?$pair@_K_K@std@@@std@@@2@$0A@@std@@@2@PAU342@@Z 00416600 f i NetProviderModuleEx:NetProviderModuleAdvEx.obj
 0001:00015600       ?_Right@?$_Tree@V?$_Tmap_traits@V?$basic_string@DU?$char_traits@D@std@@V?$allocator@D@2@@std@@PAUCooler@@U?$less@V?$basic_string@DU?$char_traits@D@std@@V?$allocator@D@2@@std@@@2@V?$allocator@U?$pair@$$CBV?$basic_string@DU?$char_traits@D@std@@V?$allocator@D@2@@std@@PAUCooler@@@std@@@2@$0A@@std@@@std@@KAAAPAU_Node@?$_Tree_nod@V?$_Tmap_traits@V?$basic_string@DU?$char_traits@D@std@@V?$allocator@D@2@@std@@PAUCooler@@U?$less@V?$basic_string@DU?$char_traits@D@std@@V?$allocator@D@2@@std@@@2@V?$allocator@U?$pair@$$CBV?$basic_string@DU?$char_traits@D@std@@V?$allocator@D@2@@std@@PAUCooler@@@std@@@2@$0A@@std@@@2@PAU342@@Z 00416600 f i GameObjects:FightObject.obj
 0001:00015600       ?_Right@?$_Tree@V?$_Tmap_traits@KKU?$less@K@std@@V?$allocator@U?$pair@$$CBKK@std@@@2@$0A@@std@@@std@@KAAAPAU_Node@?$_Tree_nod@V?$_Tmap_traits@KKU?$less@K@std@@V?$allocator@U?$pair@$$CBKK@std@@@2@$0A@@std@@@2@PAU342@@Z 00416600 f i GameObjects:GameWorld.obj
 0001:00015600       ?_Right@?$_Tree@V?$_Tmap_traits@_KVCLinkDataAdvEx@@U?$less@_K@std@@V?$allocator@U?$pair@$$CB_KVCLinkDataAdvEx@@@std@@@3@$0A@@std@@@std@@KAAAPAU_Node@?$_Tree_nod@V?$_Tmap_traits@_KVCLinkDataAdvEx@@U?$less@_K@std@@V?$allocator@U?$pair@$$CB_KVCLinkDataAdvEx@@@std@@@3@$0A@@std@@@2@PAU342@@Z 00416600 f i NetProviderModuleEx:NetProviderModuleAdvEx.obj
 0001:00015600       ?_Myval@?$list@PAVCDynamicRegion@@V?$allocator@PAVCDynamicRegion@@@std@@@std@@KAAAPAVCDynamicRegion@@PAU_Node@?$_List_nod@PAVCDynamicRegion@@V?$allocator@PAVCDynamicRegion@@@std@@@2@@Z 00416600 f i GameObjects:RegionManager.obj
 0001:00015600       ?_Right@?$_Tree@V?$_Tmap_traits@KGU?$less@K@std@@V?$allocator@U?$pair@$$CBKG@std@@@2@$0A@@std@@@std@@KAAAPAU_Node@?$_Tree_nod@V?$_Tmap_traits@KGU?$less@K@std@@V?$allocator@U?$pair@$$CBKG@std@@@2@$0A@@std@@@2@PAU342@@Z 00416600 f i GameObjects:ExtraScriptFunctionsEx.obj
 0001:00015600       ?_Right@?$_Tree@V?$_Tmap_traits@V?$basic_string@DU?$char_traits@D@std@@V?$allocator@D@2@@std@@HU?$less@V?$basic_string@DU?$char_traits@D@std@@V?$allocator@D@2@@std@@@2@V?$allocator@U?$pair@$$CBV?$basic_string@DU?$char_traits@D@std@@V?$allocator@D@2@@std@@H@std@@@2@$0A@@std@@@std@@KAAAPAU_Node@?$_Tree_nod@V?$_Tmap_traits@V?$basic_string@DU?$char_traits@D@std@@V?$allocator@D@2@@std@@HU?$less@V?$basic_string@DU?$char_traits@D@std@@V?$allocator@D@2@@std@@@2@V?$allocator@U?$pair@$$CBV?$basic_string@DU?$char_traits@D@std@@V?$allocator@D@2@@std@@H@std@@@2@$0A@@std@@@2@PAU342@@Z 00416600 f i 区域服务器.obj
 0001:00015600       ?_Right@?$_Tree@V?$_Tmap_traits@V?$basic_string@DU?$char_traits@D@std@@V?$allocator@D@2@@std@@PAVBuffBase@@U?$less@V?$basic_string@DU?$char_traits@D@std@@V?$allocator@D@2@@std@@@2@V?$allocator@U?$pair@$$CBV?$basic_string@DU?$char_traits@D@std@@V?$allocator@D@2@@std@@PAVBuffBase@@@std@@@2@$0A@@std@@@std@@KAAAPAU_Node@?$_Tree_nod@V?$_Tmap_traits@V?$basic_string@DU?$char_traits@D@std@@V?$allocator@D@2@@std@@PAVBuffBase@@U?$less@V?$basic_string@DU?$char_traits@D@std@@V?$allocator@D@2@@std@@@2@V?$allocator@U?$pair@$$CBV?$basic_string@DU?$char_traits@D@std@@V?$allocator@D@2@@std@@PAVBuffBase@@@std@@@2@$0A@@std@@@2@PAU342@@Z 00416600 f i GameObjects:Player.obj
 0001:00015600       ?_Right@?$_Tree@V?$_Tmap_traits@K_KU?$less@K@std@@V?$allocator@U?$pair@$$CBK_K@std@@@2@$0A@@std@@@std@@KAAAPAU_Node@?$_Tree_nod@V?$_Tmap_traits@K_KU?$less@K@std@@V?$allocator@U?$pair@$$CBK_K@std@@@2@$0A@@std@@@2@PAU342@@Z 00416600 f i GameObjects:ScriptManager.obj
 0001:00015600       ?_Right@?$_Tree@V?$_Tmap_traits@GGU?$less@G@std@@V?$allocator@U?$pair@$$CBGG@std@@@2@$0A@@std@@@std@@KAAAPAU_Node@?$_Tree_nod@V?$_Tmap_traits@GGU?$less@G@std@@V?$allocator@U?$pair@$$CBGG@std@@@2@$0A@@std@@@2@PAU342@@Z 00416600 f i GameObjects:ExtraScriptFunctionsEx.obj
 0001:00015600       ?_Myval@?$list@USPackageItem@typedef_v6@@V?$allocator@USPackageItem@typedef_v6@@@std@@@std@@KAAAUSPackageItem@typedef_v6@@PAU_Node@?$_List_nod@USPackageItem@typedef_v6@@V?$allocator@USPackageItem@typedef_v6@@@std@@@2@@Z 00416600 f i GameObjects:ItemUser.obj
 0001:00015600       ?_Myval@?$list@Vlua_variant@lite@@V?$allocator@Vlua_variant@lite@@@std@@@std@@KAAAVlua_variant@lite@@PAU_Node@?$_List_nod@Vlua_variant@lite@@V?$allocator@Vlua_variant@lite@@@std@@@2@@Z 00416600 f i GameObjects:ScriptManager.obj
 0001:00015600       ?_Right@?$_Tree@V?$_Tmap_traits@HVCTrigger@@U?$less@H@std@@V?$allocator@U?$pair@$$CBHVCTrigger@@@std@@@3@$0A@@std@@@std@@KAAAPAU_Node@?$_Tree_nod@V?$_Tmap_traits@HVCTrigger@@U?$less@H@std@@V?$allocator@U?$pair@$$CBHVCTrigger@@@std@@@3@$0A@@std@@@2@PAU342@@Z 00416600 f i GameObjects:Region.obj
 0001:00015600       ?_Right@?$_Tree@V?$_Tmap_traits@KUSTraceOBJ@CFuncTrace@@U?$less@K@std@@V?$allocator@U?$pair@$$CBKUSTraceOBJ@CFuncTrace@@@std@@@4@$0A@@std@@@std@@KAAAPAU_Node@?$_Tree_nod@V?$_Tmap_traits@KUSTraceOBJ@CFuncTrace@@U?$less@K@std@@V?$allocator@U?$pair@$$CBKUSTraceOBJ@CFuncTrace@@@std@@@4@$0A@@std@@@2@PAU342@@Z 00416600 f i GameObjects:Player.obj
 0001:00015600       ?_Right@?$_Tree@V?$_Tmap_traits@GKU?$less@G@std@@V?$allocator@U?$pair@$$CBGK@std@@@2@$0A@@std@@@std@@KAAAPAU_Node@?$_Tree_nod@V?$_Tmap_traits@GKU?$less@G@std@@V?$allocator@U?$pair@$$CBGK@std@@@2@$0A@@std@@@2@PAU342@@Z 00416600 f i GameObjects:MonsterDrop.obj
 0001:00015600       ?_Right@?$_Tree@V?$_Tset_traits@KU?$less@K@std@@V?$allocator@K@2@$0A@@std@@@std@@KAAAPAU_Node@?$_Tree_nod@V?$_Tset_traits@KU?$less@K@std@@V?$allocator@K@2@$0A@@std@@@2@PAU342@@Z 00416600 f i GameObjects:ExtraScriptFunctions.obj
 0001:00015600       ?_Right@?$_Tree@V?$_Tmap_traits@V?$basic_string@DU?$char_traits@D@std@@V?$allocator@D@2@@std@@KU?$less@V?$basic_string@DU?$char_traits@D@std@@V?$allocator@D@2@@std@@@2@V?$allocator@U?$pair@$$CBV?$basic_string@DU?$char_traits@D@std@@V?$allocator@D@2@@std@@K@std@@@2@$0A@@std@@@std@@KAAAPAU_Node@?$_Tree_nod@V?$_Tmap_traits@V?$basic_string@DU?$char_traits@D@std@@V?$allocator@D@2@@std@@KU?$less@V?$basic_string@DU?$char_traits@D@std@@V?$allocator@D@2@@std@@@2@V?$allocator@U?$pair@$$CBV?$basic_string@DU?$char_traits@D@std@@V?$allocator@D@2@@std@@K@std@@@2@$0A@@std@@@2@PAU342@@Z 00416600 f i NetGMModule.obj
 0001:00015600       ?_Myval@?$list@U?$pair@V?$basic_string@DU?$char_traits@D@std@@V?$allocator@D@2@@std@@V?$SharedPtr@UEventBase@EventMgr@@@fge@@@std@@V?$fast_pool_allocator@U?$pair@V?$basic_string@DU?$char_traits@D@std@@V?$allocator@D@2@@std@@V?$SharedPtr@UEventBase@EventMgr@@@fge@@@std@@Udefault_user_allocator_new_delete@boost@@Vwin32_mutex@pool@details@4@$0CA@@boost@@@std@@KAAAU?$pair@V?$basic_string@DU?$char_traits@D@std@@V?$allocator@D@2@@std@@V?$SharedPtr@UEventBase@EventMgr@@@fge@@@2@PAU_Node@?$_List_nod@U?$pair@V?$basic_string@DU?$char_traits@D@std@@V?$allocator@D@2@@std@@V?$SharedPtr@UEventBase@EventMgr@@@fge@@@std@@V?$fast_pool_allocator@U?$pair@V?$basic_string@DU?$char_traits@D@std@@V?$allocator@D@2@@std@@V?$SharedPtr@UEventBase@EventMgr@@@fge@@@std@@Udefault_user_allocator_new_delete@boost@@Vwin32_mutex@pool@details@4@$0CA@@boost@@@2@@Z 00416600 f i GameObjects:EventManager.obj
 0001:00015600       ?_Right@?$_Tree@V?$_Tmap_traits@V?$stringkey@$$BY0BF@D@dwt@@KU?$less@V?$stringkey@$$BY0BF@D@dwt@@@std@@V?$allocator@U?$pair@$$CBV?$stringkey@$$BY0BF@D@dwt@@K@std@@@4@$0A@@std@@@std@@KAAAPAU_Node@?$_Tree_nod@V?$_Tmap_traits@V?$stringkey@$$BY0BF@D@dwt@@KU?$less@V?$stringkey@$$BY0BF@D@dwt@@@std@@V?$allocator@U?$pair@$$CBV?$stringkey@$$BY0BF@D@dwt@@K@std@@@4@$0A@@std@@@2@PAU342@@Z 00416600 f i GameObjects:GameWorld.obj
 0001:00015600       ?_Right@?$_Tree@V?$_Tmap_traits@V?$basic_string@DU?$char_traits@D@std@@V?$allocator@D@2@@std@@UCMD_FUNCDATA@StaticSingleton@@U?$less@V?$basic_string@DU?$char_traits@D@std@@V?$allocator@D@2@@std@@@2@V?$allocator@U?$pair@$$CBV?$basic_string@DU?$char_traits@D@std@@V?$allocator@D@2@@std@@UCMD_FUNCDATA@StaticSingleton@@@std@@@2@$0A@@std@@@std@@KAAAPAU_Node@?$_Tree_nod@V?$_Tmap_traits@V?$basic_string@DU?$char_traits@D@std@@V?$allocator@D@2@@std@@UCMD_FUNCDATA@StaticSingleton@@U?$less@V?$basic_string@DU?$char_traits@D@std@@V?$allocator@D@2@@std@@@2@V?$allocator@U?$pair@$$CBV?$basic_string@DU?$char_traits@D@std@@V?$allocator@D@2@@std@@UCMD_FUNCDATA@StaticSingleton@@@std@@@2@$0A@@std@@@2@PAU342@@Z 00416600 f i 区域服务器.obj
 0001:00015600       ?_Right@?$_Tree@V?$_Tmap_traits@UPath@ProfileManager@jex@@UNode@23@U?$less@UPath@ProfileManager@jex@@@std@@V?$allocator@U?$pair@$$CBUPath@ProfileManager@jex@@UNode@23@@std@@@6@$0A@@std@@@std@@KAAAPAU_Node@?$_Tree_nod@V?$_Tmap_traits@UPath@ProfileManager@jex@@UNode@23@U?$less@UPath@ProfileManager@jex@@@std@@V?$allocator@U?$pair@$$CBUPath@ProfileManager@jex@@UNode@23@@std@@@6@$0A@@std@@@2@PAU342@@Z 00416600 f i TimeProber.obj
 0001:00015600       ?_Right@?$_Tree@V?$_Tmap_traits@HV?$vector@USItemOddsTabledata@@V?$allocator@USItemOddsTabledata@@@std@@@std@@U?$less@H@2@V?$allocator@U?$pair@$$CBHV?$vector@USItemOddsTabledata@@V?$allocator@USItemOddsTabledata@@@std@@@std@@@std@@@2@$0A@@std@@@std@@KAAAPAU_Node@?$_Tree_nod@V?$_Tmap_traits@HV?$vector@USItemOddsTabledata@@V?$allocator@USItemOddsTabledata@@@std@@@std@@U?$less@H@2@V?$allocator@U?$pair@$$CBHV?$vector@USItemOddsTabledata@@V?$allocator@USItemOddsTabledata@@@std@@@std@@@std@@@2@$0A@@std@@@2@PAU342@@Z 00416600 f i GameObjects:ScriptManager.obj
 0001:00015600       ?_Myval@?$list@V?$basic_string@DU?$char_traits@D@std@@V?$allocator@D@2@@std@@V?$allocator@V?$basic_string@DU?$char_traits@D@std@@V?$allocator@D@2@@std@@@2@@std@@KAAAV?$basic_string@DU?$char_traits@D@std@@V?$allocator@D@2@@2@PAU_Node@?$_List_nod@V?$basic_string@DU?$char_traits@D@std@@V?$allocator@D@2@@std@@V?$allocator@V?$basic_string@DU?$char_traits@D@std@@V?$allocator@D@2@@std@@@2@@2@@Z 00416600 f i StdFrame.obj
 0001:00015600       ?_Right@?$_Tree@V?$_Tmap_traits@IV?$shared_ptr@VIObject@@@boost@@U?$less@I@std@@V?$allocator@U?$pair@$$CBIV?$shared_ptr@VIObject@@@boost@@@std@@@4@$0A@@std@@@std@@KAAAPAU_Node@?$_Tree_nod@V?$_Tmap_traits@IV?$shared_ptr@VIObject@@@boost@@U?$less@I@std@@V?$allocator@U?$pair@$$CBIV?$shared_ptr@VIObject@@@boost@@@std@@@4@$0A@@std@@@2@PAU342@@Z 00416600 f i GameObjects:Region.obj
 0001:00015600       ?_Myval@?$list@USRelatesBase@typedef_v6@@V?$allocator@USRelatesBase@typedef_v6@@@std@@@std@@KAAAUSRelatesBase@typedef_v6@@PAU_Node@?$_List_nod@USRelatesBase@typedef_v6@@V?$allocator@USRelatesBase@typedef_v6@@@std@@@2@@Z 00416600 f i GameObjects:Relation.obj
 0001:00015600       ?_Right@?$_Tree@V?$_Tmap_traits@GV?$map@KGU?$less@K@std@@V?$allocator@U?$pair@$$CBKG@std@@@2@@std@@U?$less@G@2@V?$allocator@U?$pair@$$CBGV?$map@KGU?$less@K@std@@V?$allocator@U?$pair@$$CBKG@std@@@2@@std@@@std@@@2@$0A@@std@@@std@@KAAAPAU_Node@?$_Tree_nod@V?$_Tmap_traits@GV?$map@KGU?$less@K@std@@V?$allocator@U?$pair@$$CBKG@std@@@2@@std@@U?$less@G@2@V?$allocator@U?$pair@$$CBGV?$map@KGU?$less@K@std@@V?$allocator@U?$pair@$$CBKG@std@@@2@@std@@@std@@@2@$0A@@std@@@2@PAU342@@Z 00416600 f i GameObjects:ExtraScriptFunctionsEx.obj
 0001:00015610       ??0_Node@?$_List_nod@V?$basic_string@DU?$char_traits@D@std@@V?$allocator@D@2@@std@@V?$allocator@V?$basic_string@DU?$char_traits@D@std@@V?$allocator@D@2@@std@@@2@@std@@QAE@PAU012@0ABV?$basic_string@DU?$char_traits@D@std@@V?$allocator@D@2@@2@@Z 00416610 f i StdFrame.obj
 0001:00015650       ?max_size@?$allocator@U?$pair@$$CBV?$basic_string@DU?$char_traits@D@std@@V?$allocator@D@2@@std@@UCMD_FUNCDATA@StaticSingleton@@@std@@@std@@QBEIXZ 00416650 f i StdFrame.obj
 0001:00015680       ??0_Node@?$_Tree_nod@V?$_Tmap_traits@V?$basic_string@DU?$char_traits@D@std@@V?$allocator@D@2@@std@@UCMD_FUNCDATA@StaticSingleton@@U?$less@V?$basic_string@DU?$char_traits@D@std@@V?$allocator@D@2@@std@@@2@V?$allocator@U?$pair@$$CBV?$basic_string@DU?$char_traits@D@std@@V?$allocator@D@2@@std@@UCMD_FUNCDATA@StaticSingleton@@@std@@@2@$0A@@std@@@std@@QAE@PAU012@00ABU?$pair@$$CBV?$basic_string@DU?$char_traits@D@std@@V?$allocator@D@2@@std@@UCMD_FUNCDATA@StaticSingleton@@@2@D@Z 00416680 f i StdFrame.obj
 0001:000156d0       ??0?$pair@$$CBV?$basic_string@DU?$char_traits@D@std@@V?$allocator@D@2@@std@@UCMD_FUNCDATA@StaticSingleton@@@std@@QAE@ABU01@@Z 004166d0 f i StdFrame.obj
 0001:00015730       ??$BeginThread_Ref@UWorkThread@@@ThreadWaiter@UGE@@QAEPAXAAUWorkThread@@@Z 00416730 f i StdFrame.obj
 0001:000157c0       ??$ThreadEntry_Ref@UWorkThread@@@ThreadWaiter@UGE@@CGIPAX@Z 004167c0 f i StdFrame.obj
 0001:000157e0       ??RWorkThread@@QAEHXZ      004167e0 f i StdFrame.obj
 0001:000158a0       ?Lock@TryCriticalLock@UGE@@QAEXXZ 004168a0 f i StdFrame.obj
 0001:000158d0       ??0Profiler@jex@@QAE@QBD@Z 004168d0 f   TimeProber.obj
 0001:00015960       ??1Profiler@jex@@QAE@XZ    00416960 f   TimeProber.obj
 0001:00015a00       ?PrintProfile@jex@@YAXK@Z  00416a00 f   TimeProber.obj
 0001:00015a20       ?Enable@jex@@YAX_N@Z       00416a20 f   TimeProber.obj
 0001:00015a40       ?IsEnable@jex@@YA_NXZ      00416a40 f   TimeProber.obj
 0001:00015a60       ?EnableTreeLog@jex@@YAX_N@Z 00416a60 f   TimeProber.obj
 0001:00015a80       ?EnableLogToFile@jex@@YAX_N@Z 00416a80 f   TimeProber.obj
 0001:00015aa0       ??0HistoryProfiler@jex@@QAE@PBD@Z 00416aa0 f   TimeProber.obj
 0001:00015ae0       ??1HistoryProfiler@jex@@QAE@XZ 00416ae0 f   TimeProber.obj
 0001:00015b30       ?Enable@HistoryProfiler@jex@@SAX_N@Z 00416b30 f   TimeProber.obj
 0001:00015b50       ?LogToFile@HistoryProfiler@jex@@SAXPBD@Z 00416b50 f   TimeProber.obj
 0001:00015b70       ?SetLimit@HistoryProfiler@jex@@SAXII@Z 00416b70 f   TimeProber.obj
 0001:00015b90       ?BeginFrame@HistoryProfiler@jex@@SAXXZ 00416b90 f   TimeProber.obj
 0001:00015bb0       ?EndFrame@HistoryProfiler@jex@@SAXXZ 00416bb0 f   TimeProber.obj
 0001:00015bd0       ?EnableLogEveryFrame@HistoryProfiler@jex@@SAX_N@Z 00416bd0 f   TimeProber.obj
 0001:00015bf0       ?getSingleton@ProfileManager@jex@@SAAAV12@XZ 00416bf0 f i TimeProber.obj
 0001:00015c60       ??0ProfileManager@jex@@QAE@XZ 00416c60 f i TimeProber.obj
 0001:00015ce0       ?IsEnable@ProfileManager@jex@@QAE_NXZ 00416ce0 f i TimeProber.obj
 0001:00015d00       ??1ProfileManager@jex@@QAE@XZ 00416d00 f i TimeProber.obj
 0001:00015d60       ??1?$map@UPath@ProfileManager@jex@@UNode@23@U?$less@UPath@ProfileManager@jex@@@std@@V?$allocator@U?$pair@$$CBUPath@ProfileManager@jex@@UNode@23@@std@@@6@@std@@QAE@XZ 00416d60 f i TimeProber.obj
 0001:00015d80       ??1?$map@V?$basic_string@DU?$char_traits@D@std@@V?$allocator@D@2@@std@@UNode@ProfileManager@jex@@U?$less@V?$basic_string@DU?$char_traits@D@std@@V?$allocator@D@2@@std@@@2@V?$allocator@U?$pair@$$CBV?$basic_string@DU?$char_traits@D@std@@V?$allocator@D@2@@std@@UNode@ProfileManager@jex@@@std@@@2@@std@@QAE@XZ 00416d80 f i TimeProber.obj
 0001:00015da0       ?Update@ProfileManager@jex@@QAEXPBUProfiler@2@_K@Z 00416da0 f i TimeProber.obj
 0001:00015f30       ?UpdateFrame@Node@ProfileManager@jex@@QAEXXZ 00416f30 f i TimeProber.obj
 0001:00015fd0       ??0Path@ProfileManager@jex@@QAE@PBUProfiler@2@@Z 00416fd0 f i TimeProber.obj
 0001:00016000       ??1Path@ProfileManager@jex@@QAE@XZ 00417000 f i TimeProber.obj
 0001:00016020       ?Print@ProfileManager@jex@@QAEXK@Z 00417020 f i TimeProber.obj
 0001:00016290       ?Log@ProfileManager@jex@@QAEXPBD@Z 00417290 f i TimeProber.obj
 0001:000162d0       ??0SortNode@ProfileManager@jex@@QAE@XZ 004172d0 f i TimeProber.obj
 0001:00016300       ?Insert@SortNode@ProfileManager@jex@@QAEXABUPath@23@AAUNode@23@@Z 00417300 f i TimeProber.obj
 0001:00016380       ?Print@SortNode@ProfileManager@jex@@QAEXKK@Z 00417380 f i TimeProber.obj
 0001:00016550       ??1SortNode@ProfileManager@jex@@QAE@XZ 00417550 f i TimeProber.obj
 0001:00016570       ??1?$map@PBDUSortNode@ProfileManager@jex@@U?$less@PBD@std@@V?$allocator@U?$pair@QBDUSortNode@ProfileManager@jex@@@std@@@5@@std@@QAE@XZ 00417570 f i TimeProber.obj
 0001:00016590       ?Enable@ProfileManager@jex@@QAEX_N@Z 00417590 f i TimeProber.obj
 0001:000165b0       ?EnableTreeLog@ProfileManager@jex@@QAEX_N@Z 004175b0 f i TimeProber.obj
 0001:000165d0       ?EnableLogToFile@ProfileManager@jex@@QAEX_N@Z 004175d0 f i TimeProber.obj
 0001:000165f0       ?Singleton@HistoryProfilerManager@jex@@SAAAV12@XZ 004175f0 f i TimeProber.obj
 0001:00016660       ??0HistoryProfilerManager@jex@@QAE@XZ 00417660 f i TimeProber.obj
 0001:000166d0       ?IsEnable@HistoryProfilerManager@jex@@QAE_NXZ 004176d0 f i TimeProber.obj
 0001:000166f0       ??1HistoryProfilerManager@jex@@QAE@XZ 004176f0 f i TimeProber.obj
 0001:00016740       ??1?$map@PBDV?$deque@KV?$allocator@K@std@@@std@@U?$less@PBD@2@V?$allocator@U?$pair@QBDV?$deque@KV?$allocator@K@std@@@std@@@std@@@2@@std@@QAE@XZ 00417740 f i TimeProber.obj
 0001:00016760       ?AddHistoryProfiler@HistoryProfilerManager@jex@@QAEXPBDK@Z 00417760 f i TimeProber.obj
 0001:000167b0       ?Enable@HistoryProfilerManager@jex@@QAEX_N@Z 004177b0 f i TimeProber.obj
 0001:000167d0       ?LogToFile@HistoryProfilerManager@jex@@QAEXPBD@Z 004177d0 f i TimeProber.obj
 0001:00016ac0       ?SetLimit@HistoryProfilerManager@jex@@QAEXII@Z 00417ac0 f i TimeProber.obj
 0001:00016ae0       ?BeginFrame@HistoryProfilerManager@jex@@QAEXXZ 00417ae0 f i TimeProber.obj
 0001:00016b10       ?EndFrame@HistoryProfilerManager@jex@@QAEXXZ 00417b10 f i TimeProber.obj
 0001:00016cc0       ??1?$pair@U_SYSTEMTIME@@V?$map@PBDV?$deque@KV?$allocator@K@std@@@std@@U?$less@PBD@2@V?$allocator@U?$pair@QBDV?$deque@KV?$allocator@K@std@@@std@@@std@@@2@@std@@@std@@QAE@XZ 00417cc0 f i TimeProber.obj
 0001:00016ce0       ?EnableLogEveryFrame@HistoryProfilerManager@jex@@QAEX_N@Z 00417ce0 f i TimeProber.obj
 0001:00016d00       ??0?$vector@PBDV?$allocator@PBD@std@@@std@@QAE@XZ 00417d00 f i TimeProber.obj
 0001:00016d30       ??A?$vector@PBDV?$allocator@PBD@std@@@std@@QBEABQBDI@Z 00417d30 f i TimeProber.obj
 0001:00016d70       ??0?$map@UPath@ProfileManager@jex@@UNode@23@U?$less@UPath@ProfileManager@jex@@@std@@V?$allocator@U?$pair@$$CBUPath@ProfileManager@jex@@UNode@23@@std@@@6@@std@@QAE@XZ 00417d70 f i TimeProber.obj
 0001:00016da0       ??A?$map@UPath@ProfileManager@jex@@UNode@23@U?$less@UPath@ProfileManager@jex@@@std@@V?$allocator@U?$pair@$$CBUPath@ProfileManager@jex@@UNode@23@@std@@@6@@std@@QAEAAUNode@ProfileManager@jex@@ABUPath@34@@Z 00417da0 f i TimeProber.obj
 0001:00016ea0       ??0Node@ProfileManager@jex@@QAE@XZ 00417ea0 f i TimeProber.obj
 0001:00016ec0       ??1?$_Tree@V?$_Tmap_traits@UPath@ProfileManager@jex@@UNode@23@U?$less@UPath@ProfileManager@jex@@@std@@V?$allocator@U?$pair@$$CBUPath@ProfileManager@jex@@UNode@23@@std@@@6@$0A@@std@@@std@@QAE@XZ 00417ec0 f i TimeProber.obj
 0001:00016ee0       ??0?$map@V?$basic_string@DU?$char_traits@D@std@@V?$allocator@D@2@@std@@UNode@ProfileManager@jex@@U?$less@V?$basic_string@DU?$char_traits@D@std@@V?$allocator@D@2@@std@@@2@V?$allocator@U?$pair@$$CBV?$basic_string@DU?$char_traits@D@std@@V?$allocator@D@2@@std@@UNode@ProfileManager@jex@@@std@@@2@@std@@QAE@XZ 00417ee0 f i TimeProber.obj
 0001:00016f10       ??A?$map@V?$basic_string@DU?$char_traits@D@std@@V?$allocator@D@2@@std@@UNode@ProfileManager@jex@@U?$less@V?$basic_string@DU?$char_traits@D@std@@V?$allocator@D@2@@std@@@2@V?$allocator@U?$pair@$$CBV?$basic_string@DU?$char_traits@D@std@@V?$allocator@D@2@@std@@UNode@ProfileManager@jex@@@std@@@2@@std@@QAEAAUNode@ProfileManager@jex@@ABV?$basic_string@DU?$char_traits@D@std@@V?$allocator@D@2@@1@@Z 00417f10 f i TimeProber.obj
 0001:00017010       ??1?$_Tree@V?$_Tmap_traits@V?$basic_string@DU?$char_traits@D@std@@V?$allocator@D@2@@std@@UNode@ProfileManager@jex@@U?$less@V?$basic_string@DU?$char_traits@D@std@@V?$allocator@D@2@@std@@@2@V?$allocator@U?$pair@$$CBV?$basic_string@DU?$char_traits@D@std@@V?$allocator@D@2@@std@@UNode@ProfileManager@jex@@@std@@@2@$0A@@std@@@std@@QAE@XZ 00418010 f i TimeProber.obj
 0001:00017030       ??0?$map@PBDUSortNode@ProfileManager@jex@@U?$less@PBD@std@@V?$allocator@U?$pair@QBDUSortNode@ProfileManager@jex@@@std@@@5@@std@@QAE@XZ 00418030 f i TimeProber.obj
 0001:00017060       ??A?$map@PBDUSortNode@ProfileManager@jex@@U?$less@PBD@std@@V?$allocator@U?$pair@QBDUSortNode@ProfileManager@jex@@@std@@@5@@std@@QAEAAUSortNode@ProfileManager@jex@@ABQBD@Z 00418060 f i TimeProber.obj
 0001:00017160       ??1?$_Tree@V?$_Tmap_traits@PBDUSortNode@ProfileManager@jex@@U?$less@PBD@std@@V?$allocator@U?$pair@QBDUSortNode@ProfileManager@jex@@@std@@@5@$0A@@std@@@std@@QAE@XZ 00418160 f i TimeProber.obj
 0001:00017180       ??Eiterator@?$_Tree@V?$_Tmap_traits@V?$basic_string@DU?$char_traits@D@std@@V?$allocator@D@2@@std@@UCMD_FUNCDATA@StaticSingleton@@U?$less@V?$basic_string@DU?$char_traits@D@std@@V?$allocator@D@2@@std@@@2@V?$allocator@U?$pair@$$CBV?$basic_string@DU?$char_traits@D@std@@V?$allocator@D@2@@std@@UCMD_FUNCDATA@StaticSingleton@@@std@@@2@$0A@@std@@@std@@QAE?AV012@H@Z 00418180 f i 区域服务器.obj
 0001:00017180       ??Eiterator@?$_Tree@V?$_Tmap_traits@UPath@ProfileManager@jex@@UNode@23@U?$less@UPath@ProfileManager@jex@@@std@@V?$allocator@U?$pair@$$CBUPath@ProfileManager@jex@@UNode@23@@std@@@6@$0A@@std@@@std@@QAE?AV012@H@Z 00418180 f i TimeProber.obj
 0001:000171b0       ??Eiterator@?$_Tree@V?$_Tmap_traits@V?$basic_string@DU?$char_traits@D@std@@V?$allocator@D@2@@std@@UNode@ProfileManager@jex@@U?$less@V?$basic_string@DU?$char_traits@D@std@@V?$allocator@D@2@@std@@@2@V?$allocator@U?$pair@$$CBV?$basic_string@DU?$char_traits@D@std@@V?$allocator@D@2@@std@@UNode@ProfileManager@jex@@@std@@@2@$0A@@std@@@std@@QAE?AV012@H@Z 004181b0 f i TimeProber.obj
 0001:000171e0       ??0?$deque@KV?$allocator@K@std@@@std@@QAE@XZ 004181e0 f i TimeProber.obj
 0001:000171e0       ??0?$deque@PAUSMoiler@@V?$allocator@PAUSMoiler@@@std@@@std@@QAE@XZ 004181e0 f i MoilWorker.obj
 0001:000171e0       ??0?$deque@PAUSNetServerPacket@@V?$allocator@PAUSNetServerPacket@@@std@@@std@@QAE@XZ 004181e0 f i NetProviderModuleEx:NetProviderModule.obj
 0001:000171e0       ??0?$deque@U?$pair@U_SYSTEMTIME@@V?$map@PBDV?$deque@KV?$allocator@K@std@@@std@@U?$less@PBD@2@V?$allocator@U?$pair@QBDV?$deque@KV?$allocator@K@std@@@std@@@std@@@2@@std@@@std@@V?$allocator@U?$pair@U_SYSTEMTIME@@V?$map@PBDV?$deque@KV?$allocator@K@std@@@std@@U?$less@PBD@2@V?$allocator@U?$pair@QBDV?$deque@KV?$allocator@K@std@@@std@@@std@@@2@@std@@@std@@@2@@std@@QAE@XZ 004181e0 f i TimeProber.obj
 0001:000171e0       ??0?$deque@PAXV?$allocator@PAX@std@@@std@@QAE@XZ 004181e0 f i MoilWorker.obj
 0001:000171e0       ??0?$deque@PAUSNetServerPacketAdvEx@@V?$allocator@PAUSNetServerPacketAdvEx@@@std@@@std@@QAE@XZ 004181e0 f i NetProviderModuleEx:NetProviderModuleAdvEx.obj
 0001:000171e0       ??0?$deque@PAUSNetClientPacket@@V?$allocator@PAUSNetClientPacket@@@std@@@std@@QAE@XZ 004181e0 f i NetConsumerModule:NetConsummerModule.obj
 0001:00017230       ??1?$deque@U?$pair@U_SYSTEMTIME@@V?$map@PBDV?$deque@KV?$allocator@K@std@@@std@@U?$less@PBD@2@V?$allocator@U?$pair@QBDV?$deque@KV?$allocator@K@std@@@std@@@std@@@2@@std@@@std@@V?$allocator@U?$pair@U_SYSTEMTIME@@V?$map@PBDV?$deque@KV?$allocator@K@std@@@std@@U?$less@PBD@2@V?$allocator@U?$pair@QBDV?$deque@KV?$allocator@K@std@@@std@@@std@@@2@@std@@@std@@@2@@std@@QAE@XZ 00418230 f i TimeProber.obj
 0001:00017250       ?end@?$deque@KV?$allocator@K@std@@@std@@QAE?AViterator@12@XZ 00418250 f i TimeProber.obj
 0001:00017250       ?end@?$deque@PAXV?$allocator@PAX@std@@@std@@QAE?AViterator@12@XZ 00418250 f i MoilWorker.obj
 0001:00017250       ?end@?$deque@U?$pair@U_SYSTEMTIME@@V?$map@PBDV?$deque@KV?$allocator@K@std@@@std@@U?$less@PBD@2@V?$allocator@U?$pair@QBDV?$deque@KV?$allocator@K@std@@@std@@@std@@@2@@std@@@std@@V?$allocator@U?$pair@U_SYSTEMTIME@@V?$map@PBDV?$deque@KV?$allocator@K@std@@@std@@U?$less@PBD@2@V?$allocator@U?$pair@QBDV?$deque@KV?$allocator@K@std@@@std@@@std@@@2@@std@@@std@@@2@@std@@QAE?AViterator@12@XZ 00418250 f i TimeProber.obj
 0001:00017280       ?pop_front@?$deque@U?$pair@U_SYSTEMTIME@@V?$map@PBDV?$deque@KV?$allocator@K@std@@@std@@U?$less@PBD@2@V?$allocator@U?$pair@QBDV?$deque@KV?$allocator@K@std@@@std@@@std@@@2@@std@@@std@@V?$allocator@U?$pair@U_SYSTEMTIME@@V?$map@PBDV?$deque@KV?$allocator@K@std@@@std@@U?$less@PBD@2@V?$allocator@U?$pair@QBDV?$deque@KV?$allocator@K@std@@@std@@@std@@@2@@std@@@std@@@2@@std@@QAEXXZ 00418280 f i TimeProber.obj
 0001:00017320       ?push_back@?$deque@U?$pair@U_SYSTEMTIME@@V?$map@PBDV?$deque@KV?$allocator@K@std@@@std@@U?$less@PBD@2@V?$allocator@U?$pair@QBDV?$deque@KV?$allocator@K@std@@@std@@@std@@@2@@std@@@std@@V?$allocator@U?$pair@U_SYSTEMTIME@@V?$map@PBDV?$deque@KV?$allocator@K@std@@@std@@U?$less@PBD@2@V?$allocator@U?$pair@QBDV?$deque@KV?$allocator@K@std@@@std@@@std@@@2@@std@@@std@@@2@@std@@QAEXABU?$pair@U_SYSTEMTIME@@V?$map@PBDV?$deque@KV?$allocator@K@std@@@std@@U?$less@PBD@2@V?$allocator@U?$pair@QBDV?$deque@KV?$allocator@K@std@@@std@@@std@@@2@@std@@@2@@Z 00418320 f i TimeProber.obj
 0001:00017400       ??0?$pair@U_SYSTEMTIME@@V?$map@PBDV?$deque@KV?$allocator@K@std@@@std@@U?$less@PBD@2@V?$allocator@U?$pair@QBDV?$deque@KV?$allocator@K@std@@@std@@@std@@@2@@std@@@std@@QAE@ABU_SYSTEMTIME@@ABV?$map@PBDV?$deque@KV?$allocator@K@std@@@std@@U?$less@PBD@2@V?$allocator@U?$pair@QBDV?$deque@KV?$allocator@K@std@@@std@@@std@@@2@@1@@Z 00418400 f i TimeProber.obj
 0001:00017440       ??0?$map@PBDV?$deque@KV?$allocator@K@std@@@std@@U?$less@PBD@2@V?$allocator@U?$pair@QBDV?$deque@KV?$allocator@K@std@@@std@@@std@@@2@@std@@QAE@XZ 00418440 f i TimeProber.obj
 0001:00017470       ??A?$map@PBDV?$deque@KV?$allocator@K@std@@@std@@U?$less@PBD@2@V?$allocator@U?$pair@QBDV?$deque@KV?$allocator@K@std@@@std@@@std@@@2@@std@@QAEAAV?$deque@KV?$allocator@K@std@@@1@ABQBD@Z 00418470 f i TimeProber.obj
 0001:00017570       ??1?$_Tree@V?$_Tmap_traits@PBDV?$deque@KV?$allocator@K@std@@@std@@U?$less@PBD@2@V?$allocator@U?$pair@QBDV?$deque@KV?$allocator@K@std@@@std@@@std@@@2@$0A@@std@@@std@@QAE@XZ 00418570 f i TimeProber.obj
 0001:00017590       ?clear@?$_Tree@V?$_Tmap_traits@PBDV?$deque@KV?$allocator@K@std@@@std@@U?$less@PBD@2@V?$allocator@U?$pair@QBDV?$deque@KV?$allocator@K@std@@@std@@@std@@@2@$0A@@std@@@std@@QAEXXZ 00418590 f i TimeProber.obj
 0001:000175f0       ?push_back@?$deque@KV?$allocator@K@std@@@std@@QAEXABK@Z 004185f0 f i TimeProber.obj
 0001:000176d0       ??Citerator@?$deque@U?$pair@U_SYSTEMTIME@@V?$map@PBDV?$deque@KV?$allocator@K@std@@@std@@U?$less@PBD@2@V?$allocator@U?$pair@QBDV?$deque@KV?$allocator@K@std@@@std@@@std@@@2@@std@@@std@@V?$allocator@U?$pair@U_SYSTEMTIME@@V?$map@PBDV?$deque@KV?$allocator@K@std@@@std@@U?$less@PBD@2@V?$allocator@U?$pair@QBDV?$deque@KV?$allocator@K@std@@@std@@@std@@@2@@std@@@std@@@2@@std@@QBEPAU?$pair@U_SYSTEMTIME@@V?$map@PBDV?$deque@KV?$allocator@K@std@@@std@@U?$less@PBD@2@V?$allocator@U?$pair@QBDV?$deque@KV?$allocator@K@std@@@std@@@std@@@2@@std@@@2@XZ 004186d0 f i TimeProber.obj
 0001:000176f0       ??Eiterator@?$deque@U?$pair@U_SYSTEMTIME@@V?$map@PBDV?$deque@KV?$allocator@K@std@@@std@@U?$less@PBD@2@V?$allocator@U?$pair@QBDV?$deque@KV?$allocator@K@std@@@std@@@std@@@2@@std@@@std@@V?$allocator@U?$pair@U_SYSTEMTIME@@V?$map@PBDV?$deque@KV?$allocator@K@std@@@std@@U?$less@PBD@2@V?$allocator@U?$pair@QBDV?$deque@KV?$allocator@K@std@@@std@@@std@@@2@@std@@@std@@@2@@std@@QAEAAV012@XZ 004186f0 f i TimeProber.obj
 0001:000176f0       ??Econst_iterator@?$deque@KV?$allocator@K@std@@@std@@QAEAAV012@XZ 004186f0 f i TimeProber.obj
 0001:000176f0       ??Eiterator@?$deque@KV?$allocator@K@std@@@std@@QAEAAV012@XZ 004186f0 f i TimeProber.obj
 0001:00017710       ??Eiterator@?$_Tree@V?$_Tmap_traits@PBDV?$deque@KV?$allocator@K@std@@@std@@U?$less@PBD@2@V?$allocator@U?$pair@QBDV?$deque@KV?$allocator@K@std@@@std@@@std@@@2@$0A@@std@@@std@@QAEAAV012@XZ 00418710 f i TimeProber.obj
 0001:00017730       ??9const_iterator@?$deque@U?$pair@U_SYSTEMTIME@@V?$map@PBDV?$deque@KV?$allocator@K@std@@@std@@U?$less@PBD@2@V?$allocator@U?$pair@QBDV?$deque@KV?$allocator@K@std@@@std@@@std@@@2@@std@@@std@@V?$allocator@U?$pair@U_SYSTEMTIME@@V?$map@PBDV?$deque@KV?$allocator@K@std@@@std@@U?$less@PBD@2@V?$allocator@U?$pair@QBDV?$deque@KV?$allocator@K@std@@@std@@@std@@@2@@std@@@std@@@2@@std@@QBE_NABV012@@Z 00418730 f i TimeProber.obj
 0001:00017730       ??9const_iterator@?$deque@KV?$allocator@K@std@@@std@@QBE_NABV012@@Z 00418730 f i TimeProber.obj
 0001:00017760       ??1?$pair@$$CBUPath@ProfileManager@jex@@UNode@23@@std@@QAE@XZ 00418760 f i TimeProber.obj
 0001:00017780       ??1?$pair@QBDUSortNode@ProfileManager@jex@@@std@@QAE@XZ 00418780 f i TimeProber.obj
 0001:000177a0       ??0?$map@PBDV?$deque@KV?$allocator@K@std@@@std@@U?$less@PBD@2@V?$allocator@U?$pair@QBDV?$deque@KV?$allocator@K@std@@@std@@@std@@@2@@std@@QAE@ABV01@@Z 004187a0 f i TimeProber.obj
 0001:000177c0       ??1?$pair@QBDV?$deque@KV?$allocator@K@std@@@std@@@std@@QAE@XZ 004187c0 f i TimeProber.obj
 0001:000177e0       ?_Buy@?$vector@PBDV?$allocator@PBD@std@@@std@@IAE_NI@Z 004187e0 f i TimeProber.obj
 0001:00017860       ??0?$_Tree@V?$_Tmap_traits@UPath@ProfileManager@jex@@UNode@23@U?$less@UPath@ProfileManager@jex@@@std@@V?$allocator@U?$pair@$$CBUPath@ProfileManager@jex@@UNode@23@@std@@@6@$0A@@std@@@std@@QAE@ABU?$less@UPath@ProfileManager@jex@@@1@ABV?$allocator@U?$pair@$$CBUPath@ProfileManager@jex@@UNode@23@@std@@@1@@Z 00418860 f i TimeProber.obj
 0001:000178a0       ?insert@?$_Tree@V?$_Tmap_traits@UPath@ProfileManager@jex@@UNode@23@U?$less@UPath@ProfileManager@jex@@@std@@V?$allocator@U?$pair@$$CBUPath@ProfileManager@jex@@UNode@23@@std@@@6@$0A@@std@@@std@@QAE?AViterator@12@V312@ABU?$pair@$$CBUPath@ProfileManager@jex@@UNode@23@@2@@Z 004188a0 f i TimeProber.obj
 0001:00017e70       ?lower_bound@?$_Tree@V?$_Tmap_traits@UPath@ProfileManager@jex@@UNode@23@U?$less@UPath@ProfileManager@jex@@@std@@V?$allocator@U?$pair@$$CBUPath@ProfileManager@jex@@UNode@23@@std@@@6@$0A@@std@@@std@@QAE?AViterator@12@ABUPath@ProfileManager@jex@@@Z 00418e70 f i TimeProber.obj
 0001:00017ea0       ?_Tidy@?$_Tree@V?$_Tmap_traits@UPath@ProfileManager@jex@@UNode@23@U?$less@UPath@ProfileManager@jex@@@std@@V?$allocator@U?$pair@$$CBUPath@ProfileManager@jex@@UNode@23@@std@@@6@$0A@@std@@@std@@IAEXXZ 00418ea0 f i TimeProber.obj
 0001:00017f50       ??R?$less@UPath@ProfileManager@jex@@@std@@QBE_NABUPath@ProfileManager@jex@@0@Z 00418f50 f i TimeProber.obj
 0001:00017f70       ??MPath@ProfileManager@jex@@QBE_NABU012@@Z 00418f70 f i TimeProber.obj
 0001:00018030       ?end@?$vector@PAU_tagXMLNode@@V?$allocator@PAU_tagXMLNode@@@std@@@std@@QBE?AVconst_iterator@12@XZ 00419030 f i GameObjects:BuffBaseData.obj
 0001:00018030       ?end@?$vector@PAU_tagXMLAttr@@V?$allocator@PAU_tagXMLAttr@@@std@@@std@@QBE?AVconst_iterator@12@XZ 00419030 f i GameObjects:BuffBaseData.obj
 0001:00018030       ?end@?$vector@PBDV?$allocator@PBD@std@@@std@@QBE?AVconst_iterator@12@XZ 00419030 f i TimeProber.obj
 0001:00018030       ?end@?$vector@USItemOddsTabledata@@V?$allocator@USItemOddsTabledata@@@std@@@std@@QBE?AVconst_iterator@12@XZ 00419030 f i GameObjects:DynDropTable.obj
 0001:00018050       ??0?$_Tree@V?$_Tmap_traits@V?$basic_string@DU?$char_traits@D@std@@V?$allocator@D@2@@std@@UNode@ProfileManager@jex@@U?$less@V?$basic_string@DU?$char_traits@D@std@@V?$allocator@D@2@@std@@@2@V?$allocator@U?$pair@$$CBV?$basic_string@DU?$char_traits@D@std@@V?$allocator@D@2@@std@@UNode@ProfileManager@jex@@@std@@@2@$0A@@std@@@std@@QAE@ABU?$less@V?$basic_string@DU?$char_traits@D@std@@V?$allocator@D@2@@std@@@1@ABV?$allocator@U?$pair@$$CBV?$basic_string@DU?$char_traits@D@std@@V?$allocator@D@2@@std@@UNode@ProfileManager@jex@@@std@@@1@@Z 00419050 f i TimeProber.obj
 0001:00018090       ?insert@?$_Tree@V?$_Tmap_traits@V?$basic_string@DU?$char_traits@D@std@@V?$allocator@D@2@@std@@UNode@ProfileManager@jex@@U?$less@V?$basic_string@DU?$char_traits@D@std@@V?$allocator@D@2@@std@@@2@V?$allocator@U?$pair@$$CBV?$basic_string@DU?$char_traits@D@std@@V?$allocator@D@2@@std@@UNode@ProfileManager@jex@@@std@@@2@$0A@@std@@@std@@QAE?AViterator@12@V312@ABU?$pair@$$CBV?$basic_string@DU?$char_traits@D@std@@V?$allocator@D@2@@std@@UNode@ProfileManager@jex@@@2@@Z 00419090 f i TimeProber.obj
 0001:00018660       ?lower_bound@?$_Tree@V?$_Tmap_traits@V?$basic_string@DU?$char_traits@D@std@@V?$allocator@D@2@@std@@UNode@ProfileManager@jex@@U?$less@V?$basic_string@DU?$char_traits@D@std@@V?$allocator@D@2@@std@@@2@V?$allocator@U?$pair@$$CBV?$basic_string@DU?$char_traits@D@std@@V?$allocator@D@2@@std@@UNode@ProfileManager@jex@@@std@@@2@$0A@@std@@@std@@QAE?AViterator@12@ABV?$basic_string@DU?$char_traits@D@std@@V?$allocator@D@2@@2@@Z 00419660 f i TimeProber.obj
 0001:00018690       ?_Tidy@?$_Tree@V?$_Tmap_traits@V?$basic_string@DU?$char_traits@D@std@@V?$allocator@D@2@@std@@UNode@ProfileManager@jex@@U?$less@V?$basic_string@DU?$char_traits@D@std@@V?$allocator@D@2@@std@@@2@V?$allocator@U?$pair@$$CBV?$basic_string@DU?$char_traits@D@std@@V?$allocator@D@2@@std@@UNode@ProfileManager@jex@@@std@@@2@$0A@@std@@@std@@IAEXXZ 00419690 f i TimeProber.obj
 0001:00018740       ??0?$_Tree@V?$_Tmap_traits@PBDUSortNode@ProfileManager@jex@@U?$less@PBD@std@@V?$allocator@U?$pair@QBDUSortNode@ProfileManager@jex@@@std@@@5@$0A@@std@@@std@@QAE@ABU?$less@PBD@1@ABV?$allocator@U?$pair@QBDUSortNode@ProfileManager@jex@@@std@@@1@@Z 00419740 f i TimeProber.obj
 0001:00018780       ?insert@?$_Tree@V?$_Tmap_traits@PBDUSortNode@ProfileManager@jex@@U?$less@PBD@std@@V?$allocator@U?$pair@QBDUSortNode@ProfileManager@jex@@@std@@@5@$0A@@std@@@std@@QAE?AViterator@12@V312@ABU?$pair@QBDUSortNode@ProfileManager@jex@@@2@@Z 00419780 f i TimeProber.obj
 0001:00018d50       ?lower_bound@?$_Tree@V?$_Tmap_traits@PBDUSortNode@ProfileManager@jex@@U?$less@PBD@std@@V?$allocator@U?$pair@QBDUSortNode@ProfileManager@jex@@@std@@@5@$0A@@std@@@std@@QAE?AViterator@12@ABQBD@Z 00419d50 f i TimeProber.obj
 0001:00018d80       ?_Tidy@?$_Tree@V?$_Tmap_traits@PBDUSortNode@ProfileManager@jex@@U?$less@PBD@std@@V?$allocator@U?$pair@QBDUSortNode@ProfileManager@jex@@@std@@@5@$0A@@std@@@std@@IAEXXZ 00419d80 f i TimeProber.obj
 0001:00018e30       ??0?$pair@$$CBUPath@ProfileManager@jex@@UNode@23@@std@@QAE@ABUPath@ProfileManager@jex@@ABUNode@34@@Z 00419e30 f i TimeProber.obj
 0001:00018e60       ??0Path@ProfileManager@jex@@QAE@ABU012@@Z 00419e60 f i TimeProber.obj
 0001:00018f00       ??4?$vector@PBDV?$allocator@PBD@std@@@std@@QAEAAV01@ABV01@@Z 00419f00 f i TimeProber.obj
 0001:00019080       ?push_back@?$vector@PBDV?$allocator@PBD@std@@@std@@QAEXABQBD@Z 0041a080 f i TimeProber.obj
 0001:000190f0       ?insert@?$vector@PBDV?$allocator@PBD@std@@@std@@QAE?AViterator@12@V312@ABQBD@Z 0041a0f0 f i TimeProber.obj
 0001:00019170       ??Eiterator@?$_Tree@V?$_Tmap_traits@V?$basic_string@DU?$char_traits@D@std@@V?$allocator@D@2@@std@@UNode@ProfileManager@jex@@U?$less@V?$basic_string@DU?$char_traits@D@std@@V?$allocator@D@2@@std@@@2@V?$allocator@U?$pair@$$CBV?$basic_string@DU?$char_traits@D@std@@V?$allocator@D@2@@std@@UNode@ProfileManager@jex@@@std@@@2@$0A@@std@@@std@@QAEAAV012@XZ 0041a170 f i TimeProber.obj
 0001:00019190       ??0?$pair@$$CBV?$basic_string@DU?$char_traits@D@std@@V?$allocator@D@2@@std@@UNode@ProfileManager@jex@@@std@@QAE@ABV?$basic_string@DU?$char_traits@D@std@@V?$allocator@D@2@@1@ABUNode@ProfileManager@jex@@@Z 0041a190 f i TimeProber.obj
 0001:000191d0       ??0?$pair@QBDUSortNode@ProfileManager@jex@@@std@@QAE@ABQBDABUSortNode@ProfileManager@jex@@@Z 0041a1d0 f i TimeProber.obj
 0001:00019200       ?_Growmap@?$deque@U?$pair@U_SYSTEMTIME@@V?$map@PBDV?$deque@KV?$allocator@K@std@@@std@@U?$less@PBD@2@V?$allocator@U?$pair@QBDV?$deque@KV?$allocator@K@std@@@std@@@std@@@2@@std@@@std@@V?$allocator@U?$pair@U_SYSTEMTIME@@V?$map@PBDV?$deque@KV?$allocator@K@std@@@std@@U?$less@PBD@2@V?$allocator@U?$pair@QBDV?$deque@KV?$allocator@K@std@@@std@@@std@@@2@@std@@@std@@@2@@std@@IAEXI@Z 0041a200 f i TimeProber.obj
 0001:00019400       ?_Tidy@?$deque@U?$pair@U_SYSTEMTIME@@V?$map@PBDV?$deque@KV?$allocator@K@std@@@std@@U?$less@PBD@2@V?$allocator@U?$pair@QBDV?$deque@KV?$allocator@K@std@@@std@@@std@@@2@@std@@@std@@V?$allocator@U?$pair@U_SYSTEMTIME@@V?$map@PBDV?$deque@KV?$allocator@K@std@@@std@@U?$less@PBD@2@V?$allocator@U?$pair@QBDV?$deque@KV?$allocator@K@std@@@std@@@std@@@2@@std@@@std@@@2@@std@@IAEXXZ 0041a400 f i TimeProber.obj
 0001:000194c0       ?construct@?$allocator@U?$pair@U_SYSTEMTIME@@V?$map@PBDV?$deque@KV?$allocator@K@std@@@std@@U?$less@PBD@2@V?$allocator@U?$pair@QBDV?$deque@KV?$allocator@K@std@@@std@@@std@@@2@@std@@@std@@@std@@QAEXPAU?$pair@U_SYSTEMTIME@@V?$map@PBDV?$deque@KV?$allocator@K@std@@@std@@U?$less@PBD@2@V?$allocator@U?$pair@QBDV?$deque@KV?$allocator@K@std@@@std@@@std@@@2@@std@@@2@ABU32@@Z 0041a4c0 f i TimeProber.obj
 0001:000194e0       ?destroy@?$allocator@U?$pair@U_SYSTEMTIME@@V?$map@PBDV?$deque@KV?$allocator@K@std@@@std@@U?$less@PBD@2@V?$allocator@U?$pair@QBDV?$deque@KV?$allocator@K@std@@@std@@@std@@@2@@std@@@std@@@std@@QAEXPAU?$pair@U_SYSTEMTIME@@V?$map@PBDV?$deque@KV?$allocator@K@std@@@std@@U?$less@PBD@2@V?$allocator@U?$pair@QBDV?$deque@KV?$allocator@K@std@@@std@@@std@@@2@@std@@@2@@Z 0041a4e0 f i TimeProber.obj
 0001:00019500       ??0?$_Tree@V?$_Tmap_traits@PBDV?$deque@KV?$allocator@K@std@@@std@@U?$less@PBD@2@V?$allocator@U?$pair@QBDV?$deque@KV?$allocator@K@std@@@std@@@std@@@2@$0A@@std@@@std@@QAE@ABU?$less@PBD@1@ABV?$allocator@U?$pair@QBDV?$deque@KV?$allocator@K@std@@@std@@@std@@@1@@Z 0041a500 f i TimeProber.obj
 0001:00019540       ??0?$_Tree@V?$_Tmap_traits@PBDV?$deque@KV?$allocator@K@std@@@std@@U?$less@PBD@2@V?$allocator@U?$pair@QBDV?$deque@KV?$allocator@K@std@@@std@@@std@@@2@$0A@@std@@@std@@QAE@ABV01@@Z 0041a540 f i TimeProber.obj
 0001:000195e0       ?insert@?$_Tree@V?$_Tmap_traits@PBDV?$deque@KV?$allocator@K@std@@@std@@U?$less@PBD@2@V?$allocator@U?$pair@QBDV?$deque@KV?$allocator@K@std@@@std@@@std@@@2@$0A@@std@@@std@@QAE?AViterator@12@V312@ABU?$pair@QBDV?$deque@KV?$allocator@K@std@@@std@@@2@@Z 0041a5e0 f i TimeProber.obj
 0001:00019bb0       ?lower_bound@?$_Tree@V?$_Tmap_traits@PBDV?$deque@KV?$allocator@K@std@@@std@@U?$less@PBD@2@V?$allocator@U?$pair@QBDV?$deque@KV?$allocator@K@std@@@std@@@std@@@2@$0A@@std@@@std@@QAE?AViterator@12@ABQBD@Z 0041abb0 f i TimeProber.obj
 0001:00019be0       ?_Erase@?$_Tree@V?$_Tmap_traits@PBDV?$deque@KV?$allocator@K@std@@@std@@U?$less@PBD@2@V?$allocator@U?$pair@QBDV?$deque@KV?$allocator@K@std@@@std@@@std@@@2@$0A@@std@@@std@@IAEXPAU_Node@?$_Tree_nod@V?$_Tmap_traits@PBDV?$deque@KV?$allocator@K@std@@@std@@U?$less@PBD@2@V?$allocator@U?$pair@QBDV?$deque@KV?$allocator@K@std@@@std@@@std@@@2@$0A@@std@@@2@@Z 0041abe0 f i TimeProber.obj
 0001:00019c60       ?_Tidy@?$_Tree@V?$_Tmap_traits@PBDV?$deque@KV?$allocator@K@std@@@std@@U?$less@PBD@2@V?$allocator@U?$pair@QBDV?$deque@KV?$allocator@K@std@@@std@@@std@@@2@$0A@@std@@@std@@IAEXXZ 0041ac60 f i TimeProber.obj
 0001:00019d10       ?_Growmap@?$deque@KV?$allocator@K@std@@@std@@IAEXI@Z 0041ad10 f i TimeProber.obj
 0001:00019f20       ??Diterator@?$deque@U?$pair@U_SYSTEMTIME@@V?$map@PBDV?$deque@KV?$allocator@K@std@@@std@@U?$less@PBD@2@V?$allocator@U?$pair@QBDV?$deque@KV?$allocator@K@std@@@std@@@std@@@2@@std@@@std@@V?$allocator@U?$pair@U_SYSTEMTIME@@V?$map@PBDV?$deque@KV?$allocator@K@std@@@std@@U?$less@PBD@2@V?$allocator@U?$pair@QBDV?$deque@KV?$allocator@K@std@@@std@@@std@@@2@@std@@@std@@@2@@std@@QBEAAU?$pair@U_SYSTEMTIME@@V?$map@PBDV?$deque@KV?$allocator@K@std@@@std@@U?$less@PBD@2@V?$allocator@U?$pair@QBDV?$deque@KV?$allocator@K@std@@@std@@@std@@@2@@std@@@2@XZ 0041af20 f i TimeProber.obj
 0001:00019f40       ??8const_iterator@?$deque@KV?$allocator@K@std@@@std@@QBE_NABV012@@Z 0041af40 f i TimeProber.obj
 0001:00019f40       ??8const_iterator@?$deque@U?$pair@U_SYSTEMTIME@@V?$map@PBDV?$deque@KV?$allocator@K@std@@@std@@U?$less@PBD@2@V?$allocator@U?$pair@QBDV?$deque@KV?$allocator@K@std@@@std@@@std@@@2@@std@@@std@@V?$allocator@U?$pair@U_SYSTEMTIME@@V?$map@PBDV?$deque@KV?$allocator@K@std@@@std@@U?$less@PBD@2@V?$allocator@U?$pair@QBDV?$deque@KV?$allocator@K@std@@@std@@@std@@@2@@std@@@std@@@2@@std@@QBE_NABV012@@Z 0041af40 f i TimeProber.obj
 0001:00019f80       ??Econst_iterator@?$_Tree@V?$_Tmap_traits@PBDV?$deque@KV?$allocator@K@std@@@std@@U?$less@PBD@2@V?$allocator@U?$pair@QBDV?$deque@KV?$allocator@K@std@@@std@@@std@@@2@$0A@@std@@@std@@QAEAAV012@XZ 0041af80 f i TimeProber.obj
 0001:00019fa0       ??0?$pair@QBDV?$deque@KV?$allocator@K@std@@@std@@@std@@QAE@ABQBDABV?$deque@KV?$allocator@K@std@@@1@@Z 0041afa0 f i TimeProber.obj
 0001:00019fd0       ??Dconst_iterator@?$deque@PAUSNetClientPacket@@V?$allocator@PAUSNetClientPacket@@@std@@@std@@QBEABQAUSNetClientPacket@@XZ 0041afd0 f i NetConsumerModule:NetConsummerModule.obj
 0001:00019fd0       ??Dconst_iterator@?$deque@PAUSNetServerPacketAdvEx@@V?$allocator@PAUSNetServerPacketAdvEx@@@std@@@std@@QBEABQAUSNetServerPacketAdvEx@@XZ 0041afd0 f i NetProviderModuleEx:NetProviderModuleAdvEx.obj
 0001:00019fd0       ??Dconst_iterator@?$deque@PAXV?$allocator@PAX@std@@@std@@QBEABQAXXZ 0041afd0 f i MoilWorker.obj
 0001:00019fd0       ??Dconst_iterator@?$deque@KV?$allocator@K@std@@@std@@QBEABKXZ 0041afd0 f i TimeProber.obj
 0001:00019fd0       ??Dconst_iterator@?$deque@PAUSMoiler@@V?$allocator@PAUSMoiler@@@std@@@std@@QBEABQAUSMoiler@@XZ 0041afd0 f i MoilWorker.obj
 0001:00019fd0       ??Dconst_iterator@?$deque@PAUSNetServerPacket@@V?$allocator@PAUSNetServerPacket@@@std@@@std@@QBEABQAUSNetServerPacket@@XZ 0041afd0 f i NetProviderModuleEx:NetProviderModule.obj
 0001:0001a030       ??0SortNode@ProfileManager@jex@@QAE@ABU012@@Z 0041b030 f i TimeProber.obj
 0001:0001a060       ??0?$map@PBDUSortNode@ProfileManager@jex@@U?$less@PBD@std@@V?$allocator@U?$pair@QBDUSortNode@ProfileManager@jex@@@std@@@5@@std@@QAE@ABV01@@Z 0041b060 f i TimeProber.obj
 0001:0001a080       ?_Insert_n@?$vector@PBDV?$allocator@PBD@std@@@std@@IAEXViterator@12@IABQBD@Z 0041b080 f i TimeProber.obj
 0001:0001a3a0       ?_Xlen@?$vector@PBDV?$allocator@PBD@std@@@std@@IBEXXZ 0041b3a0 f i TimeProber.obj
 0001:0001a400       ?insert@?$_Tree@V?$_Tmap_traits@UPath@ProfileManager@jex@@UNode@23@U?$less@UPath@ProfileManager@jex@@@std@@V?$allocator@U?$pair@$$CBUPath@ProfileManager@jex@@UNode@23@@std@@@6@$0A@@std@@@std@@QAE?AU?$pair@Viterator@?$_Tree@V?$_Tmap_traits@UPath@ProfileManager@jex@@UNode@23@U?$less@UPath@ProfileManager@jex@@@std@@V?$allocator@U?$pair@$$CBUPath@ProfileManager@jex@@UNode@23@@std@@@6@$0A@@std@@@std@@_N@2@ABU?$pair@$$CBUPath@ProfileManager@jex@@UNode@23@@2@@Z 0041b400 f i TimeProber.obj
 0001:0001a5b0       ?erase@?$_Tree@V?$_Tmap_traits@UPath@ProfileManager@jex@@UNode@23@U?$less@UPath@ProfileManager@jex@@@std@@V?$allocator@U?$pair@$$CBUPath@ProfileManager@jex@@UNode@23@@std@@@6@$0A@@std@@@std@@QAE?AViterator@12@V312@0@Z 0041b5b0 f i TimeProber.obj
 0001:0001a650       ?_Init@?$_Tree@V?$_Tmap_traits@UPath@ProfileManager@jex@@UNode@23@U?$less@UPath@ProfileManager@jex@@@std@@V?$allocator@U?$pair@$$CBUPath@ProfileManager@jex@@UNode@23@@std@@@6@$0A@@std@@@std@@IAEXXZ 0041b650 f i TimeProber.obj
 0001:0001a6c0       ?_Insert@?$_Tree@V?$_Tmap_traits@UPath@ProfileManager@jex@@UNode@23@U?$less@UPath@ProfileManager@jex@@@std@@V?$allocator@U?$pair@$$CBUPath@ProfileManager@jex@@UNode@23@@std@@@6@$0A@@std@@@std@@IAE?AViterator@12@_NPAU_Node@?$_Tree_nod@V?$_Tmap_traits@UPath@ProfileManager@jex@@UNode@23@U?$less@UPath@ProfileManager@jex@@@std@@V?$allocator@U?$pair@$$CBUPath@ProfileManager@jex@@UNode@23@@std@@@6@$0A@@std@@@2@ABU?$pair@$$CBUPath@ProfileManager@jex@@UNode@23@@2@@Z 0041b6c0 f i TimeProber.obj
 0001:0001ab20       ?_Lbound@?$_Tree@V?$_Tmap_traits@UPath@ProfileManager@jex@@UNode@23@U?$less@UPath@ProfileManager@jex@@@std@@V?$allocator@U?$pair@$$CBUPath@ProfileManager@jex@@UNode@23@@std@@@6@$0A@@std@@@std@@IBEPAU_Node@?$_Tree_nod@V?$_Tmap_traits@UPath@ProfileManager@jex@@UNode@23@U?$less@UPath@ProfileManager@jex@@@std@@V?$allocator@U?$pair@$$CBUPath@ProfileManager@jex@@UNode@23@@std@@@6@$0A@@std@@@2@ABUPath@ProfileManager@jex@@@Z 0041bb20 f i TimeProber.obj
 0001:0001abb0       ?_Isnil@?$_Tree@V?$_Tmap_traits@V?$basic_string@DU?$char_traits@D@std@@V?$allocator@D@2@@std@@UNode@ProfileManager@jex@@U?$less@V?$basic_string@DU?$char_traits@D@std@@V?$allocator@D@2@@std@@@2@V?$allocator@U?$pair@$$CBV?$basic_string@DU?$char_traits@D@std@@V?$allocator@D@2@@std@@UNode@ProfileManager@jex@@@std@@@2@$0A@@std@@@std@@KAAADPAU_Node@?$_Tree_nod@V?$_Tmap_traits@V?$basic_string@DU?$char_traits@D@std@@V?$allocator@D@2@@std@@UNode@ProfileManager@jex@@U?$less@V?$basic_string@DU?$char_traits@D@std@@V?$allocator@D@2@@std@@@2@V?$allocator@U?$pair@$$CBV?$basic_string@DU?$char_traits@D@std@@V?$allocator@D@2@@std@@UNode@ProfileManager@jex@@@std@@@2@$0A@@std@@@2@@Z 0041bbb0 f i TimeProber.obj
 0001:0001abc0       ?insert@?$_Tree@V?$_Tmap_traits@V?$basic_string@DU?$char_traits@D@std@@V?$allocator@D@2@@std@@UNode@ProfileManager@jex@@U?$less@V?$basic_string@DU?$char_traits@D@std@@V?$allocator@D@2@@std@@@2@V?$allocator@U?$pair@$$CBV?$basic_string@DU?$char_traits@D@std@@V?$allocator@D@2@@std@@UNode@ProfileManager@jex@@@std@@@2@$0A@@std@@@std@@QAE?AU?$pair@Viterator@?$_Tree@V?$_Tmap_traits@V?$basic_string@DU?$char_traits@D@std@@V?$allocator@D@2@@std@@UNode@ProfileManager@jex@@U?$less@V?$basic_string@DU?$char_traits@D@std@@V?$allocator@D@2@@std@@@2@V?$allocator@U?$pair@$$CBV?$basic_string@DU?$char_traits@D@std@@V?$allocator@D@2@@std@@UNode@ProfileManager@jex@@@std@@@2@$0A@@std@@@std@@_N@2@ABU?$pair@$$CBV?$basic_string@DU?$char_traits@D@std@@V?$allocator@D@2@@std@@UNode@ProfileManager@jex@@@2@@Z 0041bbc0 f i TimeProber.obj
 0001:0001ad70       ?erase@?$_Tree@V?$_Tmap_traits@V?$basic_string@DU?$char_traits@D@std@@V?$allocator@D@2@@std@@UNode@ProfileManager@jex@@U?$less@V?$basic_string@DU?$char_traits@D@std@@V?$allocator@D@2@@std@@@2@V?$allocator@U?$pair@$$CBV?$basic_string@DU?$char_traits@D@std@@V?$allocator@D@2@@std@@UNode@ProfileManager@jex@@@std@@@2@$0A@@std@@@std@@QAE?AViterator@12@V312@0@Z 0041bd70 f i TimeProber.obj
 0001:0001ae10       ?_Init@?$_Tree@V?$_Tmap_traits@V?$basic_string@DU?$char_traits@D@std@@V?$allocator@D@2@@std@@UNode@ProfileManager@jex@@U?$less@V?$basic_string@DU?$char_traits@D@std@@V?$allocator@D@2@@std@@@2@V?$allocator@U?$pair@$$CBV?$basic_string@DU?$char_traits@D@std@@V?$allocator@D@2@@std@@UNode@ProfileManager@jex@@@std@@@2@$0A@@std@@@std@@IAEXXZ 0041be10 f i TimeProber.obj
 0001:0001ae80       ?_Insert@?$_Tree@V?$_Tmap_traits@V?$basic_string@DU?$char_traits@D@std@@V?$allocator@D@2@@std@@UNode@ProfileManager@jex@@U?$less@V?$basic_string@DU?$char_traits@D@std@@V?$allocator@D@2@@std@@@2@V?$allocator@U?$pair@$$CBV?$basic_string@DU?$char_traits@D@std@@V?$allocator@D@2@@std@@UNode@ProfileManager@jex@@@std@@@2@$0A@@std@@@std@@IAE?AViterator@12@_NPAU_Node@?$_Tree_nod@V?$_Tmap_traits@V?$basic_string@DU?$char_traits@D@std@@V?$allocator@D@2@@std@@UNode@ProfileManager@jex@@U?$less@V?$basic_string@DU?$char_traits@D@std@@V?$allocator@D@2@@std@@@2@V?$allocator@U?$pair@$$CBV?$basic_string@DU?$char_traits@D@std@@V?$allocator@D@2@@std@@UNode@ProfileManager@jex@@@std@@@2@$0A@@std@@@2@ABU?$pair@$$CBV?$basic_string@DU?$char_traits@D@std@@V?$allocator@D@2@@std@@UNode@ProfileManager@jex@@@2@@Z 0041be80 f i TimeProber.obj
 0001:0001b2e0       ?_Lbound@?$_Tree@V?$_Tmap_traits@V?$basic_string@DU?$char_traits@D@std@@V?$allocator@D@2@@std@@UNode@ProfileManager@jex@@U?$less@V?$basic_string@DU?$char_traits@D@std@@V?$allocator@D@2@@std@@@2@V?$allocator@U?$pair@$$CBV?$basic_string@DU?$char_traits@D@std@@V?$allocator@D@2@@std@@UNode@ProfileManager@jex@@@std@@@2@$0A@@std@@@std@@IBEPAU_Node@?$_Tree_nod@V?$_Tmap_traits@V?$basic_string@DU?$char_traits@D@std@@V?$allocator@D@2@@std@@UNode@ProfileManager@jex@@U?$less@V?$basic_string@DU?$char_traits@D@std@@V?$allocator@D@2@@std@@@2@V?$allocator@U?$pair@$$CBV?$basic_string@DU?$char_traits@D@std@@V?$allocator@D@2@@std@@UNode@ProfileManager@jex@@@std@@@2@$0A@@std@@@2@ABV?$basic_string@DU?$char_traits@D@std@@V?$allocator@D@2@@2@@Z 0041c2e0 f i TimeProber.obj
 0001:0001b370       ??0?$_Tree@V?$_Tmap_traits@PBDUSortNode@ProfileManager@jex@@U?$less@PBD@std@@V?$allocator@U?$pair@QBDUSortNode@ProfileManager@jex@@@std@@@5@$0A@@std@@@std@@QAE@ABV01@@Z 0041c370 f i TimeProber.obj
 0001:0001b410       ?insert@?$_Tree@V?$_Tmap_traits@PBDUSortNode@ProfileManager@jex@@U?$less@PBD@std@@V?$allocator@U?$pair@QBDUSortNode@ProfileManager@jex@@@std@@@5@$0A@@std@@@std@@QAE?AU?$pair@Viterator@?$_Tree@V?$_Tmap_traits@PBDUSortNode@ProfileManager@jex@@U?$less@PBD@std@@V?$allocator@U?$pair@QBDUSortNode@ProfileManager@jex@@@std@@@5@$0A@@std@@@std@@_N@2@ABU?$pair@QBDUSortNode@ProfileManager@jex@@@2@@Z 0041c410 f i TimeProber.obj
 0001:0001b5c0       ?erase@?$_Tree@V?$_Tmap_traits@PBDUSortNode@ProfileManager@jex@@U?$less@PBD@std@@V?$allocator@U?$pair@QBDUSortNode@ProfileManager@jex@@@std@@@5@$0A@@std@@@std@@QAE?AViterator@12@V312@0@Z 0041c5c0 f i TimeProber.obj
 0001:0001b660       ?_Init@?$_Tree@V?$_Tmap_traits@PBDUSortNode@ProfileManager@jex@@U?$less@PBD@std@@V?$allocator@U?$pair@QBDUSortNode@ProfileManager@jex@@@std@@@5@$0A@@std@@@std@@IAEXXZ 0041c660 f i TimeProber.obj
 0001:0001b6d0       ?_Insert@?$_Tree@V?$_Tmap_traits@PBDUSortNode@ProfileManager@jex@@U?$less@PBD@std@@V?$allocator@U?$pair@QBDUSortNode@ProfileManager@jex@@@std@@@5@$0A@@std@@@std@@IAE?AViterator@12@_NPAU_Node@?$_Tree_nod@V?$_Tmap_traits@PBDUSortNode@ProfileManager@jex@@U?$less@PBD@std@@V?$allocator@U?$pair@QBDUSortNode@ProfileManager@jex@@@std@@@5@$0A@@std@@@2@ABU?$pair@QBDUSortNode@ProfileManager@jex@@@2@@Z 0041c6d0 f i TimeProber.obj
 0001:0001bb30       ?_Lbound@?$_Tree@V?$_Tmap_traits@PBDUSortNode@ProfileManager@jex@@U?$less@PBD@std@@V?$allocator@U?$pair@QBDUSortNode@ProfileManager@jex@@@std@@@5@$0A@@std@@@std@@IBEPAU_Node@?$_Tree_nod@V?$_Tmap_traits@PBDUSortNode@ProfileManager@jex@@U?$less@PBD@std@@V?$allocator@U?$pair@QBDUSortNode@ProfileManager@jex@@@std@@@5@$0A@@std@@@2@ABQBD@Z 0041cb30 f i TimeProber.obj
 0001:0001bbc0       ??Fiterator@?$_Tree@V?$_Tmap_traits@V?$basic_string@DU?$char_traits@D@std@@V?$allocator@D@2@@std@@UNode@ProfileManager@jex@@U?$less@V?$basic_string@DU?$char_traits@D@std@@V?$allocator@D@2@@std@@@2@V?$allocator@U?$pair@$$CBV?$basic_string@DU?$char_traits@D@std@@V?$allocator@D@2@@std@@UNode@ProfileManager@jex@@@std@@@2@$0A@@std@@@std@@QAEAAV012@XZ 0041cbc0 f i TimeProber.obj
 0001:0001bbe0       ??Econst_iterator@?$_Tree@V?$_Tmap_traits@V?$basic_string@DU?$char_traits@D@std@@V?$allocator@D@2@@std@@UNode@ProfileManager@jex@@U?$less@V?$basic_string@DU?$char_traits@D@std@@V?$allocator@D@2@@std@@@2@V?$allocator@U?$pair@$$CBV?$basic_string@DU?$char_traits@D@std@@V?$allocator@D@2@@std@@UNode@ProfileManager@jex@@@std@@@2@$0A@@std@@@std@@QAEAAV012@XZ 0041cbe0 f i TimeProber.obj
 0001:0001bc00       ?max_size@?$deque@U?$pair@U_SYSTEMTIME@@V?$map@PBDV?$deque@KV?$allocator@K@std@@@std@@U?$less@PBD@2@V?$allocator@U?$pair@QBDV?$deque@KV?$allocator@K@std@@@std@@@std@@@2@@std@@@std@@V?$allocator@U?$pair@U_SYSTEMTIME@@V?$map@PBDV?$deque@KV?$allocator@K@std@@@std@@U?$less@PBD@2@V?$allocator@U?$pair@QBDV?$deque@KV?$allocator@K@std@@@std@@@std@@@2@@std@@@std@@@2@@std@@QBEIXZ 0041cc00 f i TimeProber.obj
 0001:0001bc20       ?pop_back@?$deque@U?$pair@U_SYSTEMTIME@@V?$map@PBDV?$deque@KV?$allocator@K@std@@@std@@U?$less@PBD@2@V?$allocator@U?$pair@QBDV?$deque@KV?$allocator@K@std@@@std@@@std@@@2@@std@@@std@@V?$allocator@U?$pair@U_SYSTEMTIME@@V?$map@PBDV?$deque@KV?$allocator@K@std@@@std@@U?$less@PBD@2@V?$allocator@U?$pair@QBDV?$deque@KV?$allocator@K@std@@@std@@@std@@@2@@std@@@std@@@2@@std@@QAEXXZ 0041cc20 f i TimeProber.obj
 0001:0001bcc0       ?_Xlen@?$deque@U?$pair@U_SYSTEMTIME@@V?$map@PBDV?$deque@KV?$allocator@K@std@@@std@@U?$less@PBD@2@V?$allocator@U?$pair@QBDV?$deque@KV?$allocator@K@std@@@std@@@std@@@2@@std@@@std@@V?$allocator@U?$pair@U_SYSTEMTIME@@V?$map@PBDV?$deque@KV?$allocator@K@std@@@std@@U?$less@PBD@2@V?$allocator@U?$pair@QBDV?$deque@KV?$allocator@K@std@@@std@@@std@@@2@@std@@@std@@@2@@std@@IBEXXZ 0041ccc0 f i TimeProber.obj
 0001:0001bcc0       ?_Xlen@?$deque@KV?$allocator@K@std@@@std@@IBEXXZ 0041ccc0 f i TimeProber.obj
 0001:0001bd20       ?_Isnil@?$_Tree@V?$_Tmap_traits@PBDV?$deque@KV?$allocator@K@std@@@std@@U?$less@PBD@2@V?$allocator@U?$pair@QBDV?$deque@KV?$allocator@K@std@@@std@@@std@@@2@$0A@@std@@@std@@KAAADPAU_Node@?$_Tree_nod@V?$_Tmap_traits@PBDV?$deque@KV?$allocator@K@std@@@std@@U?$less@PBD@2@V?$allocator@U?$pair@QBDV?$deque@KV?$allocator@K@std@@@std@@@std@@@2@$0A@@std@@@2@@Z 0041cd20 f i TimeProber.obj
 0001:0001bd30       ?insert@?$_Tree@V?$_Tmap_traits@PBDV?$deque@KV?$allocator@K@std@@@std@@U?$less@PBD@2@V?$allocator@U?$pair@QBDV?$deque@KV?$allocator@K@std@@@std@@@std@@@2@$0A@@std@@@std@@QAE?AU?$pair@Viterator@?$_Tree@V?$_Tmap_traits@PBDV?$deque@KV?$allocator@K@std@@@std@@U?$less@PBD@2@V?$allocator@U?$pair@QBDV?$deque@KV?$allocator@K@std@@@std@@@std@@@2@$0A@@std@@@std@@_N@2@ABU?$pair@QBDV?$deque@KV?$allocator@K@std@@@std@@@2@@Z 0041cd30 f i TimeProber.obj
 0001:0001bee0       ?erase@?$_Tree@V?$_Tmap_traits@PBDV?$deque@KV?$allocator@K@std@@@std@@U?$less@PBD@2@V?$allocator@U?$pair@QBDV?$deque@KV?$allocator@K@std@@@std@@@std@@@2@$0A@@std@@@std@@QAE?AViterator@12@V312@0@Z 0041cee0 f i TimeProber.obj
 0001:0001bf80       ?_Copy@?$_Tree@V?$_Tmap_traits@PBDV?$deque@KV?$allocator@K@std@@@std@@U?$less@PBD@2@V?$allocator@U?$pair@QBDV?$deque@KV?$allocator@K@std@@@std@@@std@@@2@$0A@@std@@@std@@IAEXABV12@@Z 0041cf80 f i TimeProber.obj
 0001:0001c040       ?_Init@?$_Tree@V?$_Tmap_traits@PBDV?$deque@KV?$allocator@K@std@@@std@@U?$less@PBD@2@V?$allocator@U?$pair@QBDV?$deque@KV?$allocator@K@std@@@std@@@std@@@2@$0A@@std@@@std@@IAEXXZ 0041d040 f i TimeProber.obj
 0001:0001c0b0       ?_Insert@?$_Tree@V?$_Tmap_traits@PBDV?$deque@KV?$allocator@K@std@@@std@@U?$less@PBD@2@V?$allocator@U?$pair@QBDV?$deque@KV?$allocator@K@std@@@std@@@std@@@2@$0A@@std@@@std@@IAE?AViterator@12@_NPAU_Node@?$_Tree_nod@V?$_Tmap_traits@PBDV?$deque@KV?$allocator@K@std@@@std@@U?$less@PBD@2@V?$allocator@U?$pair@QBDV?$deque@KV?$allocator@K@std@@@std@@@std@@@2@$0A@@std@@@2@ABU?$pair@QBDV?$deque@KV?$allocator@K@std@@@std@@@2@@Z 0041d0b0 f i TimeProber.obj
 0001:0001c510       ?_Lbound@?$_Tree@V?$_Tmap_traits@PBDV?$deque@KV?$allocator@K@std@@@std@@U?$less@PBD@2@V?$allocator@U?$pair@QBDV?$deque@KV?$allocator@K@std@@@std@@@std@@@2@$0A@@std@@@std@@IBEPAU_Node@?$_Tree_nod@V?$_Tmap_traits@PBDV?$deque@KV?$allocator@K@std@@@std@@U?$less@PBD@2@V?$allocator@U?$pair@QBDV?$deque@KV?$allocator@K@std@@@std@@@std@@@2@$0A@@std@@@2@ABQBD@Z 0041d510 f i TimeProber.obj
 0001:0001c5a0       ?destroy@?$allocator@U_Node@?$_Tree_nod@V?$_Tmap_traits@PBDV?$deque@KV?$allocator@K@std@@@std@@U?$less@PBD@2@V?$allocator@U?$pair@QBDV?$deque@KV?$allocator@K@std@@@std@@@std@@@2@$0A@@std@@@std@@@std@@QAEXPAU_Node@?$_Tree_nod@V?$_Tmap_traits@PBDV?$deque@KV?$allocator@K@std@@@std@@U?$less@PBD@2@V?$allocator@U?$pair@QBDV?$deque@KV?$allocator@K@std@@@std@@@std@@@2@$0A@@std@@@2@@Z 0041d5a0 f i TimeProber.obj
 0001:0001c5c0       ??0?$deque@KV?$allocator@K@std@@@std@@QAE@ABV01@@Z 0041d5c0 f i TimeProber.obj
 0001:0001c6c0       ??Dconst_iterator@?$deque@U?$pair@U_SYSTEMTIME@@V?$map@PBDV?$deque@KV?$allocator@K@std@@@std@@U?$less@PBD@2@V?$allocator@U?$pair@QBDV?$deque@KV?$allocator@K@std@@@std@@@std@@@2@@std@@@std@@V?$allocator@U?$pair@U_SYSTEMTIME@@V?$map@PBDV?$deque@KV?$allocator@K@std@@@std@@U?$less@PBD@2@V?$allocator@U?$pair@QBDV?$deque@KV?$allocator@K@std@@@std@@@std@@@2@@std@@@std@@@2@@std@@QBEABU?$pair@U_SYSTEMTIME@@V?$map@PBDV?$deque@KV?$allocator@K@std@@@std@@U?$less@PBD@2@V?$allocator@U?$pair@QBDV?$deque@KV?$allocator@K@std@@@std@@@std@@@2@@std@@@2@XZ 0041d6c0 f i TimeProber.obj
 0001:0001c720       ??Fiterator@?$_Tree@V?$_Tmap_traits@PBDV?$deque@KV?$allocator@K@std@@@std@@U?$less@PBD@2@V?$allocator@U?$pair@QBDV?$deque@KV?$allocator@K@std@@@std@@@std@@@2@$0A@@std@@@std@@QAEAAV012@XZ 0041d720 f i TimeProber.obj
 0001:0001c740       ?_Inc@const_iterator@?$_Tree@V?$_Tmap_traits@PBDV?$deque@KV?$allocator@K@std@@@std@@U?$less@PBD@2@V?$allocator@U?$pair@QBDV?$deque@KV?$allocator@K@std@@@std@@@std@@@2@$0A@@std@@@std@@QAEXXZ 0041d740 f i TimeProber.obj
 0001:0001c800       ?_Color@?$_Tree@V?$_Tmap_traits@UPath@ProfileManager@jex@@UNode@23@U?$less@UPath@ProfileManager@jex@@@std@@V?$allocator@U?$pair@$$CBUPath@ProfileManager@jex@@UNode@23@@std@@@6@$0A@@std@@@std@@KAAADPAU_Node@?$_Tree_nod@V?$_Tmap_traits@UPath@ProfileManager@jex@@UNode@23@U?$less@UPath@ProfileManager@jex@@@std@@V?$allocator@U?$pair@$$CBUPath@ProfileManager@jex@@UNode@23@@std@@@6@$0A@@std@@@2@@Z 0041d800 f i TimeProber.obj
 0001:0001c800       ?_Color@?$_Tree@V?$_Tmap_traits@V?$basic_string@DU?$char_traits@D@std@@V?$allocator@D@2@@std@@UCMD_FUNCDATA@StaticSingleton@@U?$less@V?$basic_string@DU?$char_traits@D@std@@V?$allocator@D@2@@std@@@2@V?$allocator@U?$pair@$$CBV?$basic_string@DU?$char_traits@D@std@@V?$allocator@D@2@@std@@UCMD_FUNCDATA@StaticSingleton@@@std@@@2@$0A@@std@@@std@@KAAADPAU_Node@?$_Tree_nod@V?$_Tmap_traits@V?$basic_string@DU?$char_traits@D@std@@V?$allocator@D@2@@std@@UCMD_FUNCDATA@StaticSingleton@@U?$less@V?$basic_string@DU?$char_traits@D@std@@V?$allocator@D@2@@std@@@2@V?$allocator@U?$pair@$$CBV?$basic_string@DU?$char_traits@D@std@@V?$allocator@D@2@@std@@UCMD_FUNCDATA@StaticSingleton@@@std@@@2@$0A@@std@@@2@@Z 0041d800 f i 区域服务器.obj
 0001:0001c810       ?max_size@?$_Tree@V?$_Tmap_traits@UPath@ProfileManager@jex@@UNode@23@U?$less@UPath@ProfileManager@jex@@@std@@V?$allocator@U?$pair@$$CBUPath@ProfileManager@jex@@UNode@23@@std@@@6@$0A@@std@@@std@@QBEIXZ 0041d810 f i TimeProber.obj
 0001:0001c830       ?erase@?$_Tree@V?$_Tmap_traits@UPath@ProfileManager@jex@@UNode@23@U?$less@UPath@ProfileManager@jex@@@std@@V?$allocator@U?$pair@$$CBUPath@ProfileManager@jex@@UNode@23@@std@@@6@$0A@@std@@@std@@QAE?AViterator@12@V312@@Z 0041d830 f i TimeProber.obj
 0001:0001cfe0       ?clear@?$_Tree@V?$_Tmap_traits@UPath@ProfileManager@jex@@UNode@23@U?$less@UPath@ProfileManager@jex@@@std@@V?$allocator@U?$pair@$$CBUPath@ProfileManager@jex@@UNode@23@@std@@@6@$0A@@std@@@std@@QAEXXZ 0041dfe0 f i TimeProber.obj
 0001:0001d040       ?_Rrotate@?$_Tree@V?$_Tmap_traits@UPath@ProfileManager@jex@@UNode@23@U?$less@UPath@ProfileManager@jex@@@std@@V?$allocator@U?$pair@$$CBUPath@ProfileManager@jex@@UNode@23@@std@@@6@$0A@@std@@@std@@IAEXPAU_Node@?$_Tree_nod@V?$_Tmap_traits@UPath@ProfileManager@jex@@UNode@23@U?$less@UPath@ProfileManager@jex@@@std@@V?$allocator@U?$pair@$$CBUPath@ProfileManager@jex@@UNode@23@@std@@@6@$0A@@std@@@2@@Z 0041e040 f i TimeProber.obj
 0001:0001d040       ?_Rrotate@?$_Tree@V?$_Tmap_traits@V?$basic_string@DU?$char_traits@D@std@@V?$allocator@D@2@@std@@UCMD_FUNCDATA@StaticSingleton@@U?$less@V?$basic_string@DU?$char_traits@D@std@@V?$allocator@D@2@@std@@@2@V?$allocator@U?$pair@$$CBV?$basic_string@DU?$char_traits@D@std@@V?$allocator@D@2@@std@@UCMD_FUNCDATA@StaticSingleton@@@std@@@2@$0A@@std@@@std@@IAEXPAU_Node@?$_Tree_nod@V?$_Tmap_traits@V?$basic_string@DU?$char_traits@D@std@@V?$allocator@D@2@@std@@UCMD_FUNCDATA@StaticSingleton@@U?$less@V?$basic_string@DU?$char_traits@D@std@@V?$allocator@D@2@@std@@@2@V?$allocator@U?$pair@$$CBV?$basic_string@DU?$char_traits@D@std@@V?$allocator@D@2@@std@@UCMD_FUNCDATA@StaticSingleton@@@std@@@2@$0A@@std@@@2@@Z 0041e040 f i 区域服务器.obj
 0001:0001d170       ?_Buynode@?$_Tree@V?$_Tmap_traits@UPath@ProfileManager@jex@@UNode@23@U?$less@UPath@ProfileManager@jex@@@std@@V?$allocator@U?$pair@$$CBUPath@ProfileManager@jex@@UNode@23@@std@@@6@$0A@@std@@@std@@IAEPAU_Node@?$_Tree_nod@V?$_Tmap_traits@UPath@ProfileManager@jex@@UNode@23@U?$less@UPath@ProfileManager@jex@@@std@@V?$allocator@U?$pair@$$CBUPath@ProfileManager@jex@@UNode@23@@std@@@6@$0A@@std@@@2@XZ 0041e170 f i TimeProber.obj
 0001:0001d2e0       ?_Buynode@?$_Tree@V?$_Tmap_traits@UPath@ProfileManager@jex@@UNode@23@U?$less@UPath@ProfileManager@jex@@@std@@V?$allocator@U?$pair@$$CBUPath@ProfileManager@jex@@UNode@23@@std@@@6@$0A@@std@@@std@@IAEPAU_Node@?$_Tree_nod@V?$_Tmap_traits@UPath@ProfileManager@jex@@UNode@23@U?$less@UPath@ProfileManager@jex@@@std@@V?$allocator@U?$pair@$$CBUPath@ProfileManager@jex@@UNode@23@@std@@@6@$0A@@std@@@2@PAU342@00ABU?$pair@$$CBUPath@ProfileManager@jex@@UNode@23@@2@D@Z 0041e2e0 f i TimeProber.obj
 0001:0001d3b0       ?_Color@?$_Tree@V?$_Tmap_traits@V?$basic_string@DU?$char_traits@D@std@@V?$allocator@D@2@@std@@UNode@ProfileManager@jex@@U?$less@V?$basic_string@DU?$char_traits@D@std@@V?$allocator@D@2@@std@@@2@V?$allocator@U?$pair@$$CBV?$basic_string@DU?$char_traits@D@std@@V?$allocator@D@2@@std@@UNode@ProfileManager@jex@@@std@@@2@$0A@@std@@@std@@KAAADPAU_Node@?$_Tree_nod@V?$_Tmap_traits@V?$basic_string@DU?$char_traits@D@std@@V?$allocator@D@2@@std@@UNode@ProfileManager@jex@@U?$less@V?$basic_string@DU?$char_traits@D@std@@V?$allocator@D@2@@std@@@2@V?$allocator@U?$pair@$$CBV?$basic_string@DU?$char_traits@D@std@@V?$allocator@D@2@@std@@UNode@ProfileManager@jex@@@std@@@2@$0A@@std@@@2@@Z 0041e3b0 f i TimeProber.obj
 0001:0001d3c0       ?max_size@?$_Tree@V?$_Tmap_traits@V?$basic_string@DU?$char_traits@D@std@@V?$allocator@D@2@@std@@UNode@ProfileManager@jex@@U?$less@V?$basic_string@DU?$char_traits@D@std@@V?$allocator@D@2@@std@@@2@V?$allocator@U?$pair@$$CBV?$basic_string@DU?$char_traits@D@std@@V?$allocator@D@2@@std@@UNode@ProfileManager@jex@@@std@@@2@$0A@@std@@@std@@QBEIXZ 0041e3c0 f i TimeProber.obj
 0001:0001d3e0       ?erase@?$_Tree@V?$_Tmap_traits@V?$basic_string@DU?$char_traits@D@std@@V?$allocator@D@2@@std@@UNode@ProfileManager@jex@@U?$less@V?$basic_string@DU?$char_traits@D@std@@V?$allocator@D@2@@std@@@2@V?$allocator@U?$pair@$$CBV?$basic_string@DU?$char_traits@D@std@@V?$allocator@D@2@@std@@UNode@ProfileManager@jex@@@std@@@2@$0A@@std@@@std@@QAE?AViterator@12@V312@@Z 0041e3e0 f i TimeProber.obj
 0001:0001db90       ?clear@?$_Tree@V?$_Tmap_traits@V?$basic_string@DU?$char_traits@D@std@@V?$allocator@D@2@@std@@UNode@ProfileManager@jex@@U?$less@V?$basic_string@DU?$char_traits@D@std@@V?$allocator@D@2@@std@@@2@V?$allocator@U?$pair@$$CBV?$basic_string@DU?$char_traits@D@std@@V?$allocator@D@2@@std@@UNode@ProfileManager@jex@@@std@@@2@$0A@@std@@@std@@QAEXXZ 0041eb90 f i TimeProber.obj
 0001:0001dbf0       ?_Lrotate@?$_Tree@V?$_Tmap_traits@V?$basic_string@DU?$char_traits@D@std@@V?$allocator@D@2@@std@@UNode@ProfileManager@jex@@U?$less@V?$basic_string@DU?$char_traits@D@std@@V?$allocator@D@2@@std@@@2@V?$allocator@U?$pair@$$CBV?$basic_string@DU?$char_traits@D@std@@V?$allocator@D@2@@std@@UNode@ProfileManager@jex@@@std@@@2@$0A@@std@@@std@@IAEXPAU_Node@?$_Tree_nod@V?$_Tmap_traits@V?$basic_string@DU?$char_traits@D@std@@V?$allocator@D@2@@std@@UNode@ProfileManager@jex@@U?$less@V?$basic_string@DU?$char_traits@D@std@@V?$allocator@D@2@@std@@@2@V?$allocator@U?$pair@$$CBV?$basic_string@DU?$char_traits@D@std@@V?$allocator@D@2@@std@@UNode@ProfileManager@jex@@@std@@@2@$0A@@std@@@2@@Z 0041ebf0 f i TimeProber.obj
 0001:0001dd20       ?_Rrotate@?$_Tree@V?$_Tmap_traits@V?$basic_string@DU?$char_traits@D@std@@V?$allocator@D@2@@std@@UNode@ProfileManager@jex@@U?$less@V?$basic_string@DU?$char_traits@D@std@@V?$allocator@D@2@@std@@@2@V?$allocator@U?$pair@$$CBV?$basic_string@DU?$char_traits@D@std@@V?$allocator@D@2@@std@@UNode@ProfileManager@jex@@@std@@@2@$0A@@std@@@std@@IAEXPAU_Node@?$_Tree_nod@V?$_Tmap_traits@V?$basic_string@DU?$char_traits@D@std@@V?$allocator@D@2@@std@@UNode@ProfileManager@jex@@U?$less@V?$basic_string@DU?$char_traits@D@std@@V?$allocator@D@2@@std@@@2@V?$allocator@U?$pair@$$CBV?$basic_string@DU?$char_traits@D@std@@V?$allocator@D@2@@std@@UNode@ProfileManager@jex@@@std@@@2@$0A@@std@@@2@@Z 0041ed20 f i TimeProber.obj
 0001:0001de50       ?_Buynode@?$_Tree@V?$_Tmap_traits@V?$basic_string@DU?$char_traits@D@std@@V?$allocator@D@2@@std@@UNode@ProfileManager@jex@@U?$less@V?$basic_string@DU?$char_traits@D@std@@V?$allocator@D@2@@std@@@2@V?$allocator@U?$pair@$$CBV?$basic_string@DU?$char_traits@D@std@@V?$allocator@D@2@@std@@UNode@ProfileManager@jex@@@std@@@2@$0A@@std@@@std@@IAEPAU_Node@?$_Tree_nod@V?$_Tmap_traits@V?$basic_string@DU?$char_traits@D@std@@V?$allocator@D@2@@std@@UNode@ProfileManager@jex@@U?$less@V?$basic_string@DU?$char_traits@D@std@@V?$allocator@D@2@@std@@@2@V?$allocator@U?$pair@$$CBV?$basic_string@DU?$char_traits@D@std@@V?$allocator@D@2@@std@@UNode@ProfileManager@jex@@@std@@@2@$0A@@std@@@2@XZ 0041ee50 f i TimeProber.obj
 0001:0001dfc0       ?_Buynode@?$_Tree@V?$_Tmap_traits@V?$basic_string@DU?$char_traits@D@std@@V?$allocator@D@2@@std@@UNode@ProfileManager@jex@@U?$less@V?$basic_string@DU?$char_traits@D@std@@V?$allocator@D@2@@std@@@2@V?$allocator@U?$pair@$$CBV?$basic_string@DU?$char_traits@D@std@@V?$allocator@D@2@@std@@UNode@ProfileManager@jex@@@std@@@2@$0A@@std@@@std@@IAEPAU_Node@?$_Tree_nod@V?$_Tmap_traits@V?$basic_string@DU?$char_traits@D@std@@V?$allocator@D@2@@std@@UNode@ProfileManager@jex@@U?$less@V?$basic_string@DU?$char_traits@D@std@@V?$allocator@D@2@@std@@@2@V?$allocator@U?$pair@$$CBV?$basic_string@DU?$char_traits@D@std@@V?$allocator@D@2@@std@@UNode@ProfileManager@jex@@@std@@@2@$0A@@std@@@2@PAU342@00ABU?$pair@$$CBV?$basic_string@DU?$char_traits@D@std@@V?$allocator@D@2@@std@@UNode@ProfileManager@jex@@@2@D@Z 0041efc0 f i TimeProber.obj
 0001:0001e090       ?max_size@?$_Tree@V?$_Tmap_traits@PBDUSortNode@ProfileManager@jex@@U?$less@PBD@std@@V?$allocator@U?$pair@QBDUSortNode@ProfileManager@jex@@@std@@@5@$0A@@std@@@std@@QBEIXZ 0041f090 f i TimeProber.obj
 0001:0001e090       ?max_size@?$_Tree@V?$_Tmap_traits@HV?$vector@USItemOddsTabledata@@V?$allocator@USItemOddsTabledata@@@std@@@std@@U?$less@H@2@V?$allocator@U?$pair@$$CBHV?$vector@USItemOddsTabledata@@V?$allocator@USItemOddsTabledata@@@std@@@std@@@std@@@2@$0A@@std@@@std@@QBEIXZ 0041f090 f i GameObjects:DynDropTable.obj
 0001:0001e090       ?max_size@?$_Tree@V?$_Tmap_traits@HVCTrigger@@U?$less@H@std@@V?$allocator@U?$pair@$$CBHVCTrigger@@@std@@@3@$0A@@std@@@std@@QBEIXZ 0041f090 f i GameObjects:Region.obj
 0001:0001e0b0       ?key_comp@?$_Tree@V?$_Tmap_traits@KGU?$less@K@std@@V?$allocator@U?$pair@$$CBKG@std@@@2@$0A@@std@@@std@@QBE?AU?$less@K@2@XZ 0041f0b0 f i GameObjects:MonsterDrop.obj
 0001:0001e0b0       ?key_comp@?$_Tree@V?$_Tmap_traits@PBDV?$deque@KV?$allocator@K@std@@@std@@U?$less@PBD@2@V?$allocator@U?$pair@QBDV?$deque@KV?$allocator@K@std@@@std@@@std@@@2@$0A@@std@@@std@@QBE?AU?$less@PBD@2@XZ 0041f0b0 f i TimeProber.obj
 0001:0001e0b0       ?key_comp@?$_Tree@V?$_Tmap_traits@V?$basic_string@DU?$char_traits@D@std@@V?$allocator@D@2@@std@@PAVBuffBase@@U?$less@V?$basic_string@DU?$char_traits@D@std@@V?$allocator@D@2@@std@@@2@V?$allocator@U?$pair@$$CBV?$basic_string@DU?$char_traits@D@std@@V?$allocator@D@2@@std@@PAVBuffBase@@@std@@@2@$0A@@std@@@std@@QBE?AU?$less@V?$basic_string@DU?$char_traits@D@std@@V?$allocator@D@2@@std@@@2@XZ 0041f0b0 f i GameObjects:Player.obj
 0001:0001e0b0       ?key_comp@?$_Tree@V?$_Tmap_traits@PBDUSortNode@ProfileManager@jex@@U?$less@PBD@std@@V?$allocator@U?$pair@QBDUSortNode@ProfileManager@jex@@@std@@@5@$0A@@std@@@std@@QBE?AU?$less@PBD@2@XZ 0041f0b0 f i TimeProber.obj
 0001:0001e0c0       ?erase@?$_Tree@V?$_Tmap_traits@PBDUSortNode@ProfileManager@jex@@U?$less@PBD@std@@V?$allocator@U?$pair@QBDUSortNode@ProfileManager@jex@@@std@@@5@$0A@@std@@@std@@QAE?AViterator@12@V312@@Z 0041f0c0 f i TimeProber.obj
 0001:0001e870       ?clear@?$_Tree@V?$_Tmap_traits@PBDUSortNode@ProfileManager@jex@@U?$less@PBD@std@@V?$allocator@U?$pair@QBDUSortNode@ProfileManager@jex@@@std@@@5@$0A@@std@@@std@@QAEXXZ 0041f870 f i TimeProber.obj
 0001:0001e8d0       ?_Copy@?$_Tree@V?$_Tmap_traits@PBDUSortNode@ProfileManager@jex@@U?$less@PBD@std@@V?$allocator@U?$pair@QBDUSortNode@ProfileManager@jex@@@std@@@5@$0A@@std@@@std@@IAEXABV12@@Z 0041f8d0 f i TimeProber.obj
 0001:0001e990       ?_Lrotate@?$_Tree@V?$_Tmap_traits@PBDUSortNode@ProfileManager@jex@@U?$less@PBD@std@@V?$allocator@U?$pair@QBDUSortNode@ProfileManager@jex@@@std@@@5@$0A@@std@@@std@@IAEXPAU_Node@?$_Tree_nod@V?$_Tmap_traits@PBDUSortNode@ProfileManager@jex@@U?$less@PBD@std@@V?$allocator@U?$pair@QBDUSortNode@ProfileManager@jex@@@std@@@5@$0A@@std@@@2@@Z 0041f990 f i TimeProber.obj
 0001:0001e990       ?_Lrotate@?$_Tree@V?$_Tmap_traits@K_KU?$less@K@std@@V?$allocator@U?$pair@$$CBK_K@std@@@2@$0A@@std@@@std@@IAEXPAU_Node@?$_Tree_nod@V?$_Tmap_traits@K_KU?$less@K@std@@V?$allocator@U?$pair@$$CBK_K@std@@@2@$0A@@std@@@2@@Z 0041f990 f i GameObjects:ScriptManager.obj
 0001:0001e990       ?_Lrotate@?$_Tree@V?$_Tmap_traits@_KKU?$less@_K@std@@V?$allocator@U?$pair@$$CB_KK@std@@@2@$0A@@std@@@std@@IAEXPAU_Node@?$_Tree_nod@V?$_Tmap_traits@_KKU?$less@_K@std@@V?$allocator@U?$pair@$$CB_KK@std@@@2@$0A@@std@@@2@@Z 0041f990 f i GameObjects:GameWorld.obj
 0001:0001e990       ?_Lrotate@?$_Tree@V?$_Tmap_traits@HVCTrigger@@U?$less@H@std@@V?$allocator@U?$pair@$$CBHVCTrigger@@@std@@@3@$0A@@std@@@std@@IAEXPAU_Node@?$_Tree_nod@V?$_Tmap_traits@HVCTrigger@@U?$less@H@std@@V?$allocator@U?$pair@$$CBHVCTrigger@@@std@@@3@$0A@@std@@@2@@Z 0041f990 f i GameObjects:Region.obj
 0001:0001e990       ?_Lrotate@?$_Tree@V?$_Tmap_traits@HV?$vector@USItemOddsTabledata@@V?$allocator@USItemOddsTabledata@@@std@@@std@@U?$less@H@2@V?$allocator@U?$pair@$$CBHV?$vector@USItemOddsTabledata@@V?$allocator@USItemOddsTabledata@@@std@@@std@@@std@@@2@$0A@@std@@@std@@IAEXPAU_Node@?$_Tree_nod@V?$_Tmap_traits@HV?$vector@USItemOddsTabledata@@V?$allocator@USItemOddsTabledata@@@std@@@std@@U?$less@H@2@V?$allocator@U?$pair@$$CBHV?$vector@USItemOddsTabledata@@V?$allocator@USItemOddsTabledata@@@std@@@std@@@std@@@2@$0A@@std@@@2@@Z 0041f990 f i GameObjects:ScriptManager.obj
 0001:0001eac0       ?_Buynode@?$_Tree@V?$_Tmap_traits@PBDUSortNode@ProfileManager@jex@@U?$less@PBD@std@@V?$allocator@U?$pair@QBDUSortNode@ProfileManager@jex@@@std@@@5@$0A@@std@@@std@@IAEPAU_Node@?$_Tree_nod@V?$_Tmap_traits@PBDUSortNode@ProfileManager@jex@@U?$less@PBD@std@@V?$allocator@U?$pair@QBDUSortNode@ProfileManager@jex@@@std@@@5@$0A@@std@@@2@XZ 0041fac0 f i TimeProber.obj
 0001:0001ec30       ?_Buynode@?$_Tree@V?$_Tmap_traits@PBDUSortNode@ProfileManager@jex@@U?$less@PBD@std@@V?$allocator@U?$pair@QBDUSortNode@ProfileManager@jex@@@std@@@5@$0A@@std@@@std@@IAEPAU_Node@?$_Tree_nod@V?$_Tmap_traits@PBDUSortNode@ProfileManager@jex@@U?$less@PBD@std@@V?$allocator@U?$pair@QBDUSortNode@ProfileManager@jex@@@std@@@5@$0A@@std@@@2@PAU342@00ABU?$pair@QBDUSortNode@ProfileManager@jex@@@2@D@Z 0041fc30 f i TimeProber.obj
 0001:0001ed00       ??Fconst_iterator@?$_Tree@V?$_Tmap_traits@UPath@ProfileManager@jex@@UNode@23@U?$less@UPath@ProfileManager@jex@@@std@@V?$allocator@U?$pair@$$CBUPath@ProfileManager@jex@@UNode@23@@std@@@6@$0A@@std@@@std@@QAEAAV012@XZ 0041fd00 f i TimeProber.obj
 0001:0001ed00       ??Fconst_iterator@?$_Tree@V?$_Tmap_traits@V?$basic_string@DU?$char_traits@D@std@@V?$allocator@D@2@@std@@UCMD_FUNCDATA@StaticSingleton@@U?$less@V?$basic_string@DU?$char_traits@D@std@@V?$allocator@D@2@@std@@@2@V?$allocator@U?$pair@$$CBV?$basic_string@DU?$char_traits@D@std@@V?$allocator@D@2@@std@@UCMD_FUNCDATA@StaticSingleton@@@std@@@2@$0A@@std@@@std@@QAEAAV012@XZ 0041fd00 f i StdFrame.obj
 0001:0001ed20       ??Fconst_iterator@?$_Tree@V?$_Tmap_traits@V?$basic_string@DU?$char_traits@D@std@@V?$allocator@D@2@@std@@UNode@ProfileManager@jex@@U?$less@V?$basic_string@DU?$char_traits@D@std@@V?$allocator@D@2@@std@@@2@V?$allocator@U?$pair@$$CBV?$basic_string@DU?$char_traits@D@std@@V?$allocator@D@2@@std@@UNode@ProfileManager@jex@@@std@@@2@$0A@@std@@@std@@QAEAAV012@XZ 0041fd20 f i TimeProber.obj
 0001:0001ed40       ?_Inc@const_iterator@?$_Tree@V?$_Tmap_traits@V?$basic_string@DU?$char_traits@D@std@@V?$allocator@D@2@@std@@UNode@ProfileManager@jex@@U?$less@V?$basic_string@DU?$char_traits@D@std@@V?$allocator@D@2@@std@@@2@V?$allocator@U?$pair@$$CBV?$basic_string@DU?$char_traits@D@std@@V?$allocator@D@2@@std@@UNode@ProfileManager@jex@@@std@@@2@$0A@@std@@@std@@QAEXXZ 0041fd40 f i TimeProber.obj
 0001:0001ee00       ??Fconst_iterator@?$_Tree@V?$_Tmap_traits@_KKU?$less@_K@std@@V?$allocator@U?$pair@$$CB_KK@std@@@2@$0A@@std@@@std@@QAEAAV012@XZ 0041fe00 f i GameObjects:PlayerManager.obj
 0001:0001ee00       ??Fconst_iterator@?$_Tree@V?$_Tmap_traits@HV?$vector@USItemOddsTabledata@@V?$allocator@USItemOddsTabledata@@@std@@@std@@U?$less@H@2@V?$allocator@U?$pair@$$CBHV?$vector@USItemOddsTabledata@@V?$allocator@USItemOddsTabledata@@@std@@@std@@@std@@@2@$0A@@std@@@std@@QAEAAV012@XZ 0041fe00 f i GameObjects:DynDropTable.obj
 0001:0001ee00       ??Fconst_iterator@?$_Tree@V?$_Tmap_traits@HVCTrigger@@U?$less@H@std@@V?$allocator@U?$pair@$$CBHVCTrigger@@@std@@@3@$0A@@std@@@std@@QAEAAV012@XZ 0041fe00 f i GameObjects:Region.obj
 0001:0001ee00       ??Fconst_iterator@?$_Tree@V?$_Tmap_traits@PBDUSortNode@ProfileManager@jex@@U?$less@PBD@std@@V?$allocator@U?$pair@QBDUSortNode@ProfileManager@jex@@@std@@@5@$0A@@std@@@std@@QAEAAV012@XZ 0041fe00 f i TimeProber.obj
 0001:0001ee00       ??Fconst_iterator@?$_Tree@V?$_Tmap_traits@K_KU?$less@K@std@@V?$allocator@U?$pair@$$CBK_K@std@@@2@$0A@@std@@@std@@QAEAAV012@XZ 0041fe00 f i GameObjects:ScriptManager.obj
 0001:0001ee20       ?_Color@?$_Tree@V?$_Tmap_traits@PBDV?$deque@KV?$allocator@K@std@@@std@@U?$less@PBD@2@V?$allocator@U?$pair@QBDV?$deque@KV?$allocator@K@std@@@std@@@std@@@2@$0A@@std@@@std@@KAAADPAU_Node@?$_Tree_nod@V?$_Tmap_traits@PBDV?$deque@KV?$allocator@K@std@@@std@@U?$less@PBD@2@V?$allocator@U?$pair@QBDV?$deque@KV?$allocator@K@std@@@std@@@std@@@2@$0A@@std@@@2@@Z 0041fe20 f i TimeProber.obj
 0001:0001ee30       ?erase@?$_Tree@V?$_Tmap_traits@PBDV?$deque@KV?$allocator@K@std@@@std@@U?$less@PBD@2@V?$allocator@U?$pair@QBDV?$deque@KV?$allocator@K@std@@@std@@@std@@@2@$0A@@std@@@std@@QAE?AViterator@12@V312@@Z 0041fe30 f i TimeProber.obj
 0001:0001f5e0       ?_Copy@?$_Tree@V?$_Tmap_traits@PBDV?$deque@KV?$allocator@K@std@@@std@@U?$less@PBD@2@V?$allocator@U?$pair@QBDV?$deque@KV?$allocator@K@std@@@std@@@std@@@2@$0A@@std@@@std@@IAEPAU_Node@?$_Tree_nod@V?$_Tmap_traits@PBDV?$deque@KV?$allocator@K@std@@@std@@U?$less@PBD@2@V?$allocator@U?$pair@QBDV?$deque@KV?$allocator@K@std@@@std@@@std@@@2@$0A@@std@@@2@PAU342@0@Z 004205e0 f i TimeProber.obj
 0001:0001f730       ?_Lrotate@?$_Tree@V?$_Tmap_traits@PBDV?$deque@KV?$allocator@K@std@@@std@@U?$less@PBD@2@V?$allocator@U?$pair@QBDV?$deque@KV?$allocator@K@std@@@std@@@std@@@2@$0A@@std@@@std@@IAEXPAU_Node@?$_Tree_nod@V?$_Tmap_traits@PBDV?$deque@KV?$allocator@K@std@@@std@@U?$less@PBD@2@V?$allocator@U?$pair@QBDV?$deque@KV?$allocator@K@std@@@std@@@std@@@2@$0A@@std@@@2@@Z 00420730 f i TimeProber.obj
 0001:0001f860       ?_Max@?$_Tree@V?$_Tmap_traits@PBDV?$deque@KV?$allocator@K@std@@@std@@U?$less@PBD@2@V?$allocator@U?$pair@QBDV?$deque@KV?$allocator@K@std@@@std@@@std@@@2@$0A@@std@@@std@@KAPAU_Node@?$_Tree_nod@V?$_Tmap_traits@PBDV?$deque@KV?$allocator@K@std@@@std@@U?$less@PBD@2@V?$allocator@U?$pair@QBDV?$deque@KV?$allocator@K@std@@@std@@@std@@@2@$0A@@std@@@2@PAU342@@Z 00420860 f i TimeProber.obj
 0001:0001f8a0       ?_Min@?$_Tree@V?$_Tmap_traits@PBDV?$deque@KV?$allocator@K@std@@@std@@U?$less@PBD@2@V?$allocator@U?$pair@QBDV?$deque@KV?$allocator@K@std@@@std@@@std@@@2@$0A@@std@@@std@@KAPAU_Node@?$_Tree_nod@V?$_Tmap_traits@PBDV?$deque@KV?$allocator@K@std@@@std@@U?$less@PBD@2@V?$allocator@U?$pair@QBDV?$deque@KV?$allocator@K@std@@@std@@@std@@@2@$0A@@std@@@2@PAU342@@Z 004208a0 f i TimeProber.obj
 0001:0001f8e0       ?_Rrotate@?$_Tree@V?$_Tmap_traits@PBDV?$deque@KV?$allocator@K@std@@@std@@U?$less@PBD@2@V?$allocator@U?$pair@QBDV?$deque@KV?$allocator@K@std@@@std@@@std@@@2@$0A@@std@@@std@@IAEXPAU_Node@?$_Tree_nod@V?$_Tmap_traits@PBDV?$deque@KV?$allocator@K@std@@@std@@U?$less@PBD@2@V?$allocator@U?$pair@QBDV?$deque@KV?$allocator@K@std@@@std@@@std@@@2@$0A@@std@@@2@@Z 004208e0 f i TimeProber.obj
 0001:0001fa10       ?_Buynode@?$_Tree@V?$_Tmap_traits@PBDV?$deque@KV?$allocator@K@std@@@std@@U?$less@PBD@2@V?$allocator@U?$pair@QBDV?$deque@KV?$allocator@K@std@@@std@@@std@@@2@$0A@@std@@@std@@IAEPAU_Node@?$_Tree_nod@V?$_Tmap_traits@PBDV?$deque@KV?$allocator@K@std@@@std@@U?$less@PBD@2@V?$allocator@U?$pair@QBDV?$deque@KV?$allocator@K@std@@@std@@@std@@@2@$0A@@std@@@2@XZ 00420a10 f i TimeProber.obj
 0001:0001fb80       ?_Buynode@?$_Tree@V?$_Tmap_traits@PBDV?$deque@KV?$allocator@K@std@@@std@@U?$less@PBD@2@V?$allocator@U?$pair@QBDV?$deque@KV?$allocator@K@std@@@std@@@std@@@2@$0A@@std@@@std@@IAEPAU_Node@?$_Tree_nod@V?$_Tmap_traits@PBDV?$deque@KV?$allocator@K@std@@@std@@U?$less@PBD@2@V?$allocator@U?$pair@QBDV?$deque@KV?$allocator@K@std@@@std@@@std@@@2@$0A@@std@@@2@PAU342@00ABU?$pair@QBDV?$deque@KV?$allocator@K@std@@@std@@@2@D@Z 00420b80 f i TimeProber.obj
 0001:0001fc50       ?begin@?$deque@KV?$allocator@K@std@@@std@@QBE?AVconst_iterator@12@XZ 00420c50 f i TimeProber.obj
 0001:0001fc80       ?end@?$deque@KV?$allocator@K@std@@@std@@QBE?AVconst_iterator@12@XZ 00420c80 f i TimeProber.obj
 0001:0001fcb0       ??Eiterator@?$_Tree@V?$_Tmap_traits@PBDV?$deque@KV?$allocator@K@std@@@std@@U?$less@PBD@2@V?$allocator@U?$pair@QBDV?$deque@KV?$allocator@K@std@@@std@@@std@@@2@$0A@@std@@@std@@QAE?AV012@H@Z 00420cb0 f i TimeProber.obj
 0001:0001fce0       ??Fconst_iterator@?$_Tree@V?$_Tmap_traits@PBDV?$deque@KV?$allocator@K@std@@@std@@U?$less@PBD@2@V?$allocator@U?$pair@QBDV?$deque@KV?$allocator@K@std@@@std@@@std@@@2@$0A@@std@@@std@@QAEAAV012@XZ 00420ce0 f i TimeProber.obj
 0001:0001fd00       ?_Erase@?$_Tree@V?$_Tmap_traits@UPath@ProfileManager@jex@@UNode@23@U?$less@UPath@ProfileManager@jex@@@std@@V?$allocator@U?$pair@$$CBUPath@ProfileManager@jex@@UNode@23@@std@@@6@$0A@@std@@@std@@IAEXPAU_Node@?$_Tree_nod@V?$_Tmap_traits@UPath@ProfileManager@jex@@UNode@23@U?$less@UPath@ProfileManager@jex@@@std@@V?$allocator@U?$pair@$$CBUPath@ProfileManager@jex@@UNode@23@@std@@@6@$0A@@std@@@2@@Z 00420d00 f i TimeProber.obj
 0001:0001fd80       ?_Max@?$_Tree@V?$_Tmap_traits@UPath@ProfileManager@jex@@UNode@23@U?$less@UPath@ProfileManager@jex@@@std@@V?$allocator@U?$pair@$$CBUPath@ProfileManager@jex@@UNode@23@@std@@@6@$0A@@std@@@std@@KAPAU_Node@?$_Tree_nod@V?$_Tmap_traits@UPath@ProfileManager@jex@@UNode@23@U?$less@UPath@ProfileManager@jex@@@std@@V?$allocator@U?$pair@$$CBUPath@ProfileManager@jex@@UNode@23@@std@@@6@$0A@@std@@@2@PAU342@@Z 00420d80 f i TimeProber.obj
 0001:0001fd80       ?_Max@?$_Tree@V?$_Tmap_traits@V?$basic_string@DU?$char_traits@D@std@@V?$allocator@D@2@@std@@UCMD_FUNCDATA@StaticSingleton@@U?$less@V?$basic_string@DU?$char_traits@D@std@@V?$allocator@D@2@@std@@@2@V?$allocator@U?$pair@$$CBV?$basic_string@DU?$char_traits@D@std@@V?$allocator@D@2@@std@@UCMD_FUNCDATA@StaticSingleton@@@std@@@2@$0A@@std@@@std@@KAPAU_Node@?$_Tree_nod@V?$_Tmap_traits@V?$basic_string@DU?$char_traits@D@std@@V?$allocator@D@2@@std@@UCMD_FUNCDATA@StaticSingleton@@U?$less@V?$basic_string@DU?$char_traits@D@std@@V?$allocator@D@2@@std@@@2@V?$allocator@U?$pair@$$CBV?$basic_string@DU?$char_traits@D@std@@V?$allocator@D@2@@std@@UCMD_FUNCDATA@StaticSingleton@@@std@@@2@$0A@@std@@@2@PAU342@@Z 00420d80 f i 区域服务器.obj
 0001:0001fdc0       ?_Min@?$_Tree@V?$_Tmap_traits@UPath@ProfileManager@jex@@UNode@23@U?$less@UPath@ProfileManager@jex@@@std@@V?$allocator@U?$pair@$$CBUPath@ProfileManager@jex@@UNode@23@@std@@@6@$0A@@std@@@std@@KAPAU_Node@?$_Tree_nod@V?$_Tmap_traits@UPath@ProfileManager@jex@@UNode@23@U?$less@UPath@ProfileManager@jex@@@std@@V?$allocator@U?$pair@$$CBUPath@ProfileManager@jex@@UNode@23@@std@@@6@$0A@@std@@@2@PAU342@@Z 00420dc0 f i TimeProber.obj
 0001:0001fdc0       ?_Min@?$_Tree@V?$_Tmap_traits@V?$basic_string@DU?$char_traits@D@std@@V?$allocator@D@2@@std@@UCMD_FUNCDATA@StaticSingleton@@U?$less@V?$basic_string@DU?$char_traits@D@std@@V?$allocator@D@2@@std@@@2@V?$allocator@U?$pair@$$CBV?$basic_string@DU?$char_traits@D@std@@V?$allocator@D@2@@std@@UCMD_FUNCDATA@StaticSingleton@@@std@@@2@$0A@@std@@@std@@KAPAU_Node@?$_Tree_nod@V?$_Tmap_traits@V?$basic_string@DU?$char_traits@D@std@@V?$allocator@D@2@@std@@UCMD_FUNCDATA@StaticSingleton@@U?$less@V?$basic_string@DU?$char_traits@D@std@@V?$allocator@D@2@@std@@@2@V?$allocator@U?$pair@$$CBV?$basic_string@DU?$char_traits@D@std@@V?$allocator@D@2@@std@@UCMD_FUNCDATA@StaticSingleton@@@std@@@2@$0A@@std@@@2@PAU342@@Z 00420dc0 f i 区域服务器.obj
 0001:0001fe00       ?max_size@?$allocator@U?$pair@$$CBUPath@ProfileManager@jex@@UNode@23@@std@@@std@@QBEIXZ 00420e00 f i TimeProber.obj
 0001:0001fe30       ?allocate@?$allocator@U_Node@?$_Tree_nod@V?$_Tmap_traits@UPath@ProfileManager@jex@@UNode@23@U?$less@UPath@ProfileManager@jex@@@std@@V?$allocator@U?$pair@$$CBUPath@ProfileManager@jex@@UNode@23@@std@@@6@$0A@@std@@@std@@@std@@QAEPAU_Node@?$_Tree_nod@V?$_Tmap_traits@UPath@ProfileManager@jex@@UNode@23@U?$less@UPath@ProfileManager@jex@@@std@@V?$allocator@U?$pair@$$CBUPath@ProfileManager@jex@@UNode@23@@std@@@6@$0A@@std@@@2@I@Z 00420e30 f i TimeProber.obj
 0001:0001fe50       ?destroy@?$allocator@U_Node@?$_Tree_nod@V?$_Tmap_traits@UPath@ProfileManager@jex@@UNode@23@U?$less@UPath@ProfileManager@jex@@@std@@V?$allocator@U?$pair@$$CBUPath@ProfileManager@jex@@UNode@23@@std@@@6@$0A@@std@@@std@@@std@@QAEXPAU_Node@?$_Tree_nod@V?$_Tmap_traits@UPath@ProfileManager@jex@@UNode@23@U?$less@UPath@ProfileManager@jex@@@std@@V?$allocator@U?$pair@$$CBUPath@ProfileManager@jex@@UNode@23@@std@@@6@$0A@@std@@@2@@Z 00420e50 f i TimeProber.obj
 0001:0001fe70       ?_Erase@?$_Tree@V?$_Tmap_traits@V?$basic_string@DU?$char_traits@D@std@@V?$allocator@D@2@@std@@UNode@ProfileManager@jex@@U?$less@V?$basic_string@DU?$char_traits@D@std@@V?$allocator@D@2@@std@@@2@V?$allocator@U?$pair@$$CBV?$basic_string@DU?$char_traits@D@std@@V?$allocator@D@2@@std@@UNode@ProfileManager@jex@@@std@@@2@$0A@@std@@@std@@IAEXPAU_Node@?$_Tree_nod@V?$_Tmap_traits@V?$basic_string@DU?$char_traits@D@std@@V?$allocator@D@2@@std@@UNode@ProfileManager@jex@@U?$less@V?$basic_string@DU?$char_traits@D@std@@V?$allocator@D@2@@std@@@2@V?$allocator@U?$pair@$$CBV?$basic_string@DU?$char_traits@D@std@@V?$allocator@D@2@@std@@UNode@ProfileManager@jex@@@std@@@2@$0A@@std@@@2@@Z 00420e70 f i TimeProber.obj
 0001:0001fef0       ?_Max@?$_Tree@V?$_Tmap_traits@V?$basic_string@DU?$char_traits@D@std@@V?$allocator@D@2@@std@@UNode@ProfileManager@jex@@U?$less@V?$basic_string@DU?$char_traits@D@std@@V?$allocator@D@2@@std@@@2@V?$allocator@U?$pair@$$CBV?$basic_string@DU?$char_traits@D@std@@V?$allocator@D@2@@std@@UNode@ProfileManager@jex@@@std@@@2@$0A@@std@@@std@@KAPAU_Node@?$_Tree_nod@V?$_Tmap_traits@V?$basic_string@DU?$char_traits@D@std@@V?$allocator@D@2@@std@@UNode@ProfileManager@jex@@U?$less@V?$basic_string@DU?$char_traits@D@std@@V?$allocator@D@2@@std@@@2@V?$allocator@U?$pair@$$CBV?$basic_string@DU?$char_traits@D@std@@V?$allocator@D@2@@std@@UNode@ProfileManager@jex@@@std@@@2@$0A@@std@@@2@PAU342@@Z 00420ef0 f i TimeProber.obj
 0001:0001ff30       ?_Min@?$_Tree@V?$_Tmap_traits@V?$basic_string@DU?$char_traits@D@std@@V?$allocator@D@2@@std@@UNode@ProfileManager@jex@@U?$less@V?$basic_string@DU?$char_traits@D@std@@V?$allocator@D@2@@std@@@2@V?$allocator@U?$pair@$$CBV?$basic_string@DU?$char_traits@D@std@@V?$allocator@D@2@@std@@UNode@ProfileManager@jex@@@std@@@2@$0A@@std@@@std@@KAPAU_Node@?$_Tree_nod@V?$_Tmap_traits@V?$basic_string@DU?$char_traits@D@std@@V?$allocator@D@2@@std@@UNode@ProfileManager@jex@@U?$less@V?$basic_string@DU?$char_traits@D@std@@V?$allocator@D@2@@std@@@2@V?$allocator@U?$pair@$$CBV?$basic_string@DU?$char_traits@D@std@@V?$allocator@D@2@@std@@UNode@ProfileManager@jex@@@std@@@2@$0A@@std@@@2@PAU342@@Z 00420f30 f i TimeProber.obj
 0001:0001ff70       ?max_size@?$allocator@UtempAddItem@CPlayer@@@std@@QBEIXZ 00420f70 f i GameObjects:ItemUser.obj
 0001:0001ff70       ?max_size@?$allocator@U?$pair@$$CBV?$basic_string@DU?$char_traits@D@std@@V?$allocator@D@2@@std@@UNode@ProfileManager@jex@@@std@@@std@@QBEIXZ 00420f70 f i TimeProber.obj
 0001:0001ffa0       ?allocate@?$allocator@U_Node@?$_Tree_nod@V?$_Tmap_traits@V?$basic_string@DU?$char_traits@D@std@@V?$allocator@D@2@@std@@UNode@ProfileManager@jex@@U?$less@V?$basic_string@DU?$char_traits@D@std@@V?$allocator@D@2@@std@@@2@V?$allocator@U?$pair@$$CBV?$basic_string@DU?$char_traits@D@std@@V?$allocator@D@2@@std@@UNode@ProfileManager@jex@@@std@@@2@$0A@@std@@@std@@@std@@QAEPAU_Node@?$_Tree_nod@V?$_Tmap_traits@V?$basic_string@DU?$char_traits@D@std@@V?$allocator@D@2@@std@@UNode@ProfileManager@jex@@U?$less@V?$basic_string@DU?$char_traits@D@std@@V?$allocator@D@2@@std@@@2@V?$allocator@U?$pair@$$CBV?$basic_string@DU?$char_traits@D@std@@V?$allocator@D@2@@std@@UNode@ProfileManager@jex@@@std@@@2@$0A@@std@@@2@I@Z 00420fa0 f i TimeProber.obj
 0001:0001ffc0       ?destroy@?$allocator@U_Node@?$_Tree_nod@V?$_Tmap_traits@V?$basic_string@DU?$char_traits@D@std@@V?$allocator@D@2@@std@@UNode@ProfileManager@jex@@U?$less@V?$basic_string@DU?$char_traits@D@std@@V?$allocator@D@2@@std@@@2@V?$allocator@U?$pair@$$CBV?$basic_string@DU?$char_traits@D@std@@V?$allocator@D@2@@std@@UNode@ProfileManager@jex@@@std@@@2@$0A@@std@@@std@@@std@@QAEXPAU_Node@?$_Tree_nod@V?$_Tmap_traits@V?$basic_string@DU?$char_traits@D@std@@V?$allocator@D@2@@std@@UNode@ProfileManager@jex@@U?$less@V?$basic_string@DU?$char_traits@D@std@@V?$allocator@D@2@@std@@@2@V?$allocator@U?$pair@$$CBV?$basic_string@DU?$char_traits@D@std@@V?$allocator@D@2@@std@@UNode@ProfileManager@jex@@@std@@@2@$0A@@std@@@2@@Z 00420fc0 f i TimeProber.obj
 0001:0001ffe0       ?_Copy@?$_Tree@V?$_Tmap_traits@PBDUSortNode@ProfileManager@jex@@U?$less@PBD@std@@V?$allocator@U?$pair@QBDUSortNode@ProfileManager@jex@@@std@@@5@$0A@@std@@@std@@IAEPAU_Node@?$_Tree_nod@V?$_Tmap_traits@PBDUSortNode@ProfileManager@jex@@U?$less@PBD@std@@V?$allocator@U?$pair@QBDUSortNode@ProfileManager@jex@@@std@@@5@$0A@@std@@@2@PAU342@0@Z 00420fe0 f i TimeProber.obj
 0001:00020130       ?_Erase@?$_Tree@V?$_Tmap_traits@PBDUSortNode@ProfileManager@jex@@U?$less@PBD@std@@V?$allocator@U?$pair@QBDUSortNode@ProfileManager@jex@@@std@@@5@$0A@@std@@@std@@IAEXPAU_Node@?$_Tree_nod@V?$_Tmap_traits@PBDUSortNode@ProfileManager@jex@@U?$less@PBD@std@@V?$allocator@U?$pair@QBDUSortNode@ProfileManager@jex@@@std@@@5@$0A@@std@@@2@@Z 00421130 f i TimeProber.obj
 0001:000201b0       ?_Max@?$_Tree@V?$_Tmap_traits@PBDUSortNode@ProfileManager@jex@@U?$less@PBD@std@@V?$allocator@U?$pair@QBDUSortNode@ProfileManager@jex@@@std@@@5@$0A@@std@@@std@@KAPAU_Node@?$_Tree_nod@V?$_Tmap_traits@PBDUSortNode@ProfileManager@jex@@U?$less@PBD@std@@V?$allocator@U?$pair@QBDUSortNode@ProfileManager@jex@@@std@@@5@$0A@@std@@@2@PAU342@@Z 004211b0 f i TimeProber.obj
 0001:000201b0       ?_Max@?$_Tree@V?$_Tmap_traits@HVCTrigger@@U?$less@H@std@@V?$allocator@U?$pair@$$CBHVCTrigger@@@std@@@3@$0A@@std@@@std@@KAPAU_Node@?$_Tree_nod@V?$_Tmap_traits@HVCTrigger@@U?$less@H@std@@V?$allocator@U?$pair@$$CBHVCTrigger@@@std@@@3@$0A@@std@@@2@PAU342@@Z 004211b0 f i GameObjects:Region.obj
 0001:000201b0       ?_Max@?$_Tree@V?$_Tmap_traits@_KKU?$less@_K@std@@V?$allocator@U?$pair@$$CB_KK@std@@@2@$0A@@std@@@std@@KAPAU_Node@?$_Tree_nod@V?$_Tmap_traits@_KKU?$less@_K@std@@V?$allocator@U?$pair@$$CB_KK@std@@@2@$0A@@std@@@2@PAU342@@Z 004211b0 f i GameObjects:GameWorld.obj
 0001:000201b0       ?_Max@?$_Tree@V?$_Tmap_traits@HV?$vector@USItemOddsTabledata@@V?$allocator@USItemOddsTabledata@@@std@@@std@@U?$less@H@2@V?$allocator@U?$pair@$$CBHV?$vector@USItemOddsTabledata@@V?$allocator@USItemOddsTabledata@@@std@@@std@@@std@@@2@$0A@@std@@@std@@KAPAU_Node@?$_Tree_nod@V?$_Tmap_traits@HV?$vector@USItemOddsTabledata@@V?$allocator@USItemOddsTabledata@@@std@@@std@@U?$less@H@2@V?$allocator@U?$pair@$$CBHV?$vector@USItemOddsTabledata@@V?$allocator@USItemOddsTabledata@@@std@@@std@@@std@@@2@$0A@@std@@@2@PAU342@@Z 004211b0 f i GameObjects:ScriptManager.obj
 0001:000201b0       ?_Max@?$_Tree@V?$_Tmap_traits@K_KU?$less@K@std@@V?$allocator@U?$pair@$$CBK_K@std@@@2@$0A@@std@@@std@@KAPAU_Node@?$_Tree_nod@V?$_Tmap_traits@K_KU?$less@K@std@@V?$allocator@U?$pair@$$CBK_K@std@@@2@$0A@@std@@@2@PAU342@@Z 004211b0 f i GameObjects:ScriptManager.obj
 0001:000201f0       ?_Min@?$_Tree@V?$_Tmap_traits@HV?$vector@USItemOddsTabledata@@V?$allocator@USItemOddsTabledata@@@std@@@std@@U?$less@H@2@V?$allocator@U?$pair@$$CBHV?$vector@USItemOddsTabledata@@V?$allocator@USItemOddsTabledata@@@std@@@std@@@std@@@2@$0A@@std@@@std@@KAPAU_Node@?$_Tree_nod@V?$_Tmap_traits@HV?$vector@USItemOddsTabledata@@V?$allocator@USItemOddsTabledata@@@std@@@std@@U?$less@H@2@V?$allocator@U?$pair@$$CBHV?$vector@USItemOddsTabledata@@V?$allocator@USItemOddsTabledata@@@std@@@std@@@std@@@2@$0A@@std@@@2@PAU342@@Z 004211f0 f i GameObjects:ScriptManager.obj
 0001:000201f0       ?_Min@?$_Tree@V?$_Tmap_traits@_KKU?$less@_K@std@@V?$allocator@U?$pair@$$CB_KK@std@@@2@$0A@@std@@@std@@KAPAU_Node@?$_Tree_nod@V?$_Tmap_traits@_KKU?$less@_K@std@@V?$allocator@U?$pair@$$CB_KK@std@@@2@$0A@@std@@@2@PAU342@@Z 004211f0 f i GameObjects:GameWorld.obj
 0001:000201f0       ?_Min@?$_Tree@V?$_Tmap_traits@HVCTrigger@@U?$less@H@std@@V?$allocator@U?$pair@$$CBHVCTrigger@@@std@@@3@$0A@@std@@@std@@KAPAU_Node@?$_Tree_nod@V?$_Tmap_traits@HVCTrigger@@U?$less@H@std@@V?$allocator@U?$pair@$$CBHVCTrigger@@@std@@@3@$0A@@std@@@2@PAU342@@Z 004211f0 f i GameObjects:Region.obj
 0001:000201f0       ?_Min@?$_Tree@V?$_Tmap_traits@K_KU?$less@K@std@@V?$allocator@U?$pair@$$CBK_K@std@@@2@$0A@@std@@@std@@KAPAU_Node@?$_Tree_nod@V?$_Tmap_traits@K_KU?$less@K@std@@V?$allocator@U?$pair@$$CBK_K@std@@@2@$0A@@std@@@2@PAU342@@Z 004211f0 f i GameObjects:ScriptManager.obj
 0001:000201f0       ?_Min@?$_Tree@V?$_Tmap_traits@PBDUSortNode@ProfileManager@jex@@U?$less@PBD@std@@V?$allocator@U?$pair@QBDUSortNode@ProfileManager@jex@@@std@@@5@$0A@@std@@@std@@KAPAU_Node@?$_Tree_nod@V?$_Tmap_traits@PBDUSortNode@ProfileManager@jex@@U?$less@PBD@std@@V?$allocator@U?$pair@QBDUSortNode@ProfileManager@jex@@@std@@@5@$0A@@std@@@2@PAU342@@Z 004211f0 f i TimeProber.obj
 0001:00020230       ?destroy@?$allocator@U_Node@?$_Tree_nod@V?$_Tmap_traits@PBDUSortNode@ProfileManager@jex@@U?$less@PBD@std@@V?$allocator@U?$pair@QBDUSortNode@ProfileManager@jex@@@std@@@5@$0A@@std@@@std@@@std@@QAEXPAU_Node@?$_Tree_nod@V?$_Tmap_traits@PBDUSortNode@ProfileManager@jex@@U?$less@PBD@std@@V?$allocator@U?$pair@QBDUSortNode@ProfileManager@jex@@@std@@@5@$0A@@std@@@2@@Z 00421230 f i TimeProber.obj
 0001:00020250       ?_Dec@const_iterator@?$_Tree@V?$_Tmap_traits@UPath@ProfileManager@jex@@UNode@23@U?$less@UPath@ProfileManager@jex@@@std@@V?$allocator@U?$pair@$$CBUPath@ProfileManager@jex@@UNode@23@@std@@@6@$0A@@std@@@std@@QAEXXZ 00421250 f i TimeProber.obj
 0001:00020250       ?_Dec@const_iterator@?$_Tree@V?$_Tmap_traits@V?$basic_string@DU?$char_traits@D@std@@V?$allocator@D@2@@std@@UCMD_FUNCDATA@StaticSingleton@@U?$less@V?$basic_string@DU?$char_traits@D@std@@V?$allocator@D@2@@std@@@2@V?$allocator@U?$pair@$$CBV?$basic_string@DU?$char_traits@D@std@@V?$allocator@D@2@@std@@UCMD_FUNCDATA@StaticSingleton@@@std@@@2@$0A@@std@@@std@@QAEXXZ 00421250 f i StdFrame.obj
 0001:00020330       ?_Dec@const_iterator@?$_Tree@V?$_Tmap_traits@V?$basic_string@DU?$char_traits@D@std@@V?$allocator@D@2@@std@@UNode@ProfileManager@jex@@U?$less@V?$basic_string@DU?$char_traits@D@std@@V?$allocator@D@2@@std@@@2@V?$allocator@U?$pair@$$CBV?$basic_string@DU?$char_traits@D@std@@V?$allocator@D@2@@std@@UNode@ProfileManager@jex@@@std@@@2@$0A@@std@@@std@@QAEXXZ 00421330 f i TimeProber.obj
 0001:00020410       ?_Dec@const_iterator@?$_Tree@V?$_Tmap_traits@PBDV?$deque@KV?$allocator@K@std@@@std@@U?$less@PBD@2@V?$allocator@U?$pair@QBDV?$deque@KV?$allocator@K@std@@@std@@@std@@@2@$0A@@std@@@std@@QAEXXZ 00421410 f i TimeProber.obj
 0001:000204f0       ??0_Node@?$_Tree_nod@V?$_Tmap_traits@UPath@ProfileManager@jex@@UNode@23@U?$less@UPath@ProfileManager@jex@@@std@@V?$allocator@U?$pair@$$CBUPath@ProfileManager@jex@@UNode@23@@std@@@6@$0A@@std@@@std@@QAE@PAU012@00ABU?$pair@$$CBUPath@ProfileManager@jex@@UNode@23@@2@D@Z 004214f0 f i TimeProber.obj
 0001:00020540       ??0_Node@?$_Tree_nod@V?$_Tmap_traits@V?$basic_string@DU?$char_traits@D@std@@V?$allocator@D@2@@std@@UNode@ProfileManager@jex@@U?$less@V?$basic_string@DU?$char_traits@D@std@@V?$allocator@D@2@@std@@@2@V?$allocator@U?$pair@$$CBV?$basic_string@DU?$char_traits@D@std@@V?$allocator@D@2@@std@@UNode@ProfileManager@jex@@@std@@@2@$0A@@std@@@std@@QAE@PAU012@00ABU?$pair@$$CBV?$basic_string@DU?$char_traits@D@std@@V?$allocator@D@2@@std@@UNode@ProfileManager@jex@@@2@D@Z 00421540 f i TimeProber.obj
 0001:00020590       ??0_Node@?$_Tree_nod@V?$_Tmap_traits@PBDUSortNode@ProfileManager@jex@@U?$less@PBD@std@@V?$allocator@U?$pair@QBDUSortNode@ProfileManager@jex@@@std@@@5@$0A@@std@@@std@@QAE@PAU012@00ABU?$pair@QBDUSortNode@ProfileManager@jex@@@2@D@Z 00421590 f i TimeProber.obj
 0001:000205e0       ??0_Node@?$_Tree_nod@V?$_Tmap_traits@PBDV?$deque@KV?$allocator@K@std@@@std@@U?$less@PBD@2@V?$allocator@U?$pair@QBDV?$deque@KV?$allocator@K@std@@@std@@@std@@@2@$0A@@std@@@std@@QAE@PAU012@00ABU?$pair@QBDV?$deque@KV?$allocator@K@std@@@std@@@2@D@Z 004215e0 f i TimeProber.obj
 0001:00020630       ??0?$pair@$$CBUPath@ProfileManager@jex@@UNode@23@@std@@QAE@ABU01@@Z 00421630 f i TimeProber.obj
 0001:00020670       ??0?$pair@$$CBV?$basic_string@DU?$char_traits@D@std@@V?$allocator@D@2@@std@@UNode@ProfileManager@jex@@@std@@QAE@ABU01@@Z 00421670 f i TimeProber.obj
 0001:000206b0       ??0?$pair@QBDUSortNode@ProfileManager@jex@@@std@@QAE@ABU01@@Z 004216b0 f i TimeProber.obj
 0001:000206e0       ??0?$pair@QBDV?$deque@KV?$allocator@K@std@@@std@@@std@@QAE@ABU01@@Z 004216e0 f i TimeProber.obj
 0001:00020710       ??$lexicographical_compare@UPathIterator@Path@ProfileManager@jex@@Vconst_iterator@?$vector@PBDV?$allocator@PBD@std@@@std@@@std@@YA_NUPathIterator@Path@ProfileManager@jex@@0Vconst_iterator@?$vector@PBDV?$allocator@PBD@std@@@0@1@Z 00421710 f i TimeProber.obj
 0001:000207d0       ??EPathIterator@Path@ProfileManager@jex@@QAEXXZ 004217d0 f i TimeProber.obj
 0001:000207f0       ??BPathIterator@Path@ProfileManager@jex@@QBEPBDXZ 004217f0 f i TimeProber.obj
 0001:000207f0       ??DPathIterator@Path@ProfileManager@jex@@QBEPBDXZ 004217f0 f i TimeProber.obj
 0001:00020830       ??$lexicographical_compare@Vconst_iterator@?$vector@PBDV?$allocator@PBD@std@@@std@@UPathIterator@Path@ProfileManager@jex@@@std@@YA_NVconst_iterator@?$vector@PBDV?$allocator@PBD@std@@@0@0UPathIterator@Path@ProfileManager@jex@@1@Z 00421830 f i TimeProber.obj
 0001:000208f0       ??$?MPBDV?$allocator@PBD@std@@@std@@YA_NABV?$vector@PBDV?$allocator@PBD@std@@@0@0@Z 004218f0 f i TimeProber.obj
 0001:00020940       ??$_Construct@U?$pair@U_SYSTEMTIME@@V?$map@PBDV?$deque@KV?$allocator@K@std@@@std@@U?$less@PBD@2@V?$allocator@U?$pair@QBDV?$deque@KV?$allocator@K@std@@@std@@@std@@@2@@std@@@std@@U12@@std@@YAXPAU?$pair@U_SYSTEMTIME@@V?$map@PBDV?$deque@KV?$allocator@K@std@@@std@@U?$less@PBD@2@V?$allocator@U?$pair@QBDV?$deque@KV?$allocator@K@std@@@std@@@std@@@2@@std@@@0@ABU10@@Z 00421940 f i TimeProber.obj
 0001:000209b0       ??$_Destroy@U?$pair@U_SYSTEMTIME@@V?$map@PBDV?$deque@KV?$allocator@K@std@@@std@@U?$less@PBD@2@V?$allocator@U?$pair@QBDV?$deque@KV?$allocator@K@std@@@std@@@std@@@2@@std@@@std@@@std@@YAXPAU?$pair@U_SYSTEMTIME@@V?$map@PBDV?$deque@KV?$allocator@K@std@@@std@@U?$less@PBD@2@V?$allocator@U?$pair@QBDV?$deque@KV?$allocator@K@std@@@std@@@std@@@2@@std@@@0@@Z 004219b0 f i TimeProber.obj
 0001:000209c0       ??$fill@PAPBDPBD@std@@YAXPAPBD0ABQBD@Z 004219c0 f i TimeProber.obj
 0001:000209c0       ??$fill@PAPAVBuffTrigger@@PAV1@@std@@YAXPAPAVBuffTrigger@@0ABQAV1@@Z 004219c0 f i GameObjects:BuffPropertyModify.obj
 0001:000209c0       ??$fill@PAPAU_tagXMLAttr@@PAU1@@std@@YAXPAPAU_tagXMLAttr@@0ABQAU1@@Z 004219c0 f i GameObjects:BuffBaseData.obj
 0001:000209c0       ??$fill@PAPAVBuffAction@@PAV1@@std@@YAXPAPAVBuffAction@@0ABQAV1@@Z 004219c0 f i GameObjects:BuffPropertyModify.obj
 0001:000209c0       ??$fill@PAKK@std@@YAXPAK0ABK@Z 004219c0 f i GameObjects:Area.obj
 0001:000209c0       ??$fill@PAPAU_tagXMLNode@@PAU1@@std@@YAXPAPAU_tagXMLNode@@0ABQAU1@@Z 004219c0 f i GameObjects:BuffBaseData.obj
 0001:000209c0       ??$fill@PAHH@std@@YAXPAH0ABH@Z 004219c0 f i GameObjects:ScriptManager.obj
 0001:000209c0       ??$fill@PAPAUSFactionData@@PAU1@@std@@YAXPAPAUSFactionData@@0ABQAU1@@Z 004219c0 f i GameObjects:FactionManager.obj
 0001:000209f0       ??$_Destroy@U_Node@?$_Tree_nod@V?$_Tmap_traits@PBDV?$deque@KV?$allocator@K@std@@@std@@U?$less@PBD@2@V?$allocator@U?$pair@QBDV?$deque@KV?$allocator@K@std@@@std@@@std@@@2@$0A@@std@@@std@@@std@@YAXPAU_Node@?$_Tree_nod@V?$_Tmap_traits@PBDV?$deque@KV?$allocator@K@std@@@std@@U?$less@PBD@2@V?$allocator@U?$pair@QBDV?$deque@KV?$allocator@K@std@@@std@@@std@@@2@$0A@@std@@@0@@Z 004219f0 f i TimeProber.obj
 0001:00020a00       ??$insert@Vconst_iterator@?$deque@KV?$allocator@K@std@@@std@@@?$deque@KV?$allocator@K@std@@@std@@QAEXViterator@01@Vconst_iterator@01@1@Z 00421a00 f i TimeProber.obj
 0001:00020a50       ??$_Allocate@U_Node@?$_Tree_nod@V?$_Tmap_traits@UPath@ProfileManager@jex@@UNode@23@U?$less@UPath@ProfileManager@jex@@@std@@V?$allocator@U?$pair@$$CBUPath@ProfileManager@jex@@UNode@23@@std@@@6@$0A@@std@@@std@@@std@@YAPAU_Node@?$_Tree_nod@V?$_Tmap_traits@UPath@ProfileManager@jex@@UNode@23@U?$less@UPath@ProfileManager@jex@@@std@@V?$allocator@U?$pair@$$CBUPath@ProfileManager@jex@@UNode@23@@std@@@6@$0A@@std@@@0@IPAU120@@Z 00421a50 f i TimeProber.obj
 0001:00020a70       ??$_Destroy@U_Node@?$_Tree_nod@V?$_Tmap_traits@UPath@ProfileManager@jex@@UNode@23@U?$less@UPath@ProfileManager@jex@@@std@@V?$allocator@U?$pair@$$CBUPath@ProfileManager@jex@@UNode@23@@std@@@6@$0A@@std@@@std@@@std@@YAXPAU_Node@?$_Tree_nod@V?$_Tmap_traits@UPath@ProfileManager@jex@@UNode@23@U?$less@UPath@ProfileManager@jex@@@std@@V?$allocator@U?$pair@$$CBUPath@ProfileManager@jex@@UNode@23@@std@@@6@$0A@@std@@@0@@Z 00421a70 f i TimeProber.obj
 0001:00020a80       ??$_Allocate@U_Node@?$_Tree_nod@V?$_Tmap_traits@V?$basic_string@DU?$char_traits@D@std@@V?$allocator@D@2@@std@@UNode@ProfileManager@jex@@U?$less@V?$basic_string@DU?$char_traits@D@std@@V?$allocator@D@2@@std@@@2@V?$allocator@U?$pair@$$CBV?$basic_string@DU?$char_traits@D@std@@V?$allocator@D@2@@std@@UNode@ProfileManager@jex@@@std@@@2@$0A@@std@@@std@@@std@@YAPAU_Node@?$_Tree_nod@V?$_Tmap_traits@V?$basic_string@DU?$char_traits@D@std@@V?$allocator@D@2@@std@@UNode@ProfileManager@jex@@U?$less@V?$basic_string@DU?$char_traits@D@std@@V?$allocator@D@2@@std@@@2@V?$allocator@U?$pair@$$CBV?$basic_string@DU?$char_traits@D@std@@V?$allocator@D@2@@std@@UNode@ProfileManager@jex@@@std@@@2@$0A@@std@@@0@IPAU120@@Z 00421a80 f i TimeProber.obj
 0001:00020aa0       ??$_Destroy@U_Node@?$_Tree_nod@V?$_Tmap_traits@V?$basic_string@DU?$char_traits@D@std@@V?$allocator@D@2@@std@@UNode@ProfileManager@jex@@U?$less@V?$basic_string@DU?$char_traits@D@std@@V?$allocator@D@2@@std@@@2@V?$allocator@U?$pair@$$CBV?$basic_string@DU?$char_traits@D@std@@V?$allocator@D@2@@std@@UNode@ProfileManager@jex@@@std@@@2@$0A@@std@@@std@@@std@@YAXPAU_Node@?$_Tree_nod@V?$_Tmap_traits@V?$basic_string@DU?$char_traits@D@std@@V?$allocator@D@2@@std@@UNode@ProfileManager@jex@@U?$less@V?$basic_string@DU?$char_traits@D@std@@V?$allocator@D@2@@std@@@2@V?$allocator@U?$pair@$$CBV?$basic_string@DU?$char_traits@D@std@@V?$allocator@D@2@@std@@UNode@ProfileManager@jex@@@std@@@2@$0A@@std@@@0@@Z 00421aa0 f i TimeProber.obj
 0001:00020ab0       ??$_Destroy@U_Node@?$_Tree_nod@V?$_Tmap_traits@PBDUSortNode@ProfileManager@jex@@U?$less@PBD@std@@V?$allocator@U?$pair@QBDUSortNode@ProfileManager@jex@@@std@@@5@$0A@@std@@@std@@@std@@YAXPAU_Node@?$_Tree_nod@V?$_Tmap_traits@PBDUSortNode@ProfileManager@jex@@U?$less@PBD@std@@V?$allocator@U?$pair@QBDUSortNode@ProfileManager@jex@@@std@@@5@$0A@@std@@@0@@Z 00421ab0 f i TimeProber.obj
 0001:00020ac0       ??0?$pair@U_SYSTEMTIME@@V?$map@PBDV?$deque@KV?$allocator@K@std@@@std@@U?$less@PBD@2@V?$allocator@U?$pair@QBDV?$deque@KV?$allocator@K@std@@@std@@@std@@@2@@std@@@std@@QAE@ABU01@@Z 00421ac0 f i TimeProber.obj
 0001:00020b00       ??_G?$pair@U_SYSTEMTIME@@V?$map@PBDV?$deque@KV?$allocator@K@std@@@std@@U?$less@PBD@2@V?$allocator@U?$pair@QBDV?$deque@KV?$allocator@K@std@@@std@@@std@@@2@@std@@@std@@QAEPAXI@Z 00421b00 f i TimeProber.obj
 0001:00020b30       ??_G_Node@?$_Tree_nod@V?$_Tmap_traits@PBDV?$deque@KV?$allocator@K@std@@@std@@U?$less@PBD@2@V?$allocator@U?$pair@QBDV?$deque@KV?$allocator@K@std@@@std@@@std@@@2@$0A@@std@@@std@@QAEPAXI@Z 00421b30 f i TimeProber.obj
 0001:00020b60       ??_G_Node@?$_Tree_nod@V?$_Tmap_traits@UPath@ProfileManager@jex@@UNode@23@U?$less@UPath@ProfileManager@jex@@@std@@V?$allocator@U?$pair@$$CBUPath@ProfileManager@jex@@UNode@23@@std@@@6@$0A@@std@@@std@@QAEPAXI@Z 00421b60 f i TimeProber.obj
 0001:00020b90       ??_G_Node@?$_Tree_nod@V?$_Tmap_traits@V?$basic_string@DU?$char_traits@D@std@@V?$allocator@D@2@@std@@UNode@ProfileManager@jex@@U?$less@V?$basic_string@DU?$char_traits@D@std@@V?$allocator@D@2@@std@@@2@V?$allocator@U?$pair@$$CBV?$basic_string@DU?$char_traits@D@std@@V?$allocator@D@2@@std@@UNode@ProfileManager@jex@@@std@@@2@$0A@@std@@@std@@QAEPAXI@Z 00421b90 f i TimeProber.obj
 0001:00020bc0       ??_G_Node@?$_Tree_nod@V?$_Tmap_traits@PBDUSortNode@ProfileManager@jex@@U?$less@PBD@std@@V?$allocator@U?$pair@QBDUSortNode@ProfileManager@jex@@@std@@@5@$0A@@std@@@std@@QAEPAXI@Z 00421bc0 f i TimeProber.obj
 0001:00020bf0       ??1_Node@?$_Tree_nod@V?$_Tmap_traits@PBDV?$deque@KV?$allocator@K@std@@@std@@U?$less@PBD@2@V?$allocator@U?$pair@QBDV?$deque@KV?$allocator@K@std@@@std@@@std@@@2@$0A@@std@@@std@@QAE@XZ 00421bf0 f i TimeProber.obj
 0001:00020c10       ??1_Node@?$_Tree_nod@V?$_Tmap_traits@UPath@ProfileManager@jex@@UNode@23@U?$less@UPath@ProfileManager@jex@@@std@@V?$allocator@U?$pair@$$CBUPath@ProfileManager@jex@@UNode@23@@std@@@6@$0A@@std@@@std@@QAE@XZ 00421c10 f i TimeProber.obj
 0001:00020c30       ??1_Node@?$_Tree_nod@V?$_Tmap_traits@V?$basic_string@DU?$char_traits@D@std@@V?$allocator@D@2@@std@@UNode@ProfileManager@jex@@U?$less@V?$basic_string@DU?$char_traits@D@std@@V?$allocator@D@2@@std@@@2@V?$allocator@U?$pair@$$CBV?$basic_string@DU?$char_traits@D@std@@V?$allocator@D@2@@std@@UNode@ProfileManager@jex@@@std@@@2@$0A@@std@@@std@@QAE@XZ 00421c30 f i TimeProber.obj
 0001:00020c50       ??1_Node@?$_Tree_nod@V?$_Tmap_traits@PBDUSortNode@ProfileManager@jex@@U?$less@PBD@std@@V?$allocator@U?$pair@QBDUSortNode@ProfileManager@jex@@@std@@@5@$0A@@std@@@std@@QAE@XZ 00421c50 f i TimeProber.obj
 0001:00020c70       ??$lexicographical_compare@Vconst_iterator@?$vector@PBDV?$allocator@PBD@std@@@std@@V123@@std@@YA_NVconst_iterator@?$vector@PBDV?$allocator@PBD@std@@@0@000@Z 00421c70 f i TimeProber.obj
 0001:00020d30       ??$_Copy_opt@PAPAUSFactionData@@PAPAU1@@std@@YAPAPAUSFactionData@@PAPAU1@00U_Scalar_ptr_iterator_tag@0@@Z 00421d30 f i GameObjects:FactionManager.obj
 0001:00020d30       ??$_Uninit_copy@PAPAUSMoiler@@PAPAU1@@std@@YAPAPAPAUSMoiler@@PAPAPAU1@00AAV?$allocator@PAPAUSMoiler@@@0@U_Scalar_ptr_iterator_tag@0@@Z 00421d30 f i MoilWorker.obj
 0001:00020d30       ??$_Uninit_copy@PAU_tagXMLAttr@@PAU1@@std@@YAPAPAU_tagXMLAttr@@PAPAU1@00AAV?$allocator@PAU_tagXMLAttr@@@0@U_Scalar_ptr_iterator_tag@0@@Z 00421d30 f i GameObjects:BuffBaseData.obj
 0001:00020d30       ??$_Copy_opt@PAPAU_tagXMLAttr@@PAPAU1@@std@@YAPAPAU_tagXMLAttr@@PAPAU1@00U_Scalar_ptr_iterator_tag@0@@Z 00421d30 f i GameObjects:BuffBaseData.obj
 0001:00020d30       ??$_Uninit_copy@PAPAUSNetServerPacket@@PAPAU1@@std@@YAPAPAPAUSNetServerPacket@@PAPAPAU1@00AAV?$allocator@PAPAUSNetServerPacket@@@0@U_Scalar_ptr_iterator_tag@0@@Z 00421d30 f i NetProviderModuleEx:NetProviderModule.obj
 0001:00020d30       ??$_Copy_opt@PAKPAK@std@@YAPAKPAK00U_Scalar_ptr_iterator_tag@0@@Z 00421d30 f i GameObjects:Area.obj
 0001:00020d30       ??$_Uninit_copy@PAKPAK@std@@YAPAPAKPAPAK00AAV?$allocator@PAK@0@U_Scalar_ptr_iterator_tag@0@@Z 00421d30 f i TimeProber.obj
 0001:00020d30       ??$_Uninit_copy@KK@std@@YAPAKPAK00AAV?$allocator@K@0@U_Scalar_ptr_iterator_tag@0@@Z 00421d30 f i GameObjects:Area.obj
 0001:00020d30       ??$_Uninit_copy@PAPAUSNetClientPacket@@PAPAU1@@std@@YAPAPAPAUSNetClientPacket@@PAPAPAU1@00AAV?$allocator@PAPAUSNetClientPacket@@@0@U_Scalar_ptr_iterator_tag@0@@Z 00421d30 f i NetConsumerModule:NetConsummerModule.obj
 0001:00020d30       ??$_Uninit_copy@PAUSFactionData@@PAU1@@std@@YAPAPAUSFactionData@@PAPAU1@00AAV?$allocator@PAUSFactionData@@@0@U_Scalar_ptr_iterator_tag@0@@Z 00421d30 f i GameObjects:FactionManager.obj
 0001:00020d30       ??$_Uninit_copy@PAPAXPAPAX@std@@YAPAPAPAXPAPAPAX00AAV?$allocator@PAPAX@0@U_Scalar_ptr_iterator_tag@0@@Z 00421d30 f i MoilWorker.obj
 0001:00020d30       ??$_Uninit_copy@PAVBuffTrigger@@PAV1@@std@@YAPAPAVBuffTrigger@@PAPAV1@00AAV?$allocator@PAVBuffTrigger@@@0@U_Scalar_ptr_iterator_tag@0@@Z 00421d30 f i GameObjects:BuffPropertyModify.obj
 0001:00020d30       ??$_Uninit_copy@PAVBuffAction@@PAV1@@std@@YAPAPAVBuffAction@@PAPAV1@00AAV?$allocator@PAVBuffAction@@@0@U_Scalar_ptr_iterator_tag@0@@Z 00421d30 f i GameObjects:BuffPropertyModify.obj
 0001:00020d30       ??$_Uninit_copy@HH@std@@YAPAHPAH00AAV?$allocator@H@0@U_Scalar_ptr_iterator_tag@0@@Z 00421d30 f i GameObjects:ScriptManager.obj
 0001:00020d30       ??$_Uninit_copy@PAU?$pair@U_SYSTEMTIME@@V?$map@PBDV?$deque@KV?$allocator@K@std@@@std@@U?$less@PBD@2@V?$allocator@U?$pair@QBDV?$deque@KV?$allocator@K@std@@@std@@@std@@@2@@std@@@std@@PAU12@@std@@YAPAPAU?$pair@U_SYSTEMTIME@@V?$map@PBDV?$deque@KV?$allocator@K@std@@@std@@U?$less@PBD@2@V?$allocator@U?$pair@QBDV?$deque@KV?$allocator@K@std@@@std@@@std@@@2@@std@@@0@PAPAU10@00AAV?$allocator@PAU?$pair@U_SYSTEMTIME@@V?$map@PBDV?$deque@KV?$allocator@K@std@@@std@@U?$less@PBD@2@V?$allocator@U?$pair@QBDV?$deque@KV?$allocator@K@std@@@std@@@std@@@2@@std@@@std@@@0@U_Scalar_ptr_iterator_tag@0@@Z 00421d30 f i TimeProber.obj
 0001:00020d30       ??$_Uninit_copy@PBDPBD@std@@YAPAPBDPAPBD00AAV?$allocator@PBD@0@U_Scalar_ptr_iterator_tag@0@@Z 00421d30 f i TimeProber.obj
 0001:00020d30       ??$_Copy_opt@PAPBDPAPBD@std@@YAPAPBDPAPBD00U_Scalar_ptr_iterator_tag@0@@Z 00421d30 f i TimeProber.obj
 0001:00020d30       ??$_Uninit_copy@PAU_tagXMLNode@@PAU1@@std@@YAPAPAU_tagXMLNode@@PAPAU1@00AAV?$allocator@PAU_tagXMLNode@@@0@U_Scalar_ptr_iterator_tag@0@@Z 00421d30 f i GameObjects:BuffBaseData.obj
 0001:00020d30       ??$_Copy_opt@PAPAU_tagXMLNode@@PAPAU1@@std@@YAPAPAU_tagXMLNode@@PAPAU1@00U_Scalar_ptr_iterator_tag@0@@Z 00421d30 f i GameObjects:BuffBaseData.obj
 0001:00020d30       ??$_Uninit_copy@PAPAUSNetServerPacketAdvEx@@PAPAU1@@std@@YAPAPAPAUSNetServerPacketAdvEx@@PAPAPAU1@00AAV?$allocator@PAPAUSNetServerPacketAdvEx@@@0@U_Scalar_ptr_iterator_tag@0@@Z 00421d30 f i NetProviderModuleEx:NetProviderModuleAdvEx.obj
 0001:00020d70       ??$_Insert@Vconst_iterator@?$deque@KV?$allocator@K@std@@@std@@@?$deque@KV?$allocator@K@std@@@std@@QAEXViterator@01@Vconst_iterator@01@1Ubidirectional_iterator_tag@1@@Z 00421d70 f i TimeProber.obj
 0001:00021380       ?push_front@?$deque@KV?$allocator@K@std@@@std@@QAEXABK@Z 00422380 f i TimeProber.obj
 0001:00021470       ??Hiterator@?$deque@KV?$allocator@K@std@@@std@@QBE?AV012@H@Z 00422470 f i TimeProber.obj
 0001:000214b0       ??Giterator@?$deque@PAXV?$allocator@PAX@std@@@std@@QBE?AV012@H@Z 004224b0 f i MoilWorker.obj
 0001:000214b0       ??Giterator@?$deque@KV?$allocator@K@std@@@std@@QBE?AV012@H@Z 004224b0 f i TimeProber.obj
 0001:000214f0       ??Giterator@?$deque@KV?$allocator@K@std@@@std@@QBEHABVconst_iterator@12@@Z 004224f0 f i TimeProber.obj
 0001:00021520       ??Aiterator@?$deque@KV?$allocator@K@std@@@std@@QBEAAKH@Z 00422520 f i TimeProber.obj
 0001:00021550       ??Ziterator@?$deque@PAXV?$allocator@PAX@std@@@std@@QAEAAV012@H@Z 00422550 f i MoilWorker.obj
 0001:00021550       ??Ziterator@?$deque@KV?$allocator@K@std@@@std@@QAEAAV012@H@Z 00422550 f i TimeProber.obj
 0001:00021570       ??Gconst_iterator@?$deque@KV?$allocator@K@std@@@std@@QBEHABV012@@Z 00422570 f i TimeProber.obj
 0001:000215c0       ??$fill_n@PAPAPAUSNetServerPacket@@IPAPAU1@@std@@YAXPAPAPAUSNetServerPacket@@IABQAPAU1@@Z 004225c0 f i NetProviderModuleEx:NetProviderModule.obj
 0001:000215c0       ??$fill_n@PAPBDIPBD@std@@YAXPAPBDIABQBD@Z 004225c0 f i TimeProber.obj
 0001:000215c0       ??$fill_n@PAPAUSFactionData@@IPAU1@@std@@YAXPAPAUSFactionData@@IABQAU1@@Z 004225c0 f i GameObjects:FactionManager.obj
 0001:000215c0       ??$fill_n@PAPAU?$pair@U_SYSTEMTIME@@V?$map@PBDV?$deque@KV?$allocator@K@std@@@std@@U?$less@PBD@2@V?$allocator@U?$pair@QBDV?$deque@KV?$allocator@K@std@@@std@@@std@@@2@@std@@@std@@IPAU12@@std@@YAXPAPAU?$pair@U_SYSTEMTIME@@V?$map@PBDV?$deque@KV?$allocator@K@std@@@std@@U?$less@PBD@2@V?$allocator@U?$pair@QBDV?$deque@KV?$allocator@K@std@@@std@@@std@@@2@@std@@@0@IABQAU10@@Z 004225c0 f i TimeProber.obj
 0001:000215c0       ??$fill_n@PAPAKIPAK@std@@YAXPAPAKIABQAK@Z 004225c0 f i TimeProber.obj
 0001:000215c0       ??$fill_n@PAPAPAUSMoiler@@IPAPAU1@@std@@YAXPAPAPAUSMoiler@@IABQAPAU1@@Z 004225c0 f i MoilWorker.obj
 0001:000215c0       ??$fill_n@PAHIH@std@@YAXPAHIABH@Z 004225c0 f i GameObjects:ScriptManager.obj
 0001:000215c0       ??$fill_n@PAPAVBuffAction@@IPAV1@@std@@YAXPAPAVBuffAction@@IABQAV1@@Z 004225c0 f i GameObjects:BuffPropertyModify.obj
 0001:000215c0       ??$fill_n@PAPAPAXIPAPAX@std@@YAXPAPAPAXIABQAPAX@Z 004225c0 f i MoilWorker.obj
 0001:000215c0       ??$fill_n@PAPAVBuffTrigger@@IPAV1@@std@@YAXPAPAVBuffTrigger@@IABQAV1@@Z 004225c0 f i GameObjects:BuffPropertyModify.obj
 0001:000215c0       ??$fill_n@PAKIK@std@@YAXPAKIABK@Z 004225c0 f i GameObjects:Area.obj
 0001:000215c0       ??$fill_n@PAPAU_tagXMLNode@@IPAU1@@std@@YAXPAPAU_tagXMLNode@@IABQAU1@@Z 004225c0 f i GameObjects:BuffBaseData.obj
 0001:000215c0       ??$fill_n@PAPAPAUSNetServerPacketAdvEx@@IPAPAU1@@std@@YAXPAPAPAUSNetServerPacketAdvEx@@IABQAPAU1@@Z 004225c0 f i NetProviderModuleEx:NetProviderModuleAdvEx.obj
 0001:000215c0       ??$fill_n@PAPAU_tagXMLAttr@@IPAU1@@std@@YAXPAPAU_tagXMLAttr@@IABQAU1@@Z 004225c0 f i GameObjects:BuffBaseData.obj
 0001:000215c0       ??$fill_n@PAPAPAUSNetClientPacket@@IPAPAU1@@std@@YAXPAPAPAUSNetClientPacket@@IABQAPAU1@@Z 004225c0 f i NetConsumerModule:NetConsummerModule.obj
 0001:000215f0       ??$_Distance@Vconst_iterator@?$deque@KV?$allocator@K@std@@@std@@I@std@@YAXVconst_iterator@?$deque@KV?$allocator@K@std@@@0@0AAI@Z 004225f0 f i TimeProber.obj
 0001:00021630       ??$advance@Vconst_iterator@?$deque@KV?$allocator@K@std@@@std@@I@std@@YAXAAVconst_iterator@?$deque@KV?$allocator@K@std@@@0@I@Z 00422630 f i TimeProber.obj
 0001:00021660       ??$copy@Vconst_iterator@?$deque@KV?$allocator@K@std@@@std@@Viterator@23@@std@@YA?AViterator@?$deque@KV?$allocator@K@std@@@0@Vconst_iterator@20@0V120@@Z 00422660 f i TimeProber.obj
 0001:000216b0       ??$copy@Viterator@?$deque@KV?$allocator@K@std@@@std@@V123@@std@@YA?AViterator@?$deque@KV?$allocator@K@std@@@0@V120@00@Z 004226b0 f i TimeProber.obj
 0001:00021700       ??$copy_backward@Viterator@?$deque@KV?$allocator@K@std@@@std@@V123@@std@@YA?AViterator@?$deque@KV?$allocator@K@std@@@0@V120@00@Z 00422700 f i TimeProber.obj
 0001:00021750       ??$_Distance2@Vconst_iterator@?$deque@KV?$allocator@K@std@@@std@@I@std@@YAXVconst_iterator@?$deque@KV?$allocator@K@std@@@0@0AAIUrandom_access_iterator_tag@0@@Z 00422750 f i TimeProber.obj
 0001:00021770       ??$_Advance@Vconst_iterator@?$deque@KV?$allocator@K@std@@@std@@I@std@@YAXAAVconst_iterator@?$deque@KV?$allocator@K@std@@@0@IUrandom_access_iterator_tag@0@@Z 00422770 f i TimeProber.obj
 0001:00021790       ??$_Copy_opt@Vconst_iterator@?$deque@KV?$allocator@K@std@@@std@@Viterator@23@@std@@YA?AViterator@?$deque@KV?$allocator@K@std@@@0@Vconst_iterator@20@0V120@U_Nonscalar_ptr_iterator_tag@0@@Z 00422790 f i TimeProber.obj
 0001:000217f0       ??$_Copy_opt@Viterator@?$deque@KV?$allocator@K@std@@@std@@V123@@std@@YA?AViterator@?$deque@KV?$allocator@K@std@@@0@V120@00U_Nonscalar_ptr_iterator_tag@0@@Z 004227f0 f i TimeProber.obj
 0001:00021850       ??$_Copy_backward_opt@Viterator@?$deque@KV?$allocator@K@std@@@std@@V123@@std@@YA?AViterator@?$deque@KV?$allocator@K@std@@@0@V120@00U_Nonscalar_ptr_iterator_tag@0@@Z 00422850 f i TimeProber.obj
 0001:000218b0       ??Fconst_iterator@?$deque@KV?$allocator@K@std@@@std@@QAEAAV012@XZ 004228b0 f i TimeProber.obj
 0001:000218b0       ??Fiterator@?$deque@KV?$allocator@K@std@@@std@@QAEAAV012@XZ 004228b0 f i TimeProber.obj
 0001:000218d0       ?GetStringTime@@YAPBDK@Z   004228d0 f   traceinfo.obj
 0001:00021930       ?GetStringTime@@YAPBDXZ    00422930 f   traceinfo.obj
 0001:00021980       ?_GetStringTime@@YAPBDXZ   00422980 f   traceinfo.obj
 0001:000219d0       ?Singletion@@YAAAVCTraceInfo@@XZ 004229d0 f   traceinfo.obj
 0001:00021a40       ?TraceData@@YAHPBDPAXK@Z   00422a40 f   traceinfo.obj
 0001:00021a80       ?TraceInfoDirectly@@YAHPBD0@Z 00422a80 f   traceinfo.obj
 0001:00021ab0       ?TraceInfo@@YAHPBD0ZZ      00422ab0 f   traceinfo.obj
 0001:00021b50       ?TraceInfo_C@@YAHPBD0ZZ    00422b50 f   traceinfo.obj
 0001:00021cd0       ?TraceMsgInfo_C@@YAHPBD0ZZ 00422cd0 f   traceinfo.obj
 0001:00021e90       ?TraceInfoDirectly_C@@YAHPBD0@Z 00422e90 f   traceinfo.obj
 0001:00021f90       ?DelTraceLog@@YAXPBD@Z     00422f90 f   traceinfo.obj
 0001:00021fb0       ??0CTraceInfo@@QAE@XZ      00422fb0 f   traceinfo.obj
 0001:00022020       ??1CTraceInfo@@QAE@XZ      00423020 f   traceinfo.obj
 0001:000221c0       ?DelTraceFile@CTraceInfo@@QAEXPBD@Z 004231c0 f   traceinfo.obj
 0001:000222c0       ?OutTraceInfo@CTraceInfo@@QAEHPBD0@Z 004232c0 f   traceinfo.obj
 0001:000224f0       ?OutTraceData@CTraceInfo@@QAEHPBDPAXK@Z 004234f0 f   traceinfo.obj
 0001:00022730       ?PrintCallStackAddr@@YAXPBDH@Z 00423730 f   traceinfo.obj
 0001:00022850       ??1?$map@V?$basic_string@DU?$char_traits@D@std@@V?$allocator@D@2@@std@@USTraceFile@@U?$less@V?$basic_string@DU?$char_traits@D@std@@V?$allocator@D@2@@std@@@2@V?$allocator@U?$pair@$$CBV?$basic_string@DU?$char_traits@D@std@@V?$allocator@D@2@@std@@USTraceFile@@@std@@@2@@std@@QAE@XZ 00423850 f i traceinfo.obj
 0001:00022870       ??0?$map@V?$basic_string@DU?$char_traits@D@std@@V?$allocator@D@2@@std@@USTraceFile@@U?$less@V?$basic_string@DU?$char_traits@D@std@@V?$allocator@D@2@@std@@@2@V?$allocator@U?$pair@$$CBV?$basic_string@DU?$char_traits@D@std@@V?$allocator@D@2@@std@@USTraceFile@@@std@@@2@@std@@QAE@XZ 00423870 f i traceinfo.obj
 0001:000228a0       ??1?$_Tree@V?$_Tmap_traits@V?$basic_string@DU?$char_traits@D@std@@V?$allocator@D@2@@std@@USTraceFile@@U?$less@V?$basic_string@DU?$char_traits@D@std@@V?$allocator@D@2@@std@@@2@V?$allocator@U?$pair@$$CBV?$basic_string@DU?$char_traits@D@std@@V?$allocator@D@2@@std@@USTraceFile@@@std@@@2@$0A@@std@@@std@@QAE@XZ 004238a0 f i traceinfo.obj
 0001:000228c0       ?insert@?$_Tree@V?$_Tmap_traits@V?$basic_string@DU?$char_traits@D@std@@V?$allocator@D@2@@std@@USTraceFile@@U?$less@V?$basic_string@DU?$char_traits@D@std@@V?$allocator@D@2@@std@@@2@V?$allocator@U?$pair@$$CBV?$basic_string@DU?$char_traits@D@std@@V?$allocator@D@2@@std@@USTraceFile@@@std@@@2@$0A@@std@@@std@@QAE?AU?$pair@Viterator@?$_Tree@V?$_Tmap_traits@V?$basic_string@DU?$char_traits@D@std@@V?$allocator@D@2@@std@@USTraceFile@@U?$less@V?$basic_string@DU?$char_traits@D@std@@V?$allocator@D@2@@std@@@2@V?$allocator@U?$pair@$$CBV?$basic_string@DU?$char_traits@D@std@@V?$allocator@D@2@@std@@USTraceFile@@@std@@@2@$0A@@std@@@std@@_N@2@ABU?$pair@$$CBV?$basic_string@DU?$char_traits@D@std@@V?$allocator@D@2@@std@@USTraceFile@@@2@@Z 004238c0 f i traceinfo.obj
 0001:00022a70       ?erase@?$_Tree@V?$_Tmap_traits@V?$basic_string@DU?$char_traits@D@std@@V?$allocator@D@2@@std@@USTraceFile@@U?$less@V?$basic_string@DU?$char_traits@D@std@@V?$allocator@D@2@@std@@@2@V?$allocator@U?$pair@$$CBV?$basic_string@DU?$char_traits@D@std@@V?$allocator@D@2@@std@@USTraceFile@@@std@@@2@$0A@@std@@@std@@QAE?AViterator@12@V312@@Z 00423a70 f i traceinfo.obj
 0001:00023220       ?clear@?$_Tree@V?$_Tmap_traits@V?$basic_string@DU?$char_traits@D@std@@V?$allocator@D@2@@std@@USTraceFile@@U?$less@V?$basic_string@DU?$char_traits@D@std@@V?$allocator@D@2@@std@@@2@V?$allocator@U?$pair@$$CBV?$basic_string@DU?$char_traits@D@std@@V?$allocator@D@2@@std@@USTraceFile@@@std@@@2@$0A@@std@@@std@@QAEXXZ 00424220 f i traceinfo.obj
 0001:00023280       ??0?$pair@$$CBV?$basic_string@DU?$char_traits@D@std@@V?$allocator@D@2@@std@@USTraceFile@@@std@@QAE@ABV?$basic_string@DU?$char_traits@D@std@@V?$allocator@D@2@@1@ABUSTraceFile@@@Z 00424280 f i traceinfo.obj
 0001:000232b0       ?_Color@?$_Tree@V?$_Tmap_traits@V?$basic_string@DU?$char_traits@D@std@@V?$allocator@D@2@@std@@PAUCooler@@U?$less@V?$basic_string@DU?$char_traits@D@std@@V?$allocator@D@2@@std@@@2@V?$allocator@U?$pair@$$CBV?$basic_string@DU?$char_traits@D@std@@V?$allocator@D@2@@std@@PAUCooler@@@std@@@2@$0A@@std@@@std@@KAAADPAU_Node@?$_Tree_nod@V?$_Tmap_traits@V?$basic_string@DU?$char_traits@D@std@@V?$allocator@D@2@@std@@PAUCooler@@U?$less@V?$basic_string@DU?$char_traits@D@std@@V?$allocator@D@2@@std@@@2@V?$allocator@U?$pair@$$CBV?$basic_string@DU?$char_traits@D@std@@V?$allocator@D@2@@std@@PAUCooler@@@std@@@2@$0A@@std@@@2@@Z 004242b0 f i GameObjects:FightObject.obj
 0001:000232b0       ?_Color@?$_Tree@V?$_Tmap_traits@KUSFBData@@U?$less@K@std@@V?$allocator@U?$pair@$$CBKUSFBData@@@std@@@3@$0A@@std@@@std@@KAAADPAU_Node@?$_Tree_nod@V?$_Tmap_traits@KUSFBData@@U?$less@K@std@@V?$allocator@U?$pair@$$CBKUSFBData@@@std@@@3@$0A@@std@@@2@@Z 004242b0 f i GameObjects:Player.obj
 0001:000232b0       ?_Color@?$_Tree@V?$_Tmap_traits@V?$basic_string@DU?$char_traits@D@std@@V?$allocator@D@2@@std@@PAVBuffBase@@U?$less@V?$basic_string@DU?$char_traits@D@std@@V?$allocator@D@2@@std@@@2@V?$allocator@U?$pair@$$CBV?$basic_string@DU?$char_traits@D@std@@V?$allocator@D@2@@std@@PAVBuffBase@@@std@@@2@$0A@@std@@@std@@KAAADPAU_Node@?$_Tree_nod@V?$_Tmap_traits@V?$basic_string@DU?$char_traits@D@std@@V?$allocator@D@2@@std@@PAVBuffBase@@U?$less@V?$basic_string@DU?$char_traits@D@std@@V?$allocator@D@2@@std@@@2@V?$allocator@U?$pair@$$CBV?$basic_string@DU?$char_traits@D@std@@V?$allocator@D@2@@std@@PAVBuffBase@@@std@@@2@$0A@@std@@@2@@Z 004242b0 f i GameObjects:Player.obj
 0001:000232b0       ?_Color@?$_Tree@V?$_Tmap_traits@V?$basic_string@DU?$char_traits@D@std@@V?$allocator@D@2@@std@@USTraceFile@@U?$less@V?$basic_string@DU?$char_traits@D@std@@V?$allocator@D@2@@std@@@2@V?$allocator@U?$pair@$$CBV?$basic_string@DU?$char_traits@D@std@@V?$allocator@D@2@@std@@USTraceFile@@@std@@@2@$0A@@std@@@std@@KAAADPAU_Node@?$_Tree_nod@V?$_Tmap_traits@V?$basic_string@DU?$char_traits@D@std@@V?$allocator@D@2@@std@@USTraceFile@@U?$less@V?$basic_string@DU?$char_traits@D@std@@V?$allocator@D@2@@std@@@2@V?$allocator@U?$pair@$$CBV?$basic_string@DU?$char_traits@D@std@@V?$allocator@D@2@@std@@USTraceFile@@@std@@@2@$0A@@std@@@2@@Z 004242b0 f i traceinfo.obj
 0001:000232b0       ?_Color@?$_Tree@V?$_Tmap_traits@V?$basic_string@DU?$char_traits@D@std@@V?$allocator@D@2@@std@@HU?$less@V?$basic_string@DU?$char_traits@D@std@@V?$allocator@D@2@@std@@@2@V?$allocator@U?$pair@$$CBV?$basic_string@DU?$char_traits@D@std@@V?$allocator@D@2@@std@@H@std@@@2@$0A@@std@@@std@@KAAADPAU_Node@?$_Tree_nod@V?$_Tmap_traits@V?$basic_string@DU?$char_traits@D@std@@V?$allocator@D@2@@std@@HU?$less@V?$basic_string@DU?$char_traits@D@std@@V?$allocator@D@2@@std@@@2@V?$allocator@U?$pair@$$CBV?$basic_string@DU?$char_traits@D@std@@V?$allocator@D@2@@std@@H@std@@@2@$0A@@std@@@2@@Z 004242b0 f i 区域服务器.obj
 0001:000232b0       ?_Color@?$_Tree@V?$_Tmap_traits@V?$basic_string@DU?$char_traits@D@std@@V?$allocator@D@2@@std@@KU?$less@V?$basic_string@DU?$char_traits@D@std@@V?$allocator@D@2@@std@@@2@V?$allocator@U?$pair@$$CBV?$basic_string@DU?$char_traits@D@std@@V?$allocator@D@2@@std@@K@std@@@2@$0A@@std@@@std@@KAAADPAU_Node@?$_Tree_nod@V?$_Tmap_traits@V?$basic_string@DU?$char_traits@D@std@@V?$allocator@D@2@@std@@KU?$less@V?$basic_string@DU?$char_traits@D@std@@V?$allocator@D@2@@std@@@2@V?$allocator@U?$pair@$$CBV?$basic_string@DU?$char_traits@D@std@@V?$allocator@D@2@@std@@K@std@@@2@$0A@@std@@@2@@Z 004242b0 f i NetGMModule.obj
 0001:000232c0       ?_Isnil@?$_Tree@V?$_Tmap_traits@V?$basic_string@DU?$char_traits@D@std@@V?$allocator@D@2@@std@@PAVBuffBase@@U?$less@V?$basic_string@DU?$char_traits@D@std@@V?$allocator@D@2@@std@@@2@V?$allocator@U?$pair@$$CBV?$basic_string@DU?$char_traits@D@std@@V?$allocator@D@2@@std@@PAVBuffBase@@@std@@@2@$0A@@std@@@std@@KAAADPAU_Node@?$_Tree_nod@V?$_Tmap_traits@V?$basic_string@DU?$char_traits@D@std@@V?$allocator@D@2@@std@@PAVBuffBase@@U?$less@V?$basic_string@DU?$char_traits@D@std@@V?$allocator@D@2@@std@@@2@V?$allocator@U?$pair@$$CBV?$basic_string@DU?$char_traits@D@std@@V?$allocator@D@2@@std@@PAVBuffBase@@@std@@@2@$0A@@std@@@2@@Z 004242c0 f i GameObjects:Player.obj
 0001:000232c0       ?_Isnil@?$_Tree@V?$_Tmap_traits@V?$basic_string@DU?$char_traits@D@std@@V?$allocator@D@2@@std@@PAUCooler@@U?$less@V?$basic_string@DU?$char_traits@D@std@@V?$allocator@D@2@@std@@@2@V?$allocator@U?$pair@$$CBV?$basic_string@DU?$char_traits@D@std@@V?$allocator@D@2@@std@@PAUCooler@@@std@@@2@$0A@@std@@@std@@KAAADPAU_Node@?$_Tree_nod@V?$_Tmap_traits@V?$basic_string@DU?$char_traits@D@std@@V?$allocator@D@2@@std@@PAUCooler@@U?$less@V?$basic_string@DU?$char_traits@D@std@@V?$allocator@D@2@@std@@@2@V?$allocator@U?$pair@$$CBV?$basic_string@DU?$char_traits@D@std@@V?$allocator@D@2@@std@@PAUCooler@@@std@@@2@$0A@@std@@@2@@Z 004242c0 f i GameObjects:FightObject.obj
 0001:000232c0       ?_Isnil@?$_Tree@V?$_Tmap_traits@V?$basic_string@DU?$char_traits@D@std@@V?$allocator@D@2@@std@@KU?$less@V?$basic_string@DU?$char_traits@D@std@@V?$allocator@D@2@@std@@@2@V?$allocator@U?$pair@$$CBV?$basic_string@DU?$char_traits@D@std@@V?$allocator@D@2@@std@@K@std@@@2@$0A@@std@@@std@@KAAADPAU_Node@?$_Tree_nod@V?$_Tmap_traits@V?$basic_string@DU?$char_traits@D@std@@V?$allocator@D@2@@std@@KU?$less@V?$basic_string@DU?$char_traits@D@std@@V?$allocator@D@2@@std@@@2@V?$allocator@U?$pair@$$CBV?$basic_string@DU?$char_traits@D@std@@V?$allocator@D@2@@std@@K@std@@@2@$0A@@std@@@2@@Z 004242c0 f i NetGMModule.obj
 0001:000232c0       ?_Isnil@?$_Tree@V?$_Tmap_traits@V?$basic_string@DU?$char_traits@D@std@@V?$allocator@D@2@@std@@HU?$less@V?$basic_string@DU?$char_traits@D@std@@V?$allocator@D@2@@std@@@2@V?$allocator@U?$pair@$$CBV?$basic_string@DU?$char_traits@D@std@@V?$allocator@D@2@@std@@H@std@@@2@$0A@@std@@@std@@KAAADPAU_Node@?$_Tree_nod@V?$_Tmap_traits@V?$basic_string@DU?$char_traits@D@std@@V?$allocator@D@2@@std@@HU?$less@V?$basic_string@DU?$char_traits@D@std@@V?$allocator@D@2@@std@@@2@V?$allocator@U?$pair@$$CBV?$basic_string@DU?$char_traits@D@std@@V?$allocator@D@2@@std@@H@std@@@2@$0A@@std@@@2@@Z 004242c0 f i 区域服务器.obj
 0001:000232c0       ?_Isnil@?$_Tree@V?$_Tmap_traits@V?$basic_string@DU?$char_traits@D@std@@V?$allocator@D@2@@std@@USTraceFile@@U?$less@V?$basic_string@DU?$char_traits@D@std@@V?$allocator@D@2@@std@@@2@V?$allocator@U?$pair@$$CBV?$basic_string@DU?$char_traits@D@std@@V?$allocator@D@2@@std@@USTraceFile@@@std@@@2@$0A@@std@@@std@@KAAADPAU_Node@?$_Tree_nod@V?$_Tmap_traits@V?$basic_string@DU?$char_traits@D@std@@V?$allocator@D@2@@std@@USTraceFile@@U?$less@V?$basic_string@DU?$char_traits@D@std@@V?$allocator@D@2@@std@@@2@V?$allocator@U?$pair@$$CBV?$basic_string@DU?$char_traits@D@std@@V?$allocator@D@2@@std@@USTraceFile@@@std@@@2@$0A@@std@@@2@@Z 004242c0 f i traceinfo.obj
 0001:000232c0       ?_Isnil@?$_Tree@V?$_Tmap_traits@KUSFBData@@U?$less@K@std@@V?$allocator@U?$pair@$$CBKUSFBData@@@std@@@3@$0A@@std@@@std@@KAAADPAU_Node@?$_Tree_nod@V?$_Tmap_traits@KUSFBData@@U?$less@K@std@@V?$allocator@U?$pair@$$CBKUSFBData@@@std@@@3@$0A@@std@@@2@@Z 004242c0 f i GameObjects:Player.obj
 0001:000232d0       ??0?$_Tree@V?$_Tmap_traits@V?$basic_string@DU?$char_traits@D@std@@V?$allocator@D@2@@std@@USTraceFile@@U?$less@V?$basic_string@DU?$char_traits@D@std@@V?$allocator@D@2@@std@@@2@V?$allocator@U?$pair@$$CBV?$basic_string@DU?$char_traits@D@std@@V?$allocator@D@2@@std@@USTraceFile@@@std@@@2@$0A@@std@@@std@@QAE@ABU?$less@V?$basic_string@DU?$char_traits@D@std@@V?$allocator@D@2@@std@@@1@ABV?$allocator@U?$pair@$$CBV?$basic_string@DU?$char_traits@D@std@@V?$allocator@D@2@@std@@USTraceFile@@@std@@@1@@Z 004242d0 f i traceinfo.obj
 0001:00023310       ?lower_bound@?$_Tree@V?$_Tmap_traits@V?$basic_string@DU?$char_traits@D@std@@V?$allocator@D@2@@std@@USTraceFile@@U?$less@V?$basic_string@DU?$char_traits@D@std@@V?$allocator@D@2@@std@@@2@V?$allocator@U?$pair@$$CBV?$basic_string@DU?$char_traits@D@std@@V?$allocator@D@2@@std@@USTraceFile@@@std@@@2@$0A@@std@@@std@@QAE?AViterator@12@ABV?$basic_string@DU?$char_traits@D@std@@V?$allocator@D@2@@2@@Z 00424310 f i traceinfo.obj
 0001:00023310       ?lower_bound@?$_Tree@V?$_Tmap_traits@V?$basic_string@DU?$char_traits@D@std@@V?$allocator@D@2@@std@@PAUCooler@@U?$less@V?$basic_string@DU?$char_traits@D@std@@V?$allocator@D@2@@std@@@2@V?$allocator@U?$pair@$$CBV?$basic_string@DU?$char_traits@D@std@@V?$allocator@D@2@@std@@PAUCooler@@@std@@@2@$0A@@std@@@std@@QAE?AViterator@12@ABV?$basic_string@DU?$char_traits@D@std@@V?$allocator@D@2@@2@@Z 00424310 f i GameObjects:CooldownMgr.obj
 0001:00023310       ?lower_bound@?$_Tree@V?$_Tmap_traits@V?$basic_string@DU?$char_traits@D@std@@V?$allocator@D@2@@std@@PAVBuffBase@@U?$less@V?$basic_string@DU?$char_traits@D@std@@V?$allocator@D@2@@std@@@2@V?$allocator@U?$pair@$$CBV?$basic_string@DU?$char_traits@D@std@@V?$allocator@D@2@@std@@PAVBuffBase@@@std@@@2@$0A@@std@@@std@@QAE?AViterator@12@ABV?$basic_string@DU?$char_traits@D@std@@V?$allocator@D@2@@2@@Z 00424310 f i GameObjects:BuffEntityManager.obj
 0001:00023310       ?lower_bound@?$_Tree@V?$_Tmap_traits@V?$basic_string@DU?$char_traits@D@std@@V?$allocator@D@2@@std@@KU?$less@V?$basic_string@DU?$char_traits@D@std@@V?$allocator@D@2@@std@@@2@V?$allocator@U?$pair@$$CBV?$basic_string@DU?$char_traits@D@std@@V?$allocator@D@2@@std@@K@std@@@2@$0A@@std@@@std@@QAE?AViterator@12@ABV?$basic_string@DU?$char_traits@D@std@@V?$allocator@D@2@@2@@Z 00424310 f i NetGMModule.obj
 0001:00023310       ?lower_bound@?$_Tree@V?$_Tmap_traits@V?$basic_string@DU?$char_traits@D@std@@V?$allocator@D@2@@std@@HU?$less@V?$basic_string@DU?$char_traits@D@std@@V?$allocator@D@2@@std@@@2@V?$allocator@U?$pair@$$CBV?$basic_string@DU?$char_traits@D@std@@V?$allocator@D@2@@std@@H@std@@@2@$0A@@std@@@std@@QAE?AViterator@12@ABV?$basic_string@DU?$char_traits@D@std@@V?$allocator@D@2@@2@@Z 00424310 f i 区域服务器.obj
 0001:00023340       ?_Erase@?$_Tree@V?$_Tmap_traits@V?$basic_string@DU?$char_traits@D@std@@V?$allocator@D@2@@std@@USTraceFile@@U?$less@V?$basic_string@DU?$char_traits@D@std@@V?$allocator@D@2@@std@@@2@V?$allocator@U?$pair@$$CBV?$basic_string@DU?$char_traits@D@std@@V?$allocator@D@2@@std@@USTraceFile@@@std@@@2@$0A@@std@@@std@@IAEXPAU_Node@?$_Tree_nod@V?$_Tmap_traits@V?$basic_string@DU?$char_traits@D@std@@V?$allocator@D@2@@std@@USTraceFile@@U?$less@V?$basic_string@DU?$char_traits@D@std@@V?$allocator@D@2@@std@@@2@V?$allocator@U?$pair@$$CBV?$basic_string@DU?$char_traits@D@std@@V?$allocator@D@2@@std@@USTraceFile@@@std@@@2@$0A@@std@@@2@@Z 00424340 f i traceinfo.obj
 0001:000233c0       ?_Insert@?$_Tree@V?$_Tmap_traits@V?$basic_string@DU?$char_traits@D@std@@V?$allocator@D@2@@std@@USTraceFile@@U?$less@V?$basic_string@DU?$char_traits@D@std@@V?$allocator@D@2@@std@@@2@V?$allocator@U?$pair@$$CBV?$basic_string@DU?$char_traits@D@std@@V?$allocator@D@2@@std@@USTraceFile@@@std@@@2@$0A@@std@@@std@@IAE?AViterator@12@_NPAU_Node@?$_Tree_nod@V?$_Tmap_traits@V?$basic_string@DU?$char_traits@D@std@@V?$allocator@D@2@@std@@USTraceFile@@U?$less@V?$basic_string@DU?$char_traits@D@std@@V?$allocator@D@2@@std@@@2@V?$allocator@U?$pair@$$CBV?$basic_string@DU?$char_traits@D@std@@V?$allocator@D@2@@std@@USTraceFile@@@std@@@2@$0A@@std@@@2@ABU?$pair@$$CBV?$basic_string@DU?$char_traits@D@std@@V?$allocator@D@2@@std@@USTraceFile@@@2@@Z 004243c0 f i traceinfo.obj
 0001:00023820       ?_Max@?$_Tree@V?$_Tmap_traits@V?$basic_string@DU?$char_traits@D@std@@V?$allocator@D@2@@std@@USTraceFile@@U?$less@V?$basic_string@DU?$char_traits@D@std@@V?$allocator@D@2@@std@@@2@V?$allocator@U?$pair@$$CBV?$basic_string@DU?$char_traits@D@std@@V?$allocator@D@2@@std@@USTraceFile@@@std@@@2@$0A@@std@@@std@@KAPAU_Node@?$_Tree_nod@V?$_Tmap_traits@V?$basic_string@DU?$char_traits@D@std@@V?$allocator@D@2@@std@@USTraceFile@@U?$less@V?$basic_string@DU?$char_traits@D@std@@V?$allocator@D@2@@std@@@2@V?$allocator@U?$pair@$$CBV?$basic_string@DU?$char_traits@D@std@@V?$allocator@D@2@@std@@USTraceFile@@@std@@@2@$0A@@std@@@2@PAU342@@Z 00424820 f i traceinfo.obj
 0001:00023820       ?_Max@?$_Tree@V?$_Tmap_traits@KUSFBData@@U?$less@K@std@@V?$allocator@U?$pair@$$CBKUSFBData@@@std@@@3@$0A@@std@@@std@@KAPAU_Node@?$_Tree_nod@V?$_Tmap_traits@KUSFBData@@U?$less@K@std@@V?$allocator@U?$pair@$$CBKUSFBData@@@std@@@3@$0A@@std@@@2@PAU342@@Z 00424820 f i GameObjects:Player.obj
 0001:00023820       ?_Max@?$_Tree@V?$_Tmap_traits@V?$basic_string@DU?$char_traits@D@std@@V?$allocator@D@2@@std@@PAUCooler@@U?$less@V?$basic_string@DU?$char_traits@D@std@@V?$allocator@D@2@@std@@@2@V?$allocator@U?$pair@$$CBV?$basic_string@DU?$char_traits@D@std@@V?$allocator@D@2@@std@@PAUCooler@@@std@@@2@$0A@@std@@@std@@KAPAU_Node@?$_Tree_nod@V?$_Tmap_traits@V?$basic_string@DU?$char_traits@D@std@@V?$allocator@D@2@@std@@PAUCooler@@U?$less@V?$basic_string@DU?$char_traits@D@std@@V?$allocator@D@2@@std@@@2@V?$allocator@U?$pair@$$CBV?$basic_string@DU?$char_traits@D@std@@V?$allocator@D@2@@std@@PAUCooler@@@std@@@2@$0A@@std@@@2@PAU342@@Z 00424820 f i GameObjects:FightObject.obj
 0001:00023820       ?_Max@?$_Tree@V?$_Tmap_traits@V?$basic_string@DU?$char_traits@D@std@@V?$allocator@D@2@@std@@KU?$less@V?$basic_string@DU?$char_traits@D@std@@V?$allocator@D@2@@std@@@2@V?$allocator@U?$pair@$$CBV?$basic_string@DU?$char_traits@D@std@@V?$allocator@D@2@@std@@K@std@@@2@$0A@@std@@@std@@KAPAU_Node@?$_Tree_nod@V?$_Tmap_traits@V?$basic_string@DU?$char_traits@D@std@@V?$allocator@D@2@@std@@KU?$less@V?$basic_string@DU?$char_traits@D@std@@V?$allocator@D@2@@std@@@2@V?$allocator@U?$pair@$$CBV?$basic_string@DU?$char_traits@D@std@@V?$allocator@D@2@@std@@K@std@@@2@$0A@@std@@@2@PAU342@@Z 00424820 f i NetGMModule.obj
 0001:00023820       ?_Max@?$_Tree@V?$_Tmap_traits@V?$basic_string@DU?$char_traits@D@std@@V?$allocator@D@2@@std@@PAVBuffBase@@U?$less@V?$basic_string@DU?$char_traits@D@std@@V?$allocator@D@2@@std@@@2@V?$allocator@U?$pair@$$CBV?$basic_string@DU?$char_traits@D@std@@V?$allocator@D@2@@std@@PAVBuffBase@@@std@@@2@$0A@@std@@@std@@KAPAU_Node@?$_Tree_nod@V?$_Tmap_traits@V?$basic_string@DU?$char_traits@D@std@@V?$allocator@D@2@@std@@PAVBuffBase@@U?$less@V?$basic_string@DU?$char_traits@D@std@@V?$allocator@D@2@@std@@@2@V?$allocator@U?$pair@$$CBV?$basic_string@DU?$char_traits@D@std@@V?$allocator@D@2@@std@@PAVBuffBase@@@std@@@2@$0A@@std@@@2@PAU342@@Z 00424820 f i GameObjects:Player.obj
 0001:00023820       ?_Max@?$_Tree@V?$_Tmap_traits@V?$basic_string@DU?$char_traits@D@std@@V?$allocator@D@2@@std@@HU?$less@V?$basic_string@DU?$char_traits@D@std@@V?$allocator@D@2@@std@@@2@V?$allocator@U?$pair@$$CBV?$basic_string@DU?$char_traits@D@std@@V?$allocator@D@2@@std@@H@std@@@2@$0A@@std@@@std@@KAPAU_Node@?$_Tree_nod@V?$_Tmap_traits@V?$basic_string@DU?$char_traits@D@std@@V?$allocator@D@2@@std@@HU?$less@V?$basic_string@DU?$char_traits@D@std@@V?$allocator@D@2@@std@@@2@V?$allocator@U?$pair@$$CBV?$basic_string@DU?$char_traits@D@std@@V?$allocator@D@2@@std@@H@std@@@2@$0A@@std@@@2@PAU342@@Z 00424820 f i 区域服务器.obj
 0001:00023860       ?_Rrotate@?$_Tree@V?$_Tmap_traits@V?$basic_string@DU?$char_traits@D@std@@V?$allocator@D@2@@std@@KU?$less@V?$basic_string@DU?$char_traits@D@std@@V?$allocator@D@2@@std@@@2@V?$allocator@U?$pair@$$CBV?$basic_string@DU?$char_traits@D@std@@V?$allocator@D@2@@std@@K@std@@@2@$0A@@std@@@std@@IAEXPAU_Node@?$_Tree_nod@V?$_Tmap_traits@V?$basic_string@DU?$char_traits@D@std@@V?$allocator@D@2@@std@@KU?$less@V?$basic_string@DU?$char_traits@D@std@@V?$allocator@D@2@@std@@@2@V?$allocator@U?$pair@$$CBV?$basic_string@DU?$char_traits@D@std@@V?$allocator@D@2@@std@@K@std@@@2@$0A@@std@@@2@@Z 00424860 f i NetGMModule.obj
 0001:00023860       ?_Rrotate@?$_Tree@V?$_Tmap_traits@V?$basic_string@DU?$char_traits@D@std@@V?$allocator@D@2@@std@@USTraceFile@@U?$less@V?$basic_string@DU?$char_traits@D@std@@V?$allocator@D@2@@std@@@2@V?$allocator@U?$pair@$$CBV?$basic_string@DU?$char_traits@D@std@@V?$allocator@D@2@@std@@USTraceFile@@@std@@@2@$0A@@std@@@std@@IAEXPAU_Node@?$_Tree_nod@V?$_Tmap_traits@V?$basic_string@DU?$char_traits@D@std@@V?$allocator@D@2@@std@@USTraceFile@@U?$less@V?$basic_string@DU?$char_traits@D@std@@V?$allocator@D@2@@std@@@2@V?$allocator@U?$pair@$$CBV?$basic_string@DU?$char_traits@D@std@@V?$allocator@D@2@@std@@USTraceFile@@@std@@@2@$0A@@std@@@2@@Z 00424860 f i traceinfo.obj
 0001:00023860       ?_Rrotate@?$_Tree@V?$_Tmap_traits@KUSFBData@@U?$less@K@std@@V?$allocator@U?$pair@$$CBKUSFBData@@@std@@@3@$0A@@std@@@std@@IAEXPAU_Node@?$_Tree_nod@V?$_Tmap_traits@KUSFBData@@U?$less@K@std@@V?$allocator@U?$pair@$$CBKUSFBData@@@std@@@3@$0A@@std@@@2@@Z 00424860 f i GameObjects:Player.obj
 0001:00023860       ?_Rrotate@?$_Tree@V?$_Tmap_traits@V?$basic_string@DU?$char_traits@D@std@@V?$allocator@D@2@@std@@PAUCooler@@U?$less@V?$basic_string@DU?$char_traits@D@std@@V?$allocator@D@2@@std@@@2@V?$allocator@U?$pair@$$CBV?$basic_string@DU?$char_traits@D@std@@V?$allocator@D@2@@std@@PAUCooler@@@std@@@2@$0A@@std@@@std@@IAEXPAU_Node@?$_Tree_nod@V?$_Tmap_traits@V?$basic_string@DU?$char_traits@D@std@@V?$allocator@D@2@@std@@PAUCooler@@U?$less@V?$basic_string@DU?$char_traits@D@std@@V?$allocator@D@2@@std@@@2@V?$allocator@U?$pair@$$CBV?$basic_string@DU?$char_traits@D@std@@V?$allocator@D@2@@std@@PAUCooler@@@std@@@2@$0A@@std@@@2@@Z 00424860 f i GameObjects:FightObject.obj
 0001:00023860       ?_Rrotate@?$_Tree@V?$_Tmap_traits@V?$basic_string@DU?$char_traits@D@std@@V?$allocator@D@2@@std@@PAVBuffBase@@U?$less@V?$basic_string@DU?$char_traits@D@std@@V?$allocator@D@2@@std@@@2@V?$allocator@U?$pair@$$CBV?$basic_string@DU?$char_traits@D@std@@V?$allocator@D@2@@std@@PAVBuffBase@@@std@@@2@$0A@@std@@@std@@IAEXPAU_Node@?$_Tree_nod@V?$_Tmap_traits@V?$basic_string@DU?$char_traits@D@std@@V?$allocator@D@2@@std@@PAVBuffBase@@U?$less@V?$basic_string@DU?$char_traits@D@std@@V?$allocator@D@2@@std@@@2@V?$allocator@U?$pair@$$CBV?$basic_string@DU?$char_traits@D@std@@V?$allocator@D@2@@std@@PAVBuffBase@@@std@@@2@$0A@@std@@@2@@Z 00424860 f i GameObjects:Player.obj
 0001:00023860       ?_Rrotate@?$_Tree@V?$_Tmap_traits@V?$basic_string@DU?$char_traits@D@std@@V?$allocator@D@2@@std@@HU?$less@V?$basic_string@DU?$char_traits@D@std@@V?$allocator@D@2@@std@@@2@V?$allocator@U?$pair@$$CBV?$basic_string@DU?$char_traits@D@std@@V?$allocator@D@2@@std@@H@std@@@2@$0A@@std@@@std@@IAEXPAU_Node@?$_Tree_nod@V?$_Tmap_traits@V?$basic_string@DU?$char_traits@D@std@@V?$allocator@D@2@@std@@HU?$less@V?$basic_string@DU?$char_traits@D@std@@V?$allocator@D@2@@std@@@2@V?$allocator@U?$pair@$$CBV?$basic_string@DU?$char_traits@D@std@@V?$allocator@D@2@@std@@H@std@@@2@$0A@@std@@@2@@Z 00424860 f i 区域服务器.obj
 0001:00023990       ?_Tidy@?$_Tree@V?$_Tmap_traits@V?$basic_string@DU?$char_traits@D@std@@V?$allocator@D@2@@std@@USTraceFile@@U?$less@V?$basic_string@DU?$char_traits@D@std@@V?$allocator@D@2@@std@@@2@V?$allocator@U?$pair@$$CBV?$basic_string@DU?$char_traits@D@std@@V?$allocator@D@2@@std@@USTraceFile@@@std@@@2@$0A@@std@@@std@@IAEXXZ 00424990 f i traceinfo.obj
 0001:00023a40       ??0?$pair@Viterator@?$_Tree@V?$_Tmap_traits@IV?$shared_ptr@VIObject@@@boost@@U?$less@I@std@@V?$allocator@U?$pair@$$CBIV?$shared_ptr@VIObject@@@boost@@@std@@@4@$0A@@std@@@std@@_N@std@@QAE@ABViterator@?$_Tree@V?$_Tmap_traits@IV?$shared_ptr@VIObject@@@boost@@U?$less@I@std@@V?$allocator@U?$pair@$$CBIV?$shared_ptr@VIObject@@@boost@@@std@@@4@$0A@@std@@@1@AB_N@Z 00424a40 f i GameObjects:BaseObject.obj
 0001:00023a40       ??0?$pair@Viterator@?$_Tree@V?$_Tmap_traits@K_KU?$less@K@std@@V?$allocator@U?$pair@$$CBK_K@std@@@2@$0A@@std@@@std@@_N@std@@QAE@ABViterator@?$_Tree@V?$_Tmap_traits@K_KU?$less@K@std@@V?$allocator@U?$pair@$$CBK_K@std@@@2@$0A@@std@@@1@AB_N@Z 00424a40 f i GameObjects:ScriptManager.obj
 0001:00023a40       ??0?$pair@Viterator@?$_Tree@V?$_Tmap_traits@V?$basic_string@DU?$char_traits@D@std@@V?$allocator@D@2@@std@@HU?$less@V?$basic_string@DU?$char_traits@D@std@@V?$allocator@D@2@@std@@@2@V?$allocator@U?$pair@$$CBV?$basic_string@DU?$char_traits@D@std@@V?$allocator@D@2@@std@@H@std@@@2@$0A@@std@@@std@@_N@std@@QAE@ABViterator@?$_Tree@V?$_Tmap_traits@V?$basic_string@DU?$char_traits@D@std@@V?$allocator@D@2@@std@@HU?$less@V?$basic_string@DU?$char_traits@D@std@@V?$allocator@D@2@@std@@@2@V?$allocator@U?$pair@$$CBV?$basic_string@DU?$char_traits@D@std@@V?$allocator@D@2@@std@@H@std@@@2@$0A@@std@@@1@AB_N@Z 00424a40 f i 区域服务器.obj
 0001:00023a40       ??0?$pair@Viterator@?$_Tree@V?$_Tmap_traits@V?$basic_string@DU?$char_traits@D@std@@V?$allocator@D@2@@std@@PAVBuffBase@@U?$less@V?$basic_string@DU?$char_traits@D@std@@V?$allocator@D@2@@std@@@2@V?$allocator@U?$pair@$$CBV?$basic_string@DU?$char_traits@D@std@@V?$allocator@D@2@@std@@PAVBuffBase@@@std@@@2@$0A@@std@@@std@@_N@std@@QAE@ABViterator@?$_Tree@V?$_Tmap_traits@V?$basic_string@DU?$char_traits@D@std@@V?$allocator@D@2@@std@@PAVBuffBase@@U?$less@V?$basic_string@DU?$char_traits@D@std@@V?$allocator@D@2@@std@@@2@V?$allocator@U?$pair@$$CBV?$basic_string@DU?$char_traits@D@std@@V?$allocator@D@2@@std@@PAVBuffBase@@@std@@@2@$0A@@std@@@1@AB_N@Z 00424a40 f i GameObjects:BuffSystem.obj
 0001:00023a40       ??0?$pair@Viterator@?$_Tree@V?$_Tmap_traits@V?$basic_string@DU?$char_traits@D@std@@V?$allocator@D@2@@std@@PAUCooler@@U?$less@V?$basic_string@DU?$char_traits@D@std@@V?$allocator@D@2@@std@@@2@V?$allocator@U?$pair@$$CBV?$basic_string@DU?$char_traits@D@std@@V?$allocator@D@2@@std@@PAUCooler@@@std@@@2@$0A@@std@@@std@@_N@std@@QAE@ABViterator@?$_Tree@V?$_Tmap_traits@V?$basic_string@DU?$char_traits@D@std@@V?$allocator@D@2@@std@@PAUCooler@@U?$less@V?$basic_string@DU?$char_traits@D@std@@V?$allocator@D@2@@std@@@2@V?$allocator@U?$pair@$$CBV?$basic_string@DU?$char_traits@D@std@@V?$allocator@D@2@@std@@PAUCooler@@@std@@@2@$0A@@std@@@1@AB_N@Z 00424a40 f i GameObjects:CooldownMgr.obj
 0001:00023a40       ??0?$pair@Viterator@?$_Tree@V?$_Tset_traits@KU?$less@K@std@@V?$allocator@K@2@$0A@@std@@@std@@_N@std@@QAE@ABViterator@?$_Tree@V?$_Tset_traits@KU?$less@K@std@@V?$allocator@K@2@$0A@@std@@@1@AB_N@Z 00424a40 f i GameObjects:ExtraScriptFunctions.obj
 0001:00023a40       ??0?$pair@Viterator@?$_Tree@V?$_Tmap_traits@GGU?$less@G@std@@V?$allocator@U?$pair@$$CBGG@std@@@2@$0A@@std@@@std@@_N@std@@QAE@ABViterator@?$_Tree@V?$_Tmap_traits@GGU?$less@G@std@@V?$allocator@U?$pair@$$CBGG@std@@@2@$0A@@std@@@1@AB_N@Z 00424a40 f i GameObjects:MonsterDrop.obj
 0001:00023a40       ??0?$pair@Viterator@?$_Tree@V?$_Tmap_traits@HV?$shared_ptr@V?$pool@Udefault_user_allocator_new_delete@boost@@@boost@@@boost@@U?$less@H@std@@V?$allocator@U?$pair@$$CBHV?$shared_ptr@V?$pool@Udefault_user_allocator_new_delete@boost@@@boost@@@boost@@@std@@@4@$0A@@std@@@std@@_N@std@@QAE@ABViterator@?$_Tree@V?$_Tmap_traits@HV?$shared_ptr@V?$pool@Udefault_user_allocator_new_delete@boost@@@boost@@@boost@@U?$less@H@std@@V?$allocator@U?$pair@$$CBHV?$shared_ptr@V?$pool@Udefault_user_allocator_new_delete@boost@@@boost@@@boost@@@std@@@4@$0A@@std@@@1@AB_N@Z 00424a40 f i GameObjects:Region.obj
 0001:00023a40       ??0?$pair@Viterator@?$_Tree@V?$_Tmap_traits@_KVCLinkDataAdvEx@@U?$less@_K@std@@V?$allocator@U?$pair@$$CB_KVCLinkDataAdvEx@@@std@@@3@$0A@@std@@@std@@_N@std@@QAE@ABViterator@?$_Tree@V?$_Tmap_traits@_KVCLinkDataAdvEx@@U?$less@_K@std@@V?$allocator@U?$pair@$$CB_KVCLinkDataAdvEx@@@std@@@3@$0A@@std@@@1@AB_N@Z 00424a40 f i NetProviderModuleEx:NetProviderModuleAdvEx.obj
 0001:00023a40       ??0?$pair@Viterator@?$_Tree@V?$_Tmap_traits@GHU?$less@G@std@@V?$allocator@U?$pair@$$CBGH@std@@@2@$0A@@std@@@std@@_N@std@@QAE@ABViterator@?$_Tree@V?$_Tmap_traits@GHU?$less@G@std@@V?$allocator@U?$pair@$$CBGH@std@@@2@$0A@@std@@@1@AB_N@Z 00424a40 f i GameObjects:Region.obj
 0001:00023a40       ??0?$pair@Viterator@?$_Tree@V?$_Tmap_traits@V?$basic_string@DU?$char_traits@D@std@@V?$allocator@D@2@@std@@USTraceFile@@U?$less@V?$basic_string@DU?$char_traits@D@std@@V?$allocator@D@2@@std@@@2@V?$allocator@U?$pair@$$CBV?$basic_string@DU?$char_traits@D@std@@V?$allocator@D@2@@std@@USTraceFile@@@std@@@2@$0A@@std@@@std@@_N@std@@QAE@ABViterator@?$_Tree@V?$_Tmap_traits@V?$basic_string@DU?$char_traits@D@std@@V?$allocator@D@2@@std@@USTraceFile@@U?$less@V?$basic_string@DU?$char_traits@D@std@@V?$allocator@D@2@@std@@@2@V?$allocator@U?$pair@$$CBV?$basic_string@DU?$char_traits@D@std@@V?$allocator@D@2@@std@@USTraceFile@@@std@@@2@$0A@@std@@@1@AB_N@Z 00424a40 f i traceinfo.obj
 0001:00023a40       ??0?$pair@Viterator@?$_Tree@V?$_Tmap_traits@KUSHitData@CMonster@@U?$less@K@std@@V?$allocator@U?$pair@$$CBKUSHitData@CMonster@@@std@@@4@$0A@@std@@@std@@_N@std@@QAE@ABViterator@?$_Tree@V?$_Tmap_traits@KUSHitData@CMonster@@U?$less@K@std@@V?$allocator@U?$pair@$$CBKUSHitData@CMonster@@@std@@@4@$0A@@std@@@1@AB_N@Z 00424a40 f i GameObjects:Monster.obj
 0001:00023a40       ??0?$pair@Viterator@?$_Tree@V?$_Tmap_traits@V?$basic_string@DU?$char_traits@D@std@@V?$allocator@D@2@@std@@KU?$less@V?$basic_string@DU?$char_traits@D@std@@V?$allocator@D@2@@std@@@2@V?$allocator@U?$pair@$$CBV?$basic_string@DU?$char_traits@D@std@@V?$allocator@D@2@@std@@K@std@@@2@$0A@@std@@@std@@_N@std@@QAE@ABViterator@?$_Tree@V?$_Tmap_traits@V?$basic_string@DU?$char_traits@D@std@@V?$allocator@D@2@@std@@KU?$less@V?$basic_string@DU?$char_traits@D@std@@V?$allocator@D@2@@std@@@2@V?$allocator@U?$pair@$$CBV?$basic_string@DU?$char_traits@D@std@@V?$allocator@D@2@@std@@K@std@@@2@$0A@@std@@@1@AB_N@Z 00424a40 f i NetGMModule.obj
 0001:00023a40       ??0?$pair@Viterator@?$_Tree@V?$_Tmap_traits@V?$basic_string@DU?$char_traits@D@std@@V?$allocator@D@2@@std@@USTaskExBuffer@@U?$less@V?$basic_string@DU?$char_traits@D@std@@V?$allocator@D@2@@std@@@2@V?$allocator@U?$pair@$$CBV?$basic_string@DU?$char_traits@D@std@@V?$allocator@D@2@@std@@USTaskExBuffer@@@std@@@2@$0A@@std@@@std@@_N@std@@QAE@ABViterator@?$_Tree@V?$_Tmap_traits@V?$basic_string@DU?$char_traits@D@std@@V?$allocator@D@2@@std@@USTaskExBuffer@@U?$less@V?$basic_string@DU?$char_traits@D@std@@V?$allocator@D@2@@std@@@2@V?$allocator@U?$pair@$$CBV?$basic_string@DU?$char_traits@D@std@@V?$allocator@D@2@@std@@USTaskExBuffer@@@std@@@2@$0A@@std@@@1@AB_N@Z 00424a40 f i GameObjects:ExtraScriptFunctions.obj
 0001:00023a40       ??0?$pair@Viterator@?$_Tree@V?$_Tmap_traits@_KU?$pair@_K_K@std@@U?$less@_K@2@V?$allocator@U?$pair@$$CB_KU?$pair@_K_K@std@@@std@@@2@$0A@@std@@@std@@_N@std@@QAE@ABViterator@?$_Tree@V?$_Tmap_traits@_KU?$pair@_K_K@std@@U?$less@_K@2@V?$allocator@U?$pair@$$CB_KU?$pair@_K_K@std@@@std@@@2@$0A@@std@@@1@AB_N@Z 00424a40 f i NetProviderModuleEx:NetProviderModuleAdvEx.obj
 0001:00023a40       ??0?$pair@Viterator@?$_Tree@V?$_Tmap_traits@_KVCLinkData@@U?$less@_K@std@@V?$allocator@U?$pair@$$CB_KVCLinkData@@@std@@@3@$0A@@std@@@std@@_N@std@@QAE@ABViterator@?$_Tree@V?$_Tmap_traits@_KVCLinkData@@U?$less@_K@std@@V?$allocator@U?$pair@$$CB_KVCLinkData@@@std@@@3@$0A@@std@@@1@AB_N@Z 00424a40 f i NetProviderModuleEx:NetProviderModule.obj
 0001:00023a40       ??0?$pair@Viterator@?$_Tree@V?$_Tmap_traits@UPath@ProfileManager@jex@@UNode@23@U?$less@UPath@ProfileManager@jex@@@std@@V?$allocator@U?$pair@$$CBUPath@ProfileManager@jex@@UNode@23@@std@@@6@$0A@@std@@@std@@_N@std@@QAE@ABViterator@?$_Tree@V?$_Tmap_traits@UPath@ProfileManager@jex@@UNode@23@U?$less@UPath@ProfileManager@jex@@@std@@V?$allocator@U?$pair@$$CBUPath@ProfileManager@jex@@UNode@23@@std@@@6@$0A@@std@@@1@AB_N@Z 00424a40 f i TimeProber.obj
 0001:00023a40       ??0?$pair@Viterator@?$_Tree@V?$_Tmap_traits@KUIRcd@@U?$less@K@std@@V?$allocator@U?$pair@$$CBKUIRcd@@@std@@@3@$0A@@std@@@std@@_N@std@@QAE@ABViterator@?$_Tree@V?$_Tmap_traits@KUIRcd@@U?$less@K@std@@V?$allocator@U?$pair@$$CBKUIRcd@@@std@@@3@$0A@@std@@@1@AB_N@Z 00424a40 f i GameObjects:ItemData.obj
 0001:00023a40       ??0?$pair@Viterator@?$_Tree@V?$_Tmap_traits@KGU?$less@K@std@@V?$allocator@U?$pair@$$CBKG@std@@@2@$0A@@std@@@std@@_N@std@@QAE@ABViterator@?$_Tree@V?$_Tmap_traits@KGU?$less@K@std@@V?$allocator@U?$pair@$$CBKG@std@@@2@$0A@@std@@@1@AB_N@Z 00424a40 f i GameObjects:MonsterDrop.obj
 0001:00023a40       ??0?$pair@Viterator@?$_Tree@V?$_Tmap_traits@PBDUSortNode@ProfileManager@jex@@U?$less@PBD@std@@V?$allocator@U?$pair@QBDUSortNode@ProfileManager@jex@@@std@@@5@$0A@@std@@@std@@_N@std@@QAE@ABViterator@?$_Tree@V?$_Tmap_traits@PBDUSortNode@ProfileManager@jex@@U?$less@PBD@std@@V?$allocator@U?$pair@QBDUSortNode@ProfileManager@jex@@@std@@@5@$0A@@std@@@1@AB_N@Z 00424a40 f i TimeProber.obj
 0001:00023a40       ??0?$pair@Viterator@?$_Tree@V?$_Tmap_traits@KKU?$less@K@std@@V?$allocator@U?$pair@$$CBKK@std@@@2@$0A@@std@@@std@@_N@std@@QAE@ABViterator@?$_Tree@V?$_Tmap_traits@KKU?$less@K@std@@V?$allocator@U?$pair@$$CBKK@std@@@2@$0A@@std@@@1@AB_N@Z 00424a40 f i GameObjects:Player.obj
 0001:00023a40       ??0?$pair@Viterator@?$_Tree@V?$_Tmap_traits@V?$basic_string@DU?$char_traits@D@std@@V?$allocator@D@2@@std@@UCMD_FUNCDATA@StaticSingleton@@U?$less@V?$basic_string@DU?$char_traits@D@std@@V?$allocator@D@2@@std@@@2@V?$allocator@U?$pair@$$CBV?$basic_string@DU?$char_traits@D@std@@V?$allocator@D@2@@std@@UCMD_FUNCDATA@StaticSingleton@@@std@@@2@$0A@@std@@@std@@_N@std@@QAE@ABViterator@?$_Tree@V?$_Tmap_traits@V?$basic_string@DU?$char_traits@D@std@@V?$allocator@D@2@@std@@UCMD_FUNCDATA@StaticSingleton@@U?$less@V?$basic_string@DU?$char_traits@D@std@@V?$allocator@D@2@@std@@@2@V?$allocator@U?$pair@$$CBV?$basic_string@DU?$char_traits@D@std@@V?$allocator@D@2@@std@@UCMD_FUNCDATA@StaticSingleton@@@std@@@2@$0A@@std@@@1@AB_N@Z 00424a40 f i StdFrame.obj
 0001:00023a40       ??0?$pair@Viterator@?$_Tree@V?$_Tmap_traits@HVCTrigger@@U?$less@H@std@@V?$allocator@U?$pair@$$CBHVCTrigger@@@std@@@3@$0A@@std@@@std@@_N@std@@QAE@ABViterator@?$_Tree@V?$_Tmap_traits@HVCTrigger@@U?$less@H@std@@V?$allocator@U?$pair@$$CBHVCTrigger@@@std@@@3@$0A@@std@@@1@AB_N@Z 00424a40 f i GameObjects:Region.obj
 0001:00023a40       ??0?$pair@Viterator@?$_Tree@V?$_Tmap_traits@KUSTraceOBJ@CFuncTrace@@U?$less@K@std@@V?$allocator@U?$pair@$$CBKUSTraceOBJ@CFuncTrace@@@std@@@4@$0A@@std@@@std@@_N@std@@QAE@ABViterator@?$_Tree@V?$_Tmap_traits@KUSTraceOBJ@CFuncTrace@@U?$less@K@std@@V?$allocator@U?$pair@$$CBKUSTraceOBJ@CFuncTrace@@@std@@@4@$0A@@std@@@1@AB_N@Z 00424a40 f i GameObjects:xyLog.obj
 0001:00023a40       ??0?$pair@Viterator@?$_Tree@V?$_Tmap_traits@V?$stringkey@$$BY0BF@D@dwt@@KU?$less@V?$stringkey@$$BY0BF@D@dwt@@@std@@V?$allocator@U?$pair@$$CBV?$stringkey@$$BY0BF@D@dwt@@K@std@@@4@$0A@@std@@@std@@_N@std@@QAE@ABViterator@?$_Tree@V?$_Tmap_traits@V?$stringkey@$$BY0BF@D@dwt@@KU?$less@V?$stringkey@$$BY0BF@D@dwt@@@std@@V?$allocator@U?$pair@$$CBV?$stringkey@$$BY0BF@D@dwt@@K@std@@@4@$0A@@std@@@1@AB_N@Z 00424a40 f i GameObjects:PlayerManager.obj
 0001:00023a40       ??0?$pair@Viterator@?$_Tree@V?$_Tmap_traits@_KKU?$less@_K@std@@V?$allocator@U?$pair@$$CB_KK@std@@@2@$0A@@std@@@std@@_N@std@@QAE@ABViterator@?$_Tree@V?$_Tmap_traits@_KKU?$less@_K@std@@V?$allocator@U?$pair@$$CB_KK@std@@@2@$0A@@std@@@1@AB_N@Z 00424a40 f i GameObjects:PlayerManager.obj
 0001:00023a40       ??0?$pair@Viterator@?$_Tree@V?$_Tmap_traits@KUSFactionData@@U?$less@K@std@@V?$allocator@U?$pair@$$CBKUSFactionData@@@std@@@3@$0A@@std@@@std@@_N@std@@QAE@ABViterator@?$_Tree@V?$_Tmap_traits@KUSFactionData@@U?$less@K@std@@V?$allocator@U?$pair@$$CBKUSFactionData@@@std@@@3@$0A@@std@@@1@AB_N@Z 00424a40 f i GameObjects:FactionManager.obj
 0001:00023a40       ??0?$pair@Viterator@?$_Tree@V?$_Tmap_traits@KUTeam@@U?$less@K@std@@V?$allocator@U?$pair@$$CBKUTeam@@@std@@@3@$0A@@std@@@std@@_N@std@@QAE@ABViterator@?$_Tree@V?$_Tmap_traits@KUTeam@@U?$less@K@std@@V?$allocator@U?$pair@$$CBKUTeam@@@std@@@3@$0A@@std@@@1@AB_N@Z 00424a40 f i GameObjects:TeamManager.obj
 0001:00023a40       ??0?$pair@Viterator@?$_Tree@V?$_Tmap_traits@GV?$map@KGU?$less@K@std@@V?$allocator@U?$pair@$$CBKG@std@@@2@@std@@U?$less@G@2@V?$allocator@U?$pair@$$CBGV?$map@KGU?$less@K@std@@V?$allocator@U?$pair@$$CBKG@std@@@2@@std@@@std@@@2@$0A@@std@@@std@@_N@std@@QAE@ABViterator@?$_Tree@V?$_Tmap_traits@GV?$map@KGU?$less@K@std@@V?$allocator@U?$pair@$$CBKG@std@@@2@@std@@U?$less@G@2@V?$allocator@U?$pair@$$CBGV?$map@KGU?$less@K@std@@V?$allocator@U?$pair@$$CBKG@std@@@2@@std@@@std@@@2@$0A@@std@@@1@AB_N@Z 00424a40 f i GameObjects:MonsterDrop.obj
 0001:00023a40       ??0?$pair@Viterator@?$_Tree@V?$_Tmap_traits@PBDV?$deque@KV?$allocator@K@std@@@std@@U?$less@PBD@2@V?$allocator@U?$pair@QBDV?$deque@KV?$allocator@K@std@@@std@@@std@@@2@$0A@@std@@@std@@_N@std@@QAE@ABViterator@?$_Tree@V?$_Tmap_traits@PBDV?$deque@KV?$allocator@K@std@@@std@@U?$less@PBD@2@V?$allocator@U?$pair@QBDV?$deque@KV?$allocator@K@std@@@std@@@std@@@2@$0A@@std@@@1@AB_N@Z 00424a40 f i TimeProber.obj
 0001:00023a40       ??0?$pair@Viterator@?$_Tree@V?$_Tmap_traits@V?$basic_string@DU?$char_traits@D@std@@V?$allocator@D@2@@std@@UNode@ProfileManager@jex@@U?$less@V?$basic_string@DU?$char_traits@D@std@@V?$allocator@D@2@@std@@@2@V?$allocator@U?$pair@$$CBV?$basic_string@DU?$char_traits@D@std@@V?$allocator@D@2@@std@@UNode@ProfileManager@jex@@@std@@@2@$0A@@std@@@std@@_N@std@@QAE@ABViterator@?$_Tree@V?$_Tmap_traits@V?$basic_string@DU?$char_traits@D@std@@V?$allocator@D@2@@std@@UNode@ProfileManager@jex@@U?$less@V?$basic_string@DU?$char_traits@D@std@@V?$allocator@D@2@@std@@@2@V?$allocator@U?$pair@$$CBV?$basic_string@DU?$char_traits@D@std@@V?$allocator@D@2@@std@@UNode@ProfileManager@jex@@@std@@@2@$0A@@std@@@1@AB_N@Z 00424a40 f i TimeProber.obj
 0001:00023a40       ??0?$pair@Viterator@?$_Tree@V?$_Tset_traits@GU?$less@G@std@@V?$allocator@G@2@$0A@@std@@@std@@_N@std@@QAE@ABViterator@?$_Tree@V?$_Tset_traits@GU?$less@G@std@@V?$allocator@G@2@$0A@@std@@@1@AB_N@Z 00424a40 f i GameObjects:ExtraScriptFunctions.obj
 0001:00023a40       ??0?$pair@Viterator@?$_Tree@V?$_Tmap_traits@GJU?$less@G@std@@V?$allocator@U?$pair@$$CBGJ@std@@@2@$0A@@std@@@std@@_N@std@@QAE@ABViterator@?$_Tree@V?$_Tmap_traits@GJU?$less@G@std@@V?$allocator@U?$pair@$$CBGJ@std@@@2@$0A@@std@@@1@AB_N@Z 00424a40 f i GameObjects:Item.obj
 0001:00023a40       ??0?$pair@Viterator@?$_Tree@V?$_Tmap_traits@KUSFBData@@U?$less@K@std@@V?$allocator@U?$pair@$$CBKUSFBData@@@std@@@3@$0A@@std@@@std@@_N@std@@QAE@ABViterator@?$_Tree@V?$_Tmap_traits@KUSFBData@@U?$less@K@std@@V?$allocator@U?$pair@$$CBKUSFBData@@@std@@@3@$0A@@std@@@1@AB_N@Z 00424a40 f i GameObjects:Relation.obj
 0001:00023a40       ??0?$pair@Viterator@?$_Tree@V?$_Tmap_traits@HV?$vector@USItemOddsTabledata@@V?$allocator@USItemOddsTabledata@@@std@@@std@@U?$less@H@2@V?$allocator@U?$pair@$$CBHV?$vector@USItemOddsTabledata@@V?$allocator@USItemOddsTabledata@@@std@@@std@@@std@@@2@$0A@@std@@@std@@_N@std@@QAE@ABViterator@?$_Tree@V?$_Tmap_traits@HV?$vector@USItemOddsTabledata@@V?$allocator@USItemOddsTabledata@@@std@@@std@@U?$less@H@2@V?$allocator@U?$pair@$$CBHV?$vector@USItemOddsTabledata@@V?$allocator@USItemOddsTabledata@@@std@@@std@@@std@@@2@$0A@@std@@@1@AB_N@Z 00424a40 f i GameObjects:DynDropTable.obj
 0001:00023a70       ?erase@?$_Tree@V?$_Tmap_traits@V?$basic_string@DU?$char_traits@D@std@@V?$allocator@D@2@@std@@USTraceFile@@U?$less@V?$basic_string@DU?$char_traits@D@std@@V?$allocator@D@2@@std@@@2@V?$allocator@U?$pair@$$CBV?$basic_string@DU?$char_traits@D@std@@V?$allocator@D@2@@std@@USTraceFile@@@std@@@2@$0A@@std@@@std@@QAE?AViterator@12@V312@0@Z 00424a70 f i traceinfo.obj
 0001:00023b10       ?_Init@?$_Tree@V?$_Tmap_traits@V?$basic_string@DU?$char_traits@D@std@@V?$allocator@D@2@@std@@USTraceFile@@U?$less@V?$basic_string@DU?$char_traits@D@std@@V?$allocator@D@2@@std@@@2@V?$allocator@U?$pair@$$CBV?$basic_string@DU?$char_traits@D@std@@V?$allocator@D@2@@std@@USTraceFile@@@std@@@2@$0A@@std@@@std@@IAEXXZ 00424b10 f i traceinfo.obj
 0001:00023b80       ?_Buynode@?$_Tree@V?$_Tmap_traits@V?$basic_string@DU?$char_traits@D@std@@V?$allocator@D@2@@std@@USTraceFile@@U?$less@V?$basic_string@DU?$char_traits@D@std@@V?$allocator@D@2@@std@@@2@V?$allocator@U?$pair@$$CBV?$basic_string@DU?$char_traits@D@std@@V?$allocator@D@2@@std@@USTraceFile@@@std@@@2@$0A@@std@@@std@@IAEPAU_Node@?$_Tree_nod@V?$_Tmap_traits@V?$basic_string@DU?$char_traits@D@std@@V?$allocator@D@2@@std@@USTraceFile@@U?$less@V?$basic_string@DU?$char_traits@D@std@@V?$allocator@D@2@@std@@@2@V?$allocator@U?$pair@$$CBV?$basic_string@DU?$char_traits@D@std@@V?$allocator@D@2@@std@@USTraceFile@@@std@@@2@$0A@@std@@@2@PAU342@00ABU?$pair@$$CBV?$basic_string@DU?$char_traits@D@std@@V?$allocator@D@2@@std@@USTraceFile@@@2@D@Z 00424b80 f i traceinfo.obj
 0001:00023c50       ?_Buynode@?$_Tree@V?$_Tmap_traits@V?$basic_string@DU?$char_traits@D@std@@V?$allocator@D@2@@std@@USTraceFile@@U?$less@V?$basic_string@DU?$char_traits@D@std@@V?$allocator@D@2@@std@@@2@V?$allocator@U?$pair@$$CBV?$basic_string@DU?$char_traits@D@std@@V?$allocator@D@2@@std@@USTraceFile@@@std@@@2@$0A@@std@@@std@@IAEPAU_Node@?$_Tree_nod@V?$_Tmap_traits@V?$basic_string@DU?$char_traits@D@std@@V?$allocator@D@2@@std@@USTraceFile@@U?$less@V?$basic_string@DU?$char_traits@D@std@@V?$allocator@D@2@@std@@@2@V?$allocator@U?$pair@$$CBV?$basic_string@DU?$char_traits@D@std@@V?$allocator@D@2@@std@@USTraceFile@@@std@@@2@$0A@@std@@@2@XZ 00424c50 f i traceinfo.obj
 0001:00023dc0       ??0_Node@?$_Tree_nod@V?$_Tmap_traits@V?$basic_string@DU?$char_traits@D@std@@V?$allocator@D@2@@std@@USTraceFile@@U?$less@V?$basic_string@DU?$char_traits@D@std@@V?$allocator@D@2@@std@@@2@V?$allocator@U?$pair@$$CBV?$basic_string@DU?$char_traits@D@std@@V?$allocator@D@2@@std@@USTraceFile@@@std@@@2@$0A@@std@@@std@@QAE@PAU012@00ABU?$pair@$$CBV?$basic_string@DU?$char_traits@D@std@@V?$allocator@D@2@@std@@USTraceFile@@@2@D@Z 00424dc0 f i traceinfo.obj
 0001:00023e10       ??0?$pair@$$CBV?$basic_string@DU?$char_traits@D@std@@V?$allocator@D@2@@std@@USTraceFile@@@std@@QAE@ABU01@@Z 00424e10 f i traceinfo.obj
 0001:00023e40       ??$strcpy_s@$0L@@@YAXAAY0L@DPBD@Z 00424e40 f i traceinfo.obj
 0001:00023e60       ??_G_Node@?$_Tree_nod@V?$_Tmap_traits@V?$basic_string@DU?$char_traits@D@std@@V?$allocator@D@2@@std@@PAUCooler@@U?$less@V?$basic_string@DU?$char_traits@D@std@@V?$allocator@D@2@@std@@@2@V?$allocator@U?$pair@$$CBV?$basic_string@DU?$char_traits@D@std@@V?$allocator@D@2@@std@@PAUCooler@@@std@@@2@$0A@@std@@@std@@QAEPAXI@Z 00424e60 f i GameObjects:FightObject.obj
 0001:00023e60       ??_G_Node@?$_Tree_nod@V?$_Tmap_traits@V?$basic_string@DU?$char_traits@D@std@@V?$allocator@D@2@@std@@PAVBuffBase@@U?$less@V?$basic_string@DU?$char_traits@D@std@@V?$allocator@D@2@@std@@@2@V?$allocator@U?$pair@$$CBV?$basic_string@DU?$char_traits@D@std@@V?$allocator@D@2@@std@@PAVBuffBase@@@std@@@2@$0A@@std@@@std@@QAEPAXI@Z 00424e60 f i GameObjects:Player.obj
 0001:00023e60       ??_G_Node@?$_Tree_nod@V?$_Tmap_traits@V?$basic_string@DU?$char_traits@D@std@@V?$allocator@D@2@@std@@HU?$less@V?$basic_string@DU?$char_traits@D@std@@V?$allocator@D@2@@std@@@2@V?$allocator@U?$pair@$$CBV?$basic_string@DU?$char_traits@D@std@@V?$allocator@D@2@@std@@H@std@@@2@$0A@@std@@@std@@QAEPAXI@Z 00424e60 f i 区域服务器.obj
 0001:00023e60       ??_G_Node@?$_Tree_nod@V?$_Tmap_traits@V?$basic_string@DU?$char_traits@D@std@@V?$allocator@D@2@@std@@KU?$less@V?$basic_string@DU?$char_traits@D@std@@V?$allocator@D@2@@std@@@2@V?$allocator@U?$pair@$$CBV?$basic_string@DU?$char_traits@D@std@@V?$allocator@D@2@@std@@K@std@@@2@$0A@@std@@@std@@QAEPAXI@Z 00424e60 f i NetGMModule.obj
 0001:00023e60       ??_G_Node@?$_Tree_nod@V?$_Tmap_traits@V?$basic_string@DU?$char_traits@D@std@@V?$allocator@D@2@@std@@USTraceFile@@U?$less@V?$basic_string@DU?$char_traits@D@std@@V?$allocator@D@2@@std@@@2@V?$allocator@U?$pair@$$CBV?$basic_string@DU?$char_traits@D@std@@V?$allocator@D@2@@std@@USTraceFile@@@std@@@2@$0A@@std@@@std@@QAEPAXI@Z 00424e60 f i traceinfo.obj
 0001:00023e90       ??1_Node@?$_Tree_nod@V?$_Tmap_traits@V?$basic_string@DU?$char_traits@D@std@@V?$allocator@D@2@@std@@PAUCooler@@U?$less@V?$basic_string@DU?$char_traits@D@std@@V?$allocator@D@2@@std@@@2@V?$allocator@U?$pair@$$CBV?$basic_string@DU?$char_traits@D@std@@V?$allocator@D@2@@std@@PAUCooler@@@std@@@2@$0A@@std@@@std@@QAE@XZ 00424e90 f i GameObjects:FightObject.obj
 0001:00023e90       ??1_Node@?$_Tree_nod@V?$_Tmap_traits@V?$basic_string@DU?$char_traits@D@std@@V?$allocator@D@2@@std@@KU?$less@V?$basic_string@DU?$char_traits@D@std@@V?$allocator@D@2@@std@@@2@V?$allocator@U?$pair@$$CBV?$basic_string@DU?$char_traits@D@std@@V?$allocator@D@2@@std@@K@std@@@2@$0A@@std@@@std@@QAE@XZ 00424e90 f i NetGMModule.obj
 0001:00023e90       ??1_Node@?$_Tree_nod@V?$_Tmap_traits@V?$basic_string@DU?$char_traits@D@std@@V?$allocator@D@2@@std@@HU?$less@V?$basic_string@DU?$char_traits@D@std@@V?$allocator@D@2@@std@@@2@V?$allocator@U?$pair@$$CBV?$basic_string@DU?$char_traits@D@std@@V?$allocator@D@2@@std@@H@std@@@2@$0A@@std@@@std@@QAE@XZ 00424e90 f i 区域服务器.obj
 0001:00023e90       ??1_Node@?$_Tree_nod@V?$_Tmap_traits@V?$basic_string@DU?$char_traits@D@std@@V?$allocator@D@2@@std@@PAVBuffBase@@U?$less@V?$basic_string@DU?$char_traits@D@std@@V?$allocator@D@2@@std@@@2@V?$allocator@U?$pair@$$CBV?$basic_string@DU?$char_traits@D@std@@V?$allocator@D@2@@std@@PAVBuffBase@@@std@@@2@$0A@@std@@@std@@QAE@XZ 00424e90 f i GameObjects:Player.obj
 0001:00023e90       ??1_Node@?$_Tree_nod@V?$_Tmap_traits@V?$basic_string@DU?$char_traits@D@std@@V?$allocator@D@2@@std@@USTraceFile@@U?$less@V?$basic_string@DU?$char_traits@D@std@@V?$allocator@D@2@@std@@@2@V?$allocator@U?$pair@$$CBV?$basic_string@DU?$char_traits@D@std@@V?$allocator@D@2@@std@@USTraceFile@@@std@@@2@$0A@@std@@@std@@QAE@XZ 00424e90 f i traceinfo.obj
 0001:00023eb0       ?IsBadStringPtrA@dwt@@YAHPBDK@Z 00424eb0 f i traceinfo.obj
 0001:00023f30       ??_E?$basic_ofstream@DU?$char_traits@D@std@@@std@@UAEPAXI@Z 00424f30 f i traceinfo.obj
 0001:00023f30       ??_G?$basic_ofstream@DU?$char_traits@D@std@@@std@@UAEPAXI@Z 00424f30 f i traceinfo.obj
 0001:00023f70       ?CheckConnectState@@YAXPAUSADBCConnectStateMsg@@@Z 00424f70 f   NetLoginServerModule.obj
 0001:00023f80       ??0CNetLoginServerModule@@QAE@XZ 00424f80 f   NetLoginServerModule.obj
 0001:00023fb0       ??1CNetLoginServerModule@@QAE@XZ 00424fb0 f   NetLoginServerModule.obj
 0001:00023fd0       ?Execution@CNetLoginServerModule@@QAEHXZ 00424fd0 f   NetLoginServerModule.obj
 0001:00024020       ?SendMsgToLoginSrv@CNetLoginServerModule@@QAEHPAUSMessage@@H@Z 00425020 f   NetLoginServerModule.obj
 0001:00024050       ?OnDispatch@CNetLoginServerModule@@QAE_NPAXI@Z 00425050 f   NetLoginServerModule.obj
 0001:000246f0       ?RecvRefreshMsg@CNetLoginServerModule@@QAEXPAUSRefreshBaseMsg@@@Z 004256f0 f   NetLoginServerModule.obj
 0001:00024ab0       ?RecvCtrlMsg@CNetLoginServerModule@@QAEXPAUSServerCtrlMsg@@@Z 00425ab0 f   NetLoginServerModule.obj
 0001:00024ba0       ?RecvCheckRebind@CNetLoginServerModule@@QAEXPAUSACheckRebindMsg@@@Z 00425ba0 f   NetLoginServerModule.obj
 0001:00025170       ?RecvLoginMessage@CNetLoginServerModule@@QAEXPAUSALoginMsg@@@Z 00426170 f   NetLoginServerModule.obj
 0001:000252b0       ?SendRefreshPlayerMessage@@YAHHKPBDPAUSFixProperty@typedef_v6@@@Z 004262b0 f   NetLoginServerModule.obj
 0001:00025570       ?GetMySize@SARefreshRegionServerMsg@@QAEHXZ 00426570 f i NetLoginServerModule.obj
 0001:000255b0       ?get@CGlobalCount@@QAEKE@Z 004265b0 f i NetLoginServerModule.obj
 0001:000255f0       ?GetSpendMoney@CDAppMain@@QAE_JXZ 004265f0 f i NetLoginServerModule.obj
 0001:00025610       ??0SARefreshRegionServerMsg@@QAE@XZ 00426610 f i NetLoginServerModule.obj
 0001:00025610       ??0SARefreshRegionServerMsgEx@@QAE@XZ 00426610 f i NetLoginServerModule.obj
 0001:00025630       ??0SRefreshRegionServerMsg@@QAE@XZ 00426630 f i NetLoginServerModule.obj
 0001:00025650       ??0SRefreshBaseMsg@@QAE@XZ 00426650 f i NetLoginServerModule.obj
 0001:00025670       ??0SRebindRegionServerMsg@@QAE@XZ 00426670 f i NetLoginServerModule.obj
 0001:00025690       ??0SRebindMsg@@QAE@XZ      00426690 f i NetLoginServerModule.obj
 0001:000256b0       ??0SGetPlayerDataMsg@@QAE@XZ 004266b0 f i NetLoginServerModule.obj
 0001:000256d0       ??0SPlayerDataMsg@@QAE@XZ  004266d0 f i NetLoginServerModule.obj
 0001:000256f0       ??0SServerCtrlMsg@@QAE@XZ  004266f0 f i NetLoginServerModule.obj
 0001:00025710       ?GetVersion@SFixProperty@typedef_v6@@SAKXZ 00426710 f i NetLoginServerModule.obj
 0001:00025720       ??0SARefreshPlayerMsg@@QAE@XZ 00426720 f i NetLoginServerModule.obj
 0001:00025750       ??0SRefreshPlayerMsg@@QAE@XZ 00426750 f i NetLoginServerModule.obj
 0001:00025770       ??7?$shared_ptr@VIObject@@@boost@@QBE_NXZ 00426770 f i NetLoginServerModule.obj
 0001:00025770       ?empty@?$simple_segregated_storage@I@boost@@QBE_NXZ 00426770 f i GameObjects:ExtraScriptFunctions.obj
 0001:00025790       ??$bind@_NVCNetLoginServerModule@@PAXIPAV1@V?$arg@$00@boost@@V?$arg@$01@3@@boost@@YA?AV?$bind_t@_NV?$mf2@_NVCNetLoginServerModule@@PAXI@_mfi@boost@@V?$list3@V?$value@PAVCNetLoginServerModule@@@_bi@boost@@V?$arg@$00@3@V?$arg@$01@3@@_bi@3@@_bi@0@P8CNetLoginServerModule@@AE_NPAXI@ZPAV3@V?$arg@$00@0@V?$arg@$01@0@@Z 00426790 f i NetLoginServerModule.obj
 0001:000257e0       ??$Execution@V?$bind_t@_NV?$mf2@_NVCNetLoginServerModule@@PAXI@_mfi@boost@@V?$list3@V?$value@PAVCNetLoginServerModule@@@_bi@boost@@V?$arg@$00@3@V?$arg@$01@3@@_bi@3@@_bi@boost@@@CNetConsumerModule@@QAEHV?$bind_t@_NV?$mf2@_NVCNetLoginServerModule@@PAXI@_mfi@boost@@V?$list3@V?$value@PAVCNetLoginServerModule@@@_bi@boost@@V?$arg@$00@3@V?$arg@$01@3@@_bi@3@@_bi@boost@@@Z 004267e0 f i NetLoginServerModule.obj
 0001:00025880       ??$sprintf_s@$0BAA@@@YAHAAY0BAA@DPBDZZ 00426880 f i NetLoginServerModule.obj
 0001:000258d0       ??0?$bind_t@_NV?$mf2@_NVCNetLoginServerModule@@PAXI@_mfi@boost@@V?$list3@V?$value@PAVCNetLoginServerModule@@@_bi@boost@@V?$arg@$00@3@V?$arg@$01@3@@_bi@3@@_bi@boost@@QAE@V?$mf2@_NVCNetLoginServerModule@@PAXI@_mfi@2@ABV?$list3@V?$value@PAVCNetLoginServerModule@@@_bi@boost@@V?$arg@$00@3@V?$arg@$01@3@@12@@Z 004268d0 f i NetLoginServerModule.obj
 0001:00025900       ??0?$list3@V?$value@PAVCNetLoginServerModule@@@_bi@boost@@V?$arg@$00@3@V?$arg@$01@3@@_bi@boost@@QAE@V?$value@PAVCNetLoginServerModule@@@12@V?$arg@$00@2@V?$arg@$01@2@@Z 00426900 f i NetLoginServerModule.obj
 0001:00025920       ??0?$value@PAVCDAppMain@@@_bi@boost@@QAE@ABQAVCDAppMain@@@Z 00426920 f i DMainApp.obj
 0001:00025920       ??0?$value@PAVCNetLoginServerModule@@@_bi@boost@@QAE@ABQAVCNetLoginServerModule@@@Z 00426920 f i NetLoginServerModule.obj
 0001:00025940       ??$?RPAXG@?$bind_t@_NV?$mf2@_NVCNetLoginServerModule@@PAXI@_mfi@boost@@V?$list3@V?$value@PAVCNetLoginServerModule@@@_bi@boost@@V?$arg@$00@3@V?$arg@$01@3@@_bi@3@@_bi@boost@@QAE_NAAPAXAAG@Z 00426940 f i NetLoginServerModule.obj
 0001:00025980       ??0?$PODptr@I@details@boost@@QAE@QADI@Z 00426980 f i GameObjects:ExtraScriptFunctions.obj
 0001:00025980       ??0?$list2@AAPAXAAG@_bi@boost@@QAE@AAPAXAAG@Z 00426980 f i NetLoginServerModule.obj
 0001:000259b0       ??$?R_NV?$mf2@_NVCNetLoginServerModule@@PAXI@_mfi@boost@@V?$list2@AAPAXAAG@_bi@2@@?$list3@V?$value@PAVCNetLoginServerModule@@@_bi@boost@@V?$arg@$00@3@V?$arg@$01@3@@_bi@boost@@QAE_NV?$type@_N@12@AAV?$mf2@_NVCNetLoginServerModule@@PAXI@_mfi@2@AAV?$list2@AAPAXAAG@12@J@Z 004269b0 f i NetLoginServerModule.obj
 0001:00025a10       ??R?$mf2@_NVCNetLoginServerModule@@PAXI@_mfi@boost@@QBE_NPAVCNetLoginServerModule@@PAXI@Z 00426a10 f i NetLoginServerModule.obj
 0001:00025a30       ??A?$list2@AAPAXAAG@_bi@boost@@QBEAAPAXV?$arg@$00@2@@Z 00426a30 f i NetLoginServerModule.obj
 0001:00025a30       ??A?$list5@AA_KAAW4LINKSTATUS@@AAPAXAAGAAPAX@_bi@boost@@QBEAA_KV?$arg@$00@2@@Z 00426a30 f i DMainApp.obj
 0001:00025a50       ??$?APAVCNetLoginServerModule@@@?$list2@AAPAXAAG@_bi@boost@@QBEAAPAVCNetLoginServerModule@@AAV?$value@PAVCNetLoginServerModule@@@12@@Z 00426a50 f i NetLoginServerModule.obj
 0001:00025a50       ??$?APAVCDAppMain@@@?$list5@AA_KAAW4LINKSTATUS@@AAPAXAAGAAPAX@_bi@boost@@QBEAAPAVCDAppMain@@AAV?$value@PAVCDAppMain@@@12@@Z 00426a50 f i DMainApp.obj
 0001:00025a70       ?GetNpcScriptInfo@@YAPBDPBD@Z 00426a70 f   GameObjects:ScriptManager.obj
 0001:00025b60       ?lua_call_tick_begin@@YAXXZ 00426b60 f   GameObjects:ScriptManager.obj
 0001:00025b80       ?lua_call_tick_end@@YAXXZ  00426b80 f   GameObjects:ScriptManager.obj
 0001:00025ba0       ?timeout_break@@YAXPAUlua_State@@PAUlua_Debug@@@Z 00426ba0 f   GameObjects:ScriptManager.obj
 0001:00025bf0       ?check_script_timeout@@YAXXZ 00426bf0 f   GameObjects:ScriptManager.obj
 0001:00025c50       ?GetRegion@CScriptManager@@AAEPAVCRegion@@PAUlua_State@@H@Z 00426c50 f   GameObjects:ScriptManager.obj
 0001:00025ce0       ?SetScriptObject@CScriptManager@@QAE_NPAUlua_State@@H_N@Z 00426ce0 f   GameObjects:ScriptManager.obj
 0001:00026290       ?SetCondition@CScriptManager@@QAEXPAVCMonster@@PAVCPlayer@@PAVCNpc@@@Z 00427290 f   GameObjects:ScriptManager.obj
 0001:000262d0       ?CleanCondition@CScriptManager@@QAEXXZ 004272d0 f   GameObjects:ScriptManager.obj
 0001:00026310       ?TriggerEvent@CScriptManager@@QAEHPBDH@Z 00427310 f   GameObjects:ScriptManager.obj
 0001:00026330       ?SetScriptPath@CScriptManager@@QAEXPBD@Z 00427330 f   GameObjects:ScriptManager.obj
 0001:000263b0       ?L_rfalse@CScriptManager@@SAHPAUlua_State@@@Z 004273b0 f   GameObjects:ScriptManager.obj
 0001:00026690       ?L_Stand@CScriptManager@@SAHPAUlua_State@@@Z 00427690 f   GameObjects:ScriptManager.obj
 0001:00026720       ?L_CI_LearnSkill@CScriptManager@@SAHPAUlua_State@@@Z 00427720 f   GameObjects:ScriptManager.obj
 0001:00026900       ?L_CI_SetSkillLevel@CScriptManager@@SAHPAUlua_State@@@Z 00427900 f   GameObjects:ScriptManager.obj
 0001:00026c40       ?L_CI_GetSkillLevel@CScriptManager@@SAHPAUlua_State@@@Z 00427c40 f   GameObjects:ScriptManager.obj
 0001:00026f20       ?L_giveGoods@CScriptManager@@SAHPAUlua_State@@@Z 00427f20 f   GameObjects:ScriptManager.obj
 0001:00027310       ?L_CheckGiveGoods@CScriptManager@@SAHPAUlua_State@@@Z 00428310 f   GameObjects:ScriptManager.obj
 0001:00027730       ?L_checkgoods@CScriptManager@@SAHPAUlua_State@@@Z 00428730 f   GameObjects:ScriptManager.obj
 0001:00027c30       ?L_getitemnum@CScriptManager@@SAHPAUlua_State@@@Z 00428c30 f   GameObjects:ScriptManager.obj
 0001:00027d50       ?L_CI_SetReadyEvent@CScriptManager@@SAHPAUlua_State@@@Z 00428d50 f   GameObjects:ScriptManager.obj
 0001:00028110       ?L_CI_CancelReadyEvent@CScriptManager@@SAHPAUlua_State@@@Z 00429110 f   GameObjects:ScriptManager.obj
 0001:00028200       ?L_CI_GetPlayerData@CScriptManager@@SAHPAUlua_State@@@Z 00429200 f   GameObjects:ScriptManager.obj
 0001:00029560       ?L_CI_SetPlayerData@CScriptManager@@SAHPAUlua_State@@@Z 0042a560 f   GameObjects:ScriptManager.obj
 0001:00029a40       ?L_rint@CScriptManager@@SAHPAUlua_State@@@Z 0042aa40 f   GameObjects:ScriptManager.obj
 0001:00029b10       ?L_CI_MovePlayer@CScriptManager@@SAHPAUlua_State@@@Z 0042ab10 f   GameObjects:ScriptManager.obj
 0001:00029d80       ?L_CI_MoveMonster@CScriptManager@@SAHPAUlua_State@@@Z 0042ad80 f   GameObjects:ScriptManager.obj
 0001:00029fb0       ?L_isFullNum@CScriptManager@@SAHPAUlua_State@@@Z 0042afb0 f   GameObjects:ScriptManager.obj
 0001:0002a0c0       ?L_isfull@CScriptManager@@SAHPAUlua_State@@@Z 0042b0c0 f   GameObjects:ScriptManager.obj
 0001:0002a1e0       ?L_CI_PayPlayer@CScriptManager@@SAHPAUlua_State@@@Z 0042b1e0 f   GameObjects:ScriptManager.obj
 0001:0002a8b0       ?L_setregionpktype@CScriptManager@@SAHPAUlua_State@@@Z 0042b8b0 f   GameObjects:ScriptManager.obj
 0001:0002aa30       ?L_getcurtimeA@CScriptManager@@SAHPAUlua_State@@@Z 0042ba30 f   GameObjects:ScriptManager.obj
 0001:0002aad0       ?L_CI_DelItemByPos@CScriptManager@@SAHPAUlua_State@@@Z 0042bad0 f   GameObjects:ScriptManager.obj
 0001:0002ac80       ?L_CI_SetPlayerIcon@CScriptManager@@SAHPAUlua_State@@@Z 0042bc80 f   GameObjects:ScriptManager.obj
 0001:0002af60       ?L_CI_GetPlayerIcon@CScriptManager@@SAHPAUlua_State@@@Z 0042bf60 f   GameObjects:ScriptManager.obj
 0001:0002b230       ?L_GetTeamLeaderSID@@YAHPAUlua_State@@@Z 0042c230 f   GameObjects:ScriptManager.obj
 0001:0002b4a0       ?L_DeleteTeamMember@CScriptManager@@SAHPAUlua_State@@@Z 0042c4a0 f   GameObjects:ScriptManager.obj
 0001:0002b6c0       ?L_GetCertainTeamInfo@CScriptManager@@SAHPAUlua_State@@@Z 0042c6c0 f   GameObjects:ScriptManager.obj
 0001:0002b7b0       ?L_GetTeamInfo@CScriptManager@@SAHPAUlua_State@@@Z 0042c7b0 f   GameObjects:ScriptManager.obj
 0001:0002bc70       ?L_GetMarrowInfo@CScriptManager@@SAHPAUlua_State@@@Z 0042cc70 f   GameObjects:ScriptManager.obj
 0001:0002c080       ?L_GetRegionInfo@CScriptManager@@SAHPAUlua_State@@@Z 0042d080 f   GameObjects:ScriptManager.obj
 0001:0002c3e0       ?L_LockPlayer@CScriptManager@@SAHPAUlua_State@@@Z 0042d3e0 f   GameObjects:ScriptManager.obj
 0001:0002c610       ?L_UnLockPlayer@CScriptManager@@SAHPAUlua_State@@@Z 0042d610 f   GameObjects:ScriptManager.obj
 0001:0002c7a0       ?L_GetCurCopyScenesGID@CScriptManager@@SAHPAUlua_State@@@Z 0042d7a0 f   GameObjects:ScriptManager.obj
 0001:0002c990       ?L_CreateGroundItem@CScriptManager@@SAHPAUlua_State@@@Z 0042d990 f   GameObjects:ScriptManager.obj
 0001:0002cd50       ?L_AskJoinTeam@CScriptManager@@SAHPAUlua_State@@@Z 0042dd50 f   GameObjects:ScriptManager.obj
 0001:0002d260       ?DoFunc@CScriptManager@@QAEHPBDKK@Z 0042e260 f   GameObjects:ScriptManager.obj
 0001:0002d280       ?L_DoFile@CScriptManager@@SAHPAUlua_State@@@Z 0042e280 f   GameObjects:ScriptManager.obj
 0001:0002d2e0       ?Restore@CScriptManager@@QAEHH@Z 0042e2e0 f   GameObjects:ScriptManager.obj
 0001:0002d3c0       ?SetLoop@CScriptManager@@QAEXXZ 0042e3c0 f   GameObjects:ScriptManager.obj
 0001:0002d4b0       ?PushLuaEvent@@YA_KPAUlua_State@@@Z 0042e4b0 f   GameObjects:ScriptManager.obj
 0001:0002d7f0       ?ClrEvent@@YAHKPA_K@Z      0042e7f0 f   GameObjects:ScriptManager.obj
 0001:0002d970       ?RunLuaEvent@@YAXK@Z       0042e970 f   GameObjects:ScriptManager.obj
 0001:0002de00       ?L_GetServerTime@CScriptManager@@SAHPAUlua_State@@@Z 0042ee00 f   GameObjects:ScriptManager.obj
 0001:0002deb0       ?L_GetUseLogDBId@CScriptManager@@SAHPAUlua_State@@@Z 0042eeb0 f   GameObjects:ScriptManager.obj
 0001:0002df50       ?L_GiveGoodsBatch@CScriptManager@@SAHPAUlua_State@@@Z 0042ef50 f   GameObjects:ScriptManager.obj
 0001:0002e430       ?L_KillMonster@CScriptManager@@SAHPAUlua_State@@@Z 0042f430 f   GameObjects:ScriptManager.obj
 0001:0002e4b0       ?L_CI_AddBuff@CScriptManager@@SAHPAUlua_State@@@Z 0042f4b0 f   GameObjects:ScriptManager.obj
 0001:0002e6b0       ?L_CI_DelBuff@CScriptManager@@SAHPAUlua_State@@@Z 0042f6b0 f   GameObjects:ScriptManager.obj
 0001:0002e850       ?L_CI_HasBuff@CScriptManager@@SAHPAUlua_State@@@Z 0042f850 f   GameObjects:ScriptManager.obj
 0001:0002ea00       ?L_CI_GetCapability@CScriptManager@@SAHPAUlua_State@@@Z 0042fa00 f   GameObjects:ScriptManager.obj
 0001:0002ebe0       ?L_CI_AddMonsterHPEvent@CScriptManager@@SAHPAUlua_State@@@Z 0042fbe0 f   GameObjects:ScriptManager.obj
 0001:0002ede0       ?L_CI_AddMonsterAttackCountEvent@CScriptManager@@SAHPAUlua_State@@@Z 0042fde0 f   GameObjects:ScriptManager.obj
 0001:0002efe0       ?L_CI_RemoveMonsterHPEvent@CScriptManager@@SAHPAUlua_State@@@Z 0042ffe0 f   GameObjects:ScriptManager.obj
 0001:0002f150       ?L_CI_AddMonsterBuffBeginEvent@CScriptManager@@SAHPAUlua_State@@@Z 00430150 f   GameObjects:ScriptManager.obj
 0001:0002f320       ?L_CI_AddMonsterBuffEndEvent@CScriptManager@@SAHPAUlua_State@@@Z 00430320 f   GameObjects:ScriptManager.obj
 0001:0002f4f0       ?L_SetCostumeBuff@CScriptManager@@SAHPAUlua_State@@@Z 004304f0 f   GameObjects:ScriptManager.obj
 0001:0002f5b0       ?L_IsCostume@CScriptManager@@SAHPAUlua_State@@@Z 004305b0 f   GameObjects:ScriptManager.obj
 0001:0002f750       ?L_GetCostumeID@CScriptManager@@SAHPAUlua_State@@@Z 00430750 f   GameObjects:ScriptManager.obj
 0001:0002f8e0       ?L_GetRidingMountId@CScriptManager@@SAHPAUlua_State@@@Z 004308e0 f   GameObjects:ScriptManager.obj
 0001:0002f9a0       ?L_SetTaskMask@CScriptManager@@SAHPAUlua_State@@@Z 004309a0 f   GameObjects:ScriptManager.obj
 0001:0002fb20       ?L_GetTaskMask@CScriptManager@@SAHPAUlua_State@@@Z 00430b20 f   GameObjects:ScriptManager.obj
 0001:0002fcb0       ?L_SendTaskMask@CScriptManager@@SAHPAUlua_State@@@Z 00430cb0 f   GameObjects:ScriptManager.obj
 0001:0002fdf0       ?L_IsTeamLeader@CScriptManager@@SAHPAUlua_State@@@Z 00430df0 f   GameObjects:ScriptManager.obj
 0001:0002fef0       ?L_CI_OpenPackage@CScriptManager@@SAHPAUlua_State@@@Z 00430ef0 f   GameObjects:ScriptManager.obj
 0001:000302c0       ?L_CI_OnSelectRelive@CScriptManager@@SAHPAUlua_State@@@Z 004312c0 f   GameObjects:ScriptManager.obj
 0001:000305f0       ?L_SetCamp@CScriptManager@@SAHPAUlua_State@@@Z 004315f0 f   GameObjects:ScriptManager.obj
 0001:00030800       ?L_checkYuanbao@CScriptManager@@SAHPAUlua_State@@@Z 00431800 f   GameObjects:ScriptManager.obj
 0001:00030b90       ?L_CI_SendSystemMail@CScriptManager@@SAHPAUlua_State@@@Z 00431b90 f   GameObjects:ScriptManager.obj
 0001:00030ef0       ?RegisterFunc@CScriptManager@@QAEHXZ 00431ef0 f   GameObjects:ScriptManager.obj
 0001:00031b90       ??4?$weak_ptr@VIObject@@@boost@@QAEAAV01@ABV01@@Z 00432b90 f i GameObjects:ScriptManager.obj
 0001:00031b90       ??$?4VIObject@@@?$weak_ptr@VIObject@@@boost@@QAEAAV01@ABV?$shared_ptr@VIObject@@@1@@Z 00432b90 f i GameObjects:ScriptManager.obj
 0001:00031bc0       ?weak_add_ref@sp_counted_base@detail@boost@@QAEXXZ 00432bc0 f i GameObjects:ScriptManager.obj
 0001:00031be0       ??0CScriptValue@@QAE@PBD@Z 00432be0 f i GameObjects:ScriptManager.obj
 0001:00031c60       ?CreatePtr@SRefPtr@CScriptValue@@SAPAU12@H@Z 00432c60 f i GameObjects:ScriptManager.obj
 0001:00031cc0       ?SetData@SRefPtr@CScriptValue@@QAEHPBXH@Z 00432cc0 f i GameObjects:ScriptManager.obj
 0001:00031d40       ??1CScriptValue@@QAE@XZ    00432d40 f i GameObjects:ScriptManager.obj
 0001:00031d80       ?Release@SRefPtr@CScriptValue@@QAEHXZ 00432d80 f i GameObjects:ScriptManager.obj
 0001:00031dd0       ??0GenItemBatchParam@CItemUser@@QAE@GKEGG@Z 00432dd0 f i GameObjects:ScriptManager.obj
 0001:00031e10       ??0GenItemParams@typedef_v6@@QAE@GKGG@Z 00432e10 f i GameObjects:ScriptManager.obj
 0001:00031e50       ?GetMaxMP@CFightObject@@QAEKXZ 00432e50 f i GameObjects:ScriptManager.obj
 0001:00031e70       ??0SQSendJewelLevelMsg@@QAE@XZ 00432e70 f i GameObjects:ScriptManager.obj
 0001:00031e90       ??0SSendJewelLevelMsg@@QAE@XZ 00432e90 f i GameObjects:ScriptManager.obj
 0001:00031eb0       ??0SItemBaseMsg@@QAE@XZ    00432eb0 f i GameObjects:ScriptManager.obj
 0001:00031ed0       ?GetPlayerDataByLevel@CRoleLevelUpTbl@@QAEPAUSDataTbl@1@H@Z 00432ed0 f i GameObjects:ScriptManager.obj
 0001:00031f20       ??0SAExpChangeMsg@@QAE@XZ  00432f20 f i GameObjects:ScriptManager.obj
 0001:00031f40       ??0SExpChangeMsg@@QAE@XZ   00432f40 f i GameObjects:ScriptManager.obj
 0001:00031f60       ??0SUpgradeMsg@@QAE@XZ     00432f60 f i GameObjects:ScriptManager.obj
 0001:00031f80       ??0SAFriendStateMsgEx@@QAE@XZ 00432f80 f i GameObjects:ScriptManager.obj
 0001:00031fa0       ??0SAFriendStateMsg@@QAE@XZ 00432fa0 f i GameObjects:ScriptManager.obj
 0001:00031fc0       ??0SFriendStateMsg@@QAE@XZ 00432fc0 f i GameObjects:ScriptManager.obj
 0001:00031fe0       ??0SRelationBaseMsg@@QAE@XZ 00432fe0 f i GameObjects:ScriptManager.obj
 0001:00032000       ??0CScriptState@@QAE@PAVCMonster@@PAVCPlayer@@PAVCNpc@@2@Z 00433000 f i GameObjects:ScriptManager.obj
 0001:00032050       ??1CScriptState@@QAE@XZ    00433050 f i GameObjects:ScriptManager.obj
 0001:000320a0       ?GetCopySceneGID@CDynamicRegion@@QAEKXZ 004330a0 f i GameObjects:ScriptManager.obj
 0001:000320c0       ??BCScriptValue@@QBEHXZ    004330c0 f i GameObjects:ScriptManager.obj
 0001:00032100       ?IsNumber@CScriptValue@@QBE_NXZ 00433100 f i GameObjects:ScriptManager.obj
 0001:00032120       ??0SLuaEvent@@QAE@XZ       00433120 f i GameObjects:ScriptManager.obj
 0001:00032180       ??1SLuaEvent@@QAE@XZ       00433180 f i GameObjects:ScriptManager.obj
 0001:000321d0       ??1lua_variant@lite@@QAE@XZ 004331d0 f i GameObjects:ScriptManager.obj
 0001:000321f0       ??0ValueEvent@TriggerAISystem@@QAE@HV?$basic_string@DU?$char_traits@D@std@@V?$allocator@D@2@@std@@HKW4VEOpcode@@@Z 004331f0 f i GameObjects:ScriptManager.obj
 0001:00032280       ??0BaseEvent@TriggerAISystem@@QAE@HV?$basic_string@DU?$char_traits@D@std@@V?$allocator@D@2@@std@@H@Z 00433280 f i GameObjects:ScriptManager.obj
 0001:00032300       ??1BaseEvent@TriggerAISystem@@QAE@XZ 00433300 f i GameObjects:ScriptManager.obj
 0001:00032320       ??0BuffEvent@TriggerAISystem@@QAE@HV?$basic_string@DU?$char_traits@D@std@@V?$allocator@D@2@@std@@HG@Z 00433320 f i GameObjects:ScriptManager.obj
 0001:000323a0       ??1BuffEvent@TriggerAISystem@@QAE@XZ 004333a0 f i GameObjects:ScriptManager.obj
 0001:000323a0       ??1ValueEvent@TriggerAISystem@@QAE@XZ 004333a0 f i GameObjects:ScriptManager.obj
 0001:000323c0       ?GetRidingMountId@CPlayer@@QAEFXZ 004333c0 f i GameObjects:ScriptManager.obj
 0001:000323e0       ?ChkMark@SPlayerTasks@typedef_v6@@QAEHKK@Z 004333e0 f i GameObjects:ScriptManager.obj
 0001:00032430       ??0SAAddPackOpenFlags@@QAE@XZ 00433430 f i GameObjects:ScriptManager.obj
 0001:00032450       ??0SAddPackOpenFlags@@QAE@XZ 00433450 f i GameObjects:ScriptManager.obj
 0001:00032470       ??0SAReliveCountDown@@QAE@XZ 00433470 f i GameObjects:ScriptManager.obj
 0001:00032490       ??0SReliveCountDown@@QAE@XZ 00433490 f i GameObjects:ScriptManager.obj
 0001:000324b0       ??0SQGMSendMailMsg@@QAE@XZ 004334b0 f i GameObjects:ScriptManager.obj
 0001:000324e0       ??0CEMail@@QAE@XZ          004334e0 f i GameObjects:ScriptManager.obj
 0001:00032510       ??0SGMSendMailMsg@@QAE@XZ  00433510 f i GameObjects:ScriptManager.obj
 0001:00032530       ?lock@?$weak_ptr@VIObject@@@boost@@QBE?AV?$shared_ptr@VIObject@@@2@XZ 00433530 f i GameObjects:ScriptManager.obj
 0001:000325d0       ?reset@?$weak_ptr@VIObject@@@boost@@QAEXXZ 004335d0 f i GameObjects:ScriptManager.obj
 0001:00032630       ??1?$weak_ptr@VIObject@@@boost@@QAE@XZ 00433630 f i GameObjects:ScriptManager.obj
 0001:00032650       ??1weak_count@detail@boost@@QAE@XZ 00433650 f i GameObjects:ScriptManager.obj
 0001:00032670       ??0?$vector@UGenItemBatchParam@CItemUser@@V?$allocator@UGenItemBatchParam@CItemUser@@@std@@@std@@QAE@XZ 00433670 f i GameObjects:ScriptManager.obj
 0001:000326a0       ?push_back@?$vector@UGenItemBatchParam@CItemUser@@V?$allocator@UGenItemBatchParam@CItemUser@@@std@@@std@@QAEXABUGenItemBatchParam@CItemUser@@@Z 004336a0 f i GameObjects:ScriptManager.obj
 0001:00032710       ?Setup@?$AutoEvent@VLockOperatorEvent@CPlayer@@@@QAEXKPBD@Z 00433710 f i GameObjects:ScriptManager.obj
 0001:00032770       ?IsActivated@EventBase@EventMgr@@QAEHXZ 00433770 f i GameObjects:ScriptManager.obj
 0001:00032790       ?OnSetup@LockOperatorEvent@CPlayer@@QAEXXZ 00433790 f i GameObjects:ScriptManager.obj
 0001:000327c0       ?Reset@EventBase@EventMgr@@QAEXXZ 004337c0 f i GameObjects:ScriptManager.obj
 0001:000327f0       ?Instance@?$CSingleton@VCDynDropTable@@@@SAPAVCDynDropTable@@XZ 004337f0 f i GameObjects:ScriptManager.obj
 0001:000328b0       ??0?$vector@HV?$allocator@H@std@@@std@@QAE@XZ 004338b0 f i GameObjects:ScriptManager.obj
 0001:000328e0       ?push_back@?$vector@HV?$allocator@H@std@@@std@@QAEXABH@Z 004338e0 f i GameObjects:ScriptManager.obj
 0001:00032950       ??0?$list@Vlua_variant@lite@@V?$allocator@Vlua_variant@lite@@@std@@@std@@QAE@XZ 00433950 f i GameObjects:ScriptManager.obj
 0001:00032990       ??1?$list@Vlua_variant@lite@@V?$allocator@Vlua_variant@lite@@@std@@@std@@QAE@XZ 00433990 f i GameObjects:ScriptManager.obj
 0001:000329b0       ?back@?$list@Vlua_variant@lite@@V?$allocator@Vlua_variant@lite@@@std@@@std@@QAEAAVlua_variant@lite@@XZ 004339b0 f i GameObjects:ScriptManager.obj
 0001:000329b0       ?back@?$list@V?$basic_string@DU?$char_traits@D@std@@V?$allocator@D@2@@std@@V?$allocator@V?$basic_string@DU?$char_traits@D@std@@V?$allocator@D@2@@std@@@2@@std@@QAEAAV?$basic_string@DU?$char_traits@D@std@@V?$allocator@D@2@@2@XZ 004339b0 f i StdFrame.obj
 0001:000329b0       ?back@?$list@USLuaEvent@@V?$allocator@USLuaEvent@@@std@@@std@@QAEAAUSLuaEvent@@XZ 004339b0 f i GameObjects:ScriptManager.obj
 0001:000329e0       ?push_back@?$list@Vlua_variant@lite@@V?$allocator@Vlua_variant@lite@@@std@@@std@@QAEXABVlua_variant@lite@@@Z 004339e0 f i GameObjects:ScriptManager.obj
 0001:00032a10       ?swap@?$list@Vlua_variant@lite@@V?$allocator@Vlua_variant@lite@@@std@@@std@@QAEXAAV12@@Z 00433a10 f i GameObjects:ScriptManager.obj
 0001:00032ac0       ??A?$map@K_KU?$less@K@std@@V?$allocator@U?$pair@$$CBK_K@std@@@2@@std@@QAEAA_KABK@Z 00433ac0 f i GameObjects:ScriptManager.obj
 0001:00032b60       ?erase@?$_Tree@V?$_Tmap_traits@K_KU?$less@K@std@@V?$allocator@U?$pair@$$CBK_K@std@@@2@$0A@@std@@@std@@QAEIABK@Z 00433b60 f i GameObjects:ScriptManager.obj
 0001:00032bc0       ?find@?$_Tree@V?$_Tmap_traits@K_KU?$less@K@std@@V?$allocator@U?$pair@$$CBK_K@std@@@2@$0A@@std@@@std@@QAE?AViterator@12@ABK@Z 00433bc0 f i GameObjects:ScriptManager.obj
 0001:00032c50       ?push_back@?$list@USLuaEvent@@V?$allocator@USLuaEvent@@@std@@@std@@QAEXABUSLuaEvent@@@Z 00433c50 f i GameObjects:ScriptManager.obj
 0001:00032c80       ?pop_back@?$list@USLuaEvent@@V?$allocator@USLuaEvent@@@std@@@std@@QAEXXZ 00433c80 f i GameObjects:ScriptManager.obj
 0001:00032cb0       ?erase@?$list@USLuaEvent@@V?$allocator@USLuaEvent@@@std@@@std@@QAE?AViterator@12@V312@@Z 00433cb0 f i GameObjects:ScriptManager.obj
 0001:00032d70       ??0CDynDropTable@@QAE@XZ   00433d70 f i GameObjects:ScriptManager.obj
 0001:00032dd0       ??1?$CSingleton@VCDynDropTable@@@@UAE@XZ 00433dd0 f i GameObjects:ScriptManager.obj
 0001:00032df0       ??_G?$CSingleton@VCDynDropTable@@@@UAEPAXI@Z 00433df0 f i GameObjects:ScriptManager.obj
 0001:00032df0       ??_E?$CSingleton@VCDynDropTable@@@@UAEPAXI@Z 00433df0 f i GameObjects:ScriptManager.obj
 0001:00032e20       ??_ECDynDropTable@@UAEPAXI@Z 00433e20 f i GameObjects:ScriptManager.obj
 0001:00032e20       ??_GCDynDropTable@@UAEPAXI@Z 00433e20 f i GameObjects:ScriptManager.obj
 0001:00032e50       ??1CDynDropTable@@UAE@XZ   00433e50 f i GameObjects:ScriptManager.obj
 0001:00032ea0       ??1?$map@HV?$vector@USItemOddsTabledata@@V?$allocator@USItemOddsTabledata@@@std@@@std@@U?$less@H@2@V?$allocator@U?$pair@$$CBHV?$vector@USItemOddsTabledata@@V?$allocator@USItemOddsTabledata@@@std@@@std@@@std@@@2@@std@@QAE@XZ 00433ea0 f i GameObjects:ScriptManager.obj
 0001:00032ec0       ?expired@?$weak_ptr@VIObject@@@boost@@QBE_NXZ 00433ec0 f i GameObjects:ScriptManager.obj
 0001:00032ee0       ?use_count@shared_count@detail@boost@@QBEJXZ 00433ee0 f i GameObjects:DynamicRegion.obj
 0001:00032ee0       ?use_count@weak_count@detail@boost@@QBEJXZ 00433ee0 f i GameObjects:ScriptManager.obj
 0001:00032f10       ?swap@?$shared_ptr@VIObject@@@boost@@QAEXAAV12@@Z 00433f10 f i GameObjects:RegionManager.obj
 0001:00032f10       ?swap@?$weak_ptr@VIObject@@@boost@@QAEXAAV12@@Z 00433f10 f i GameObjects:ScriptManager.obj
 0001:00032f40       ??0?$shared_ptr@V?$pool@Udefault_user_allocator_new_delete@boost@@@boost@@@boost@@QAE@XZ 00433f40 f i GameObjects:Region.obj
 0001:00032f40       ??0?$weak_ptr@VIObject@@@boost@@QAE@XZ 00433f40 f i GameObjects:ScriptManager.obj
 0001:00032f40       ??0?$shared_ptr@VIObject@@@boost@@QAE@XZ 00433f40 f i GameObjects:ScriptManager.obj
 0001:00032f70       ?capacity@?$vector@UGenItemBatchParam@CItemUser@@V?$allocator@UGenItemBatchParam@CItemUser@@@std@@@std@@QBEIXZ 00433f70 f i GameObjects:ScriptManager.obj
 0001:00032f70       ?capacity@?$vector@U_tagXmlEntity@@V?$allocator@U_tagXmlEntity@@@std@@@std@@QBEIXZ 00433f70 f i GameObjects:BuffBaseData.obj
 0001:00032fb0       ?size@?$vector@U_tagXmlEntity@@V?$allocator@U_tagXmlEntity@@@std@@@std@@QBEIXZ 00433fb0 f i GameObjects:BuffBaseData.obj
 0001:00032fb0       ?size@?$vector@UGenItemBatchParam@CItemUser@@V?$allocator@UGenItemBatchParam@CItemUser@@@std@@@std@@QBEIXZ 00433fb0 f i GameObjects:ScriptManager.obj
 0001:00032ff0       ?insert@?$vector@UGenItemBatchParam@CItemUser@@V?$allocator@UGenItemBatchParam@CItemUser@@@std@@@std@@QAE?AViterator@12@V312@ABUGenItemBatchParam@CItemUser@@@Z 00433ff0 f i GameObjects:ScriptManager.obj
 0001:00033070       ?_Buy@?$vector@UGenItemBatchParam@CItemUser@@V?$allocator@UGenItemBatchParam@CItemUser@@@std@@@std@@IAE_NI@Z 00434070 f i GameObjects:ScriptManager.obj
 0001:000330f0       ?_Tidy@?$vector@U_tagXmlEntity@@V?$allocator@U_tagXmlEntity@@@std@@@std@@IAEXXZ 004340f0 f i GameObjects:BuffBaseData.obj
 0001:000330f0       ?_Tidy@?$vector@UGenItemBatchParam@CItemUser@@V?$allocator@UGenItemBatchParam@CItemUser@@@std@@@std@@IAEXXZ 004340f0 f i GameObjects:ScriptManager.obj
 0001:00033160       ?_Ufill@?$vector@UGenItemBatchParam@CItemUser@@V?$allocator@UGenItemBatchParam@CItemUser@@@std@@@std@@IAEPAUGenItemBatchParam@CItemUser@@PAU34@IABU34@@Z 00434160 f i GameObjects:ScriptManager.obj
 0001:00033190       ??0?$CSingleton@VCDynDropTable@@@@QAE@XZ 00434190 f i GameObjects:ScriptManager.obj
 0001:000331b0       ??0?$map@HV?$vector@USItemOddsTabledata@@V?$allocator@USItemOddsTabledata@@@std@@@std@@U?$less@H@2@V?$allocator@U?$pair@$$CBHV?$vector@USItemOddsTabledata@@V?$allocator@USItemOddsTabledata@@@std@@@std@@@std@@@2@@std@@QAE@XZ 004341b0 f i GameObjects:ScriptManager.obj
 0001:000331e0       ??1?$_Tree@V?$_Tmap_traits@HV?$vector@USItemOddsTabledata@@V?$allocator@USItemOddsTabledata@@@std@@@std@@U?$less@H@2@V?$allocator@U?$pair@$$CBHV?$vector@USItemOddsTabledata@@V?$allocator@USItemOddsTabledata@@@std@@@std@@@std@@@2@$0A@@std@@@std@@QAE@XZ 004341e0 f i GameObjects:ScriptManager.obj
 0001:00033200       ?capacity@?$vector@HV?$allocator@H@std@@@std@@QBEIXZ 00434200 f i GameObjects:ScriptManager.obj
 0001:00033200       ?capacity@?$vector@PAVBuffTrigger@@V?$allocator@PAVBuffTrigger@@@std@@@std@@QBEIXZ 00434200 f i GameObjects:BuffPropertyModify.obj
 0001:00033200       ?capacity@?$vector@KV?$allocator@K@std@@@std@@QBEIXZ 00434200 f i GameObjects:Area.obj
 0001:00033200       ?capacity@?$vector@USItemOddsTabledata@@V?$allocator@USItemOddsTabledata@@@std@@@std@@QBEIXZ 00434200 f i GameObjects:DynDropTable.obj
 0001:00033200       ?capacity@?$vector@PAVBuffAction@@V?$allocator@PAVBuffAction@@@std@@@std@@QBEIXZ 00434200 f i GameObjects:BuffPropertyModify.obj
 0001:00033200       ?capacity@?$vector@PAU_tagXMLNode@@V?$allocator@PAU_tagXMLNode@@@std@@@std@@QBEIXZ 00434200 f i GameObjects:BuffBaseData.obj
 0001:00033200       ?capacity@?$vector@PBDV?$allocator@PBD@std@@@std@@QBEIXZ 00434200 f i TimeProber.obj
 0001:00033200       ?capacity@?$vector@PAUSFactionData@@V?$allocator@PAUSFactionData@@@std@@@std@@QBEIXZ 00434200 f i GameObjects:FactionManager.obj
 0001:00033200       ?capacity@?$vector@PAU_tagXMLAttr@@V?$allocator@PAU_tagXMLAttr@@@std@@@std@@QBEIXZ 00434200 f i GameObjects:BuffBaseData.obj
 0001:00033240       ?size@?$vector@PAUSFactionData@@V?$allocator@PAUSFactionData@@@std@@@std@@QBEIXZ 00434240 f i GameObjects:FactionManager.obj
 0001:00033240       ?size@?$vector@HV?$allocator@H@std@@@std@@QBEIXZ 00434240 f i GameObjects:ScriptManager.obj
 0001:00033240       ?size@?$vector@PAU_tagXMLNode@@V?$allocator@PAU_tagXMLNode@@@std@@@std@@QBEIXZ 00434240 f i GameObjects:BuffBaseData.obj
 0001:00033240       ?size@?$vector@PAVBuffAction@@V?$allocator@PAVBuffAction@@@std@@@std@@QBEIXZ 00434240 f i GameObjects:BuffPropertyModify.obj
 0001:00033240       ?size@?$vector@PAVBuffTrigger@@V?$allocator@PAVBuffTrigger@@@std@@@std@@QBEIXZ 00434240 f i GameObjects:BuffPropertyModify.obj
 0001:00033240       ?size@?$vector@USItemOddsTabledata@@V?$allocator@USItemOddsTabledata@@@std@@@std@@QBEIXZ 00434240 f i GameObjects:DynDropTable.obj
 0001:00033240       ?size@?$vector@PBDV?$allocator@PBD@std@@@std@@QBEIXZ 00434240 f i TimeProber.obj
 0001:00033240       ?size@?$vector@KV?$allocator@K@std@@@std@@QBEIXZ 00434240 f i GameObjects:Area.obj
 0001:00033240       ?size@?$vector@PAU_tagXMLAttr@@V?$allocator@PAU_tagXMLAttr@@@std@@@std@@QBEIXZ 00434240 f i GameObjects:BuffBaseData.obj
 0001:00033280       ?insert@?$vector@HV?$allocator@H@std@@@std@@QAE?AViterator@12@V312@ABH@Z 00434280 f i GameObjects:ScriptManager.obj
 0001:00033300       ?_Buy@?$vector@HV?$allocator@H@std@@@std@@IAE_NI@Z 00434300 f i GameObjects:ScriptManager.obj
 0001:00033380       ?_Insert@?$list@Vlua_variant@lite@@V?$allocator@Vlua_variant@lite@@@std@@@std@@QAEXViterator@12@ABVlua_variant@lite@@@Z 00434380 f i GameObjects:ScriptManager.obj
 0001:00033400       ?splice@?$list@Vlua_variant@lite@@V?$allocator@Vlua_variant@lite@@@std@@@std@@QAEXViterator@12@AAV12@@Z 00434400 f i GameObjects:ScriptManager.obj
 0001:00033460       ?splice@?$list@Vlua_variant@lite@@V?$allocator@Vlua_variant@lite@@@std@@@std@@QAEXViterator@12@AAV12@00@Z 00434460 f i GameObjects:ScriptManager.obj
 0001:00033530       ?_Buynode@?$list@Vlua_variant@lite@@V?$allocator@Vlua_variant@lite@@@std@@@std@@IAEPAU_Node@?$_List_nod@Vlua_variant@lite@@V?$allocator@Vlua_variant@lite@@@std@@@2@XZ 00434530 f i GameObjects:ScriptManager.obj
 0001:00033610       ?_Tidy@?$list@Vlua_variant@lite@@V?$allocator@Vlua_variant@lite@@@std@@@std@@IAEXXZ 00434610 f i GameObjects:ScriptManager.obj
 0001:00033680       ?insert@?$_Tree@V?$_Tmap_traits@K_KU?$less@K@std@@V?$allocator@U?$pair@$$CBK_K@std@@@2@$0A@@std@@@std@@QAE?AViterator@12@V312@ABU?$pair@$$CBK_K@2@@Z 00434680 f i GameObjects:ScriptManager.obj
 0001:00033c50       ?erase@?$_Tree@V?$_Tmap_traits@K_KU?$less@K@std@@V?$allocator@U?$pair@$$CBK_K@std@@@2@$0A@@std@@@std@@QAE?AViterator@12@V312@0@Z 00434c50 f i GameObjects:ScriptManager.obj
 0001:00033cf0       ?lower_bound@?$_Tree@V?$_Tmap_traits@K_KU?$less@K@std@@V?$allocator@U?$pair@$$CBK_K@std@@@2@$0A@@std@@@std@@QAE?AViterator@12@ABK@Z 00434cf0 f i GameObjects:ScriptManager.obj
 0001:00033d20       ?equal_range@?$_Tree@V?$_Tmap_traits@K_KU?$less@K@std@@V?$allocator@U?$pair@$$CBK_K@std@@@2@$0A@@std@@@std@@QAE?AU?$pair@Viterator@?$_Tree@V?$_Tmap_traits@K_KU?$less@K@std@@V?$allocator@U?$pair@$$CBK_K@std@@@2@$0A@@std@@@std@@V123@@2@ABK@Z 00434d20 f i GameObjects:ScriptManager.obj
 0001:00033d60       ?_Insert@?$list@USLuaEvent@@V?$allocator@USLuaEvent@@@std@@@std@@QAEXViterator@12@ABUSLuaEvent@@@Z 00434d60 f i GameObjects:ScriptManager.obj
 0001:00033de0       ?destroy@?$allocator@U_Node@?$_List_nod@USLuaEvent@@V?$allocator@USLuaEvent@@@std@@@std@@@std@@QAEXPAU_Node@?$_List_nod@USLuaEvent@@V?$allocator@USLuaEvent@@@std@@@2@@Z 00434de0 f i GameObjects:ScriptManager.obj
 0001:00033e00       ??Fiterator@?$list@V?$shared_ptr@VIObject@@@boost@@V?$allocator@V?$shared_ptr@VIObject@@@boost@@@std@@@std@@QAEAAV012@XZ 00434e00 f i GameObjects:ExtraScriptFunctions.obj
 0001:00033e00       ??Fiterator@?$list@V?$basic_string@DU?$char_traits@D@std@@V?$allocator@D@2@@std@@V?$allocator@V?$basic_string@DU?$char_traits@D@std@@V?$allocator@D@2@@std@@@2@@std@@QAEAAV012@XZ 00434e00 f i StdFrame.obj
 0001:00033e00       ??Fiterator@?$list@Vlua_variant@lite@@V?$allocator@Vlua_variant@lite@@@std@@@std@@QAEAAV012@XZ 00434e00 f i GameObjects:ScriptManager.obj
 0001:00033e00       ??Fiterator@?$list@USLuaEvent@@V?$allocator@USLuaEvent@@@std@@@std@@QAEAAV012@XZ 00434e00 f i GameObjects:ScriptManager.obj
 0001:00033e20       ??Diterator@?$_Tree@V?$_Tmap_traits@_KVCLinkData@@U?$less@_K@std@@V?$allocator@U?$pair@$$CB_KVCLinkData@@@std@@@3@$0A@@std@@@std@@QBEAAU?$pair@$$CB_KVCLinkData@@@2@XZ 00434e20 f i NetProviderModuleEx:NetProviderModule.obj
 0001:00033e20       ??Diterator@?$_Tree@V?$_Tmap_traits@_KKU?$less@_K@std@@V?$allocator@U?$pair@$$CB_KK@std@@@2@$0A@@std@@@std@@QBEAAU?$pair@$$CB_KK@2@XZ 00434e20 f i GameObjects:PlayerManager.obj
 0001:00033e20       ??Diterator@?$_Tree@V?$_Tmap_traits@KUTeam@@U?$less@K@std@@V?$allocator@U?$pair@$$CBKUTeam@@@std@@@3@$0A@@std@@@std@@QBEAAU?$pair@$$CBKUTeam@@@2@XZ 00434e20 f i GameObjects:Player.obj
 0001:00033e20       ??Diterator@?$_Tree@V?$_Tmap_traits@KUSFactionData@@U?$less@K@std@@V?$allocator@U?$pair@$$CBKUSFactionData@@@std@@@3@$0A@@std@@@std@@QBEAAU?$pair@$$CBKUSFactionData@@@2@XZ 00434e20 f i GameObjects:FactionManager.obj
 0001:00033e20       ??Diterator@?$_Tree@V?$_Tmap_traits@_KU?$pair@_K_K@std@@U?$less@_K@2@V?$allocator@U?$pair@$$CB_KU?$pair@_K_K@std@@@std@@@2@$0A@@std@@@std@@QBEAAU?$pair@$$CB_KU?$pair@_K_K@std@@@2@XZ 00434e20 f i NetProviderModuleEx:NetProviderModuleAdvEx.obj
 0001:00033e20       ??Diterator@?$_Tree@V?$_Tmap_traits@V?$basic_string@DU?$char_traits@D@std@@V?$allocator@D@2@@std@@UNode@ProfileManager@jex@@U?$less@V?$basic_string@DU?$char_traits@D@std@@V?$allocator@D@2@@std@@@2@V?$allocator@U?$pair@$$CBV?$basic_string@DU?$char_traits@D@std@@V?$allocator@D@2@@std@@UNode@ProfileManager@jex@@@std@@@2@$0A@@std@@@std@@QBEAAU?$pair@$$CBV?$basic_string@DU?$char_traits@D@std@@V?$allocator@D@2@@std@@UNode@ProfileManager@jex@@@2@XZ 00434e20 f i TimeProber.obj
 0001:00033e20       ??Diterator@?$_Tree@V?$_Tmap_traits@UPath@ProfileManager@jex@@UNode@23@U?$less@UPath@ProfileManager@jex@@@std@@V?$allocator@U?$pair@$$CBUPath@ProfileManager@jex@@UNode@23@@std@@@6@$0A@@std@@@std@@QBEAAU?$pair@$$CBUPath@ProfileManager@jex@@UNode@23@@2@XZ 00434e20 f i TimeProber.obj
 0001:00033e20       ??Diterator@?$_Tree@V?$_Tmap_traits@K_KU?$less@K@std@@V?$allocator@U?$pair@$$CBK_K@std@@@2@$0A@@std@@@std@@QBEAAU?$pair@$$CBK_K@2@XZ 00434e20 f i GameObjects:ScriptManager.obj
 0001:00033e20       ??Diterator@?$_Tree@V?$_Tmap_traits@_KVCLinkDataAdvEx@@U?$less@_K@std@@V?$allocator@U?$pair@$$CB_KVCLinkDataAdvEx@@@std@@@3@$0A@@std@@@std@@QBEAAU?$pair@$$CB_KVCLinkDataAdvEx@@@2@XZ 00434e20 f i NetProviderModuleEx:NetProviderModuleAdvEx.obj
 0001:00033e40       ??0?$pair@$$CBK_K@std@@QAE@ABKAB_K@Z 00434e40 f i GameObjects:ScriptManager.obj
 0001:00033e70       ?reset@?$auto_ptr@VCFrameTrace@@@std@@QAEXPAVCFrameTrace@@@Z 00434e70 f i DMainApp.obj
 0001:00033e70       ?reset@?$auto_ptr@VCGlobalCount@@@std@@QAEXPAVCGlobalCount@@@Z 00434e70 f i DMainApp.obj
 0001:00033e70       ?reset@?$auto_ptr@VCDynDropTable@@@std@@QAEXPAVCDynDropTable@@@Z 00434e70 f i GameObjects:ScriptManager.obj
 0001:00033e70       ?reset@?$auto_ptr@VCFuncTrace@@@std@@QAEXPAVCFuncTrace@@@Z 00434e70 f i GameObjects:Player.obj
 0001:00033ec0       ?max_size@?$vector@UGenItemBatchParam@CItemUser@@V?$allocator@UGenItemBatchParam@CItemUser@@@std@@@std@@QBEIXZ 00434ec0 f i GameObjects:ScriptManager.obj
 0001:00033ec0       ?max_size@?$vector@U_tagXmlEntity@@V?$allocator@U_tagXmlEntity@@@std@@@std@@QBEIXZ 00434ec0 f i GameObjects:BuffBaseData.obj
 0001:00033ec0       ?max_size@?$vector@VCScriptValue@@V?$allocator@VCScriptValue@@@std@@@std@@QBEIXZ 00434ec0 f i GameObjects:DGameScript.obj
 0001:00033ee0       ?_Destroy@?$vector@UGenItemBatchParam@CItemUser@@V?$allocator@UGenItemBatchParam@CItemUser@@@std@@@std@@IAEXPAUGenItemBatchParam@CItemUser@@0@Z 00434ee0 f i GameObjects:ScriptManager.obj
 0001:00033ee0       ?_Destroy@?$vector@U_tagXmlEntity@@V?$allocator@U_tagXmlEntity@@@std@@@std@@IAEXPAU_tagXmlEntity@@0@Z 00434ee0 f i GameObjects:BuffBaseData.obj
 0001:00033f10       ?_Insert_n@?$vector@UGenItemBatchParam@CItemUser@@V?$allocator@UGenItemBatchParam@CItemUser@@@std@@@std@@IAEXViterator@12@IABUGenItemBatchParam@CItemUser@@@Z 00434f10 f i GameObjects:ScriptManager.obj
 0001:00034240       ??0?$_Tree@V?$_Tmap_traits@HV?$vector@USItemOddsTabledata@@V?$allocator@USItemOddsTabledata@@@std@@@std@@U?$less@H@2@V?$allocator@U?$pair@$$CBHV?$vector@USItemOddsTabledata@@V?$allocator@USItemOddsTabledata@@@std@@@std@@@std@@@2@$0A@@std@@@std@@QAE@ABU?$less@H@1@ABV?$allocator@U?$pair@$$CBHV?$vector@USItemOddsTabledata@@V?$allocator@USItemOddsTabledata@@@std@@@std@@@std@@@1@@Z 00435240 f i GameObjects:ScriptManager.obj
 0001:00034280       ?_Tidy@?$_Tree@V?$_Tmap_traits@HV?$vector@USItemOddsTabledata@@V?$allocator@USItemOddsTabledata@@@std@@@std@@U?$less@H@2@V?$allocator@U?$pair@$$CBHV?$vector@USItemOddsTabledata@@V?$allocator@USItemOddsTabledata@@@std@@@std@@@std@@@2@$0A@@std@@@std@@IAEXXZ 00435280 f i GameObjects:ScriptManager.obj
 0001:00034330       ?_Insert_n@?$vector@HV?$allocator@H@std@@@std@@IAEXViterator@12@IABH@Z 00435330 f i GameObjects:ScriptManager.obj
 0001:00034650       ?_Xlen@?$vector@HV?$allocator@H@std@@@std@@IBEXXZ 00435650 f i GameObjects:ScriptManager.obj
 0001:00034650       ?_Xlen@?$vector@UGenItemBatchParam@CItemUser@@V?$allocator@UGenItemBatchParam@CItemUser@@@std@@@std@@IBEXXZ 00435650 f i GameObjects:ScriptManager.obj
 0001:000346b0       ?clear@?$list@Vlua_variant@lite@@V?$allocator@Vlua_variant@lite@@@std@@@std@@QAEXXZ 004356b0 f i GameObjects:ScriptManager.obj
 0001:00034750       ?_Splice@?$list@Vlua_variant@lite@@V?$allocator@Vlua_variant@lite@@@std@@@std@@QAEXViterator@12@AAV12@00I@Z 00435750 f i GameObjects:ScriptManager.obj
 0001:000348d0       ?_Buynode@?$list@Vlua_variant@lite@@V?$allocator@Vlua_variant@lite@@@std@@@std@@IAEPAU_Node@?$_List_nod@Vlua_variant@lite@@V?$allocator@Vlua_variant@lite@@@std@@@2@PAU342@0ABVlua_variant@lite@@@Z 004358d0 f i GameObjects:ScriptManager.obj
 0001:00034990       ?_Incsize@?$list@Vlua_variant@lite@@V?$allocator@Vlua_variant@lite@@@std@@@std@@IAEXI@Z 00435990 f i GameObjects:ScriptManager.obj
 0001:00034a10       ?insert@?$_Tree@V?$_Tmap_traits@K_KU?$less@K@std@@V?$allocator@U?$pair@$$CBK_K@std@@@2@$0A@@std@@@std@@QAE?AU?$pair@Viterator@?$_Tree@V?$_Tmap_traits@K_KU?$less@K@std@@V?$allocator@U?$pair@$$CBK_K@std@@@2@$0A@@std@@@std@@_N@2@ABU?$pair@$$CBK_K@2@@Z 00435a10 f i GameObjects:ScriptManager.obj
 0001:00034bc0       ?erase@?$_Tree@V?$_Tmap_traits@K_KU?$less@K@std@@V?$allocator@U?$pair@$$CBK_K@std@@@2@$0A@@std@@@std@@QAE?AViterator@12@V312@@Z 00435bc0 f i GameObjects:ScriptManager.obj
 0001:00035370       ?clear@?$_Tree@V?$_Tmap_traits@K_KU?$less@K@std@@V?$allocator@U?$pair@$$CBK_K@std@@@2@$0A@@std@@@std@@QAEXXZ 00436370 f i GameObjects:ScriptManager.obj
 0001:000353d0       ?upper_bound@?$_Tree@V?$_Tmap_traits@K_KU?$less@K@std@@V?$allocator@U?$pair@$$CBK_K@std@@@2@$0A@@std@@@std@@QAE?AViterator@12@ABK@Z 004363d0 f i GameObjects:ScriptManager.obj
 0001:00035400       ?_Insert@?$_Tree@V?$_Tmap_traits@K_KU?$less@K@std@@V?$allocator@U?$pair@$$CBK_K@std@@@2@$0A@@std@@@std@@IAE?AViterator@12@_NPAU_Node@?$_Tree_nod@V?$_Tmap_traits@K_KU?$less@K@std@@V?$allocator@U?$pair@$$CBK_K@std@@@2@$0A@@std@@@2@ABU?$pair@$$CBK_K@2@@Z 00436400 f i GameObjects:ScriptManager.obj
 0001:00035860       ?_Lbound@?$_Tree@V?$_Tmap_traits@K_KU?$less@K@std@@V?$allocator@U?$pair@$$CBK_K@std@@@2@$0A@@std@@@std@@IBEPAU_Node@?$_Tree_nod@V?$_Tmap_traits@K_KU?$less@K@std@@V?$allocator@U?$pair@$$CBK_K@std@@@2@$0A@@std@@@2@ABK@Z 00436860 f i GameObjects:ScriptManager.obj
 0001:000358f0       ?_Buynode@?$list@USLuaEvent@@V?$allocator@USLuaEvent@@@std@@@std@@IAEPAU_Node@?$_List_nod@USLuaEvent@@V?$allocator@USLuaEvent@@@std@@@2@PAU342@0ABUSLuaEvent@@@Z 004368f0 f i GameObjects:ScriptManager.obj
 0001:000359b0       ?_Incsize@?$list@USLuaEvent@@V?$allocator@USLuaEvent@@@std@@@std@@IAEXI@Z 004369b0 f i GameObjects:ScriptManager.obj
 0001:00035a30       ?allocate@?$allocator@U_Node@?$_List_nod@USPackageItem@typedef_v6@@V?$allocator@USPackageItem@typedef_v6@@@std@@@std@@@std@@QAEPAU_Node@?$_List_nod@USPackageItem@typedef_v6@@V?$allocator@USPackageItem@typedef_v6@@@std@@@2@I@Z 00436a30 f i GameObjects:ItemUser.obj
 0001:00035a30       ?allocate@?$allocator@U_Node@?$_List_nod@USLuaEvent@@V?$allocator@USLuaEvent@@@std@@@std@@@std@@QAEPAU_Node@?$_List_nod@USLuaEvent@@V?$allocator@USLuaEvent@@@std@@@2@I@Z 00436a30 f i GameObjects:ScriptManager.obj
 0001:00035a50       ??Eiterator@?$_Tree@V?$_Tmap_traits@HV?$vector@USItemOddsTabledata@@V?$allocator@USItemOddsTabledata@@@std@@@std@@U?$less@H@2@V?$allocator@U?$pair@$$CBHV?$vector@USItemOddsTabledata@@V?$allocator@USItemOddsTabledata@@@std@@@std@@@std@@@2@$0A@@std@@@std@@QAEAAV012@XZ 00436a50 f i GameObjects:ScriptManager.obj
 0001:00035a50       ??Eiterator@?$_Tree@V?$_Tmap_traits@PBDUSortNode@ProfileManager@jex@@U?$less@PBD@std@@V?$allocator@U?$pair@QBDUSortNode@ProfileManager@jex@@@std@@@5@$0A@@std@@@std@@QAEAAV012@XZ 00436a50 f i TimeProber.obj
 0001:00035a50       ??Eiterator@?$_Tree@V?$_Tmap_traits@_KKU?$less@_K@std@@V?$allocator@U?$pair@$$CB_KK@std@@@2@$0A@@std@@@std@@QAEAAV012@XZ 00436a50 f i GameObjects:GameWorld.obj
 0001:00035a50       ??Eiterator@?$_Tree@V?$_Tmap_traits@HVCTrigger@@U?$less@H@std@@V?$allocator@U?$pair@$$CBHVCTrigger@@@std@@@3@$0A@@std@@@std@@QAEAAV012@XZ 00436a50 f i GameObjects:Region.obj
 0001:00035a50       ??Eiterator@?$_Tree@V?$_Tmap_traits@K_KU?$less@K@std@@V?$allocator@U?$pair@$$CBK_K@std@@@2@$0A@@std@@@std@@QAEAAV012@XZ 00436a50 f i GameObjects:ScriptManager.obj
 0001:00035a70       ??Fiterator@?$_Tree@V?$_Tmap_traits@HVCTrigger@@U?$less@H@std@@V?$allocator@U?$pair@$$CBHVCTrigger@@@std@@@3@$0A@@std@@@std@@QAEAAV012@XZ 00436a70 f i GameObjects:Region.obj
 0001:00035a70       ??Fiterator@?$_Tree@V?$_Tmap_traits@K_KU?$less@K@std@@V?$allocator@U?$pair@$$CBK_K@std@@@2@$0A@@std@@@std@@QAEAAV012@XZ 00436a70 f i GameObjects:ScriptManager.obj
 0001:00035a70       ??Fiterator@?$_Tree@V?$_Tmap_traits@PBDUSortNode@ProfileManager@jex@@U?$less@PBD@std@@V?$allocator@U?$pair@QBDUSortNode@ProfileManager@jex@@@std@@@5@$0A@@std@@@std@@QAEAAV012@XZ 00436a70 f i TimeProber.obj
 0001:00035a70       ??Fiterator@?$_Tree@V?$_Tmap_traits@HV?$vector@USItemOddsTabledata@@V?$allocator@USItemOddsTabledata@@@std@@@std@@U?$less@H@2@V?$allocator@U?$pair@$$CBHV?$vector@USItemOddsTabledata@@V?$allocator@USItemOddsTabledata@@@std@@@std@@@std@@@2@$0A@@std@@@std@@QAEAAV012@XZ 00436a70 f i GameObjects:DynDropTable.obj
 0001:00035a70       ??Fiterator@?$_Tree@V?$_Tmap_traits@_KKU?$less@_K@std@@V?$allocator@U?$pair@$$CB_KK@std@@@2@$0A@@std@@@std@@QAEAAV012@XZ 00436a70 f i GameObjects:PlayerManager.obj
 0001:00035a90       ??Hiterator@?$vector@UGenItemBatchParam@CItemUser@@V?$allocator@UGenItemBatchParam@CItemUser@@@std@@@std@@QBE?AV012@H@Z 00436a90 f i GameObjects:ScriptManager.obj
 0001:00035a90       ??Hiterator@?$vector@U_tagXmlEntity@@V?$allocator@U_tagXmlEntity@@@std@@@std@@QBE?AV012@H@Z 00436a90 f i GameObjects:BuffBaseData.obj
 0001:00035ac0       ?erase@?$_Tree@V?$_Tmap_traits@HV?$vector@USItemOddsTabledata@@V?$allocator@USItemOddsTabledata@@@std@@@std@@U?$less@H@2@V?$allocator@U?$pair@$$CBHV?$vector@USItemOddsTabledata@@V?$allocator@USItemOddsTabledata@@@std@@@std@@@std@@@2@$0A@@std@@@std@@QAE?AViterator@12@V312@0@Z 00436ac0 f i GameObjects:ScriptManager.obj
 0001:00035b60       ?_Init@?$_Tree@V?$_Tmap_traits@HV?$vector@USItemOddsTabledata@@V?$allocator@USItemOddsTabledata@@@std@@@std@@U?$less@H@2@V?$allocator@U?$pair@$$CBHV?$vector@USItemOddsTabledata@@V?$allocator@USItemOddsTabledata@@@std@@@std@@@std@@@2@$0A@@std@@@std@@IAEXXZ 00436b60 f i GameObjects:ScriptManager.obj
 0001:00035bd0       ?erase@?$list@Vlua_variant@lite@@V?$allocator@Vlua_variant@lite@@@std@@@std@@QAE?AViterator@12@V312@0@Z 00436bd0 f i GameObjects:ScriptManager.obj
 0001:00035c60       ?destroy@?$allocator@U_Node@?$_List_nod@Vlua_variant@lite@@V?$allocator@Vlua_variant@lite@@@std@@@std@@@std@@QAEXPAU_Node@?$_List_nod@Vlua_variant@lite@@V?$allocator@Vlua_variant@lite@@@std@@@2@@Z 00436c60 f i GameObjects:ScriptManager.obj
 0001:00035c80       ?_Erase@?$_Tree@V?$_Tmap_traits@K_KU?$less@K@std@@V?$allocator@U?$pair@$$CBK_K@std@@@2@$0A@@std@@@std@@IAEXPAU_Node@?$_Tree_nod@V?$_Tmap_traits@K_KU?$less@K@std@@V?$allocator@U?$pair@$$CBK_K@std@@@2@$0A@@std@@@2@@Z 00436c80 f i GameObjects:ScriptManager.obj
 0001:00035d00       ?_Ubound@?$_Tree@V?$_Tmap_traits@K_KU?$less@K@std@@V?$allocator@U?$pair@$$CBK_K@std@@@2@$0A@@std@@@std@@IBEPAU_Node@?$_Tree_nod@V?$_Tmap_traits@K_KU?$less@K@std@@V?$allocator@U?$pair@$$CBK_K@std@@@2@$0A@@std@@@2@ABK@Z 00436d00 f i GameObjects:ScriptManager.obj
 0001:00035d90       ?_Buynode@?$_Tree@V?$_Tmap_traits@K_KU?$less@K@std@@V?$allocator@U?$pair@$$CBK_K@std@@@2@$0A@@std@@@std@@IAEPAU_Node@?$_Tree_nod@V?$_Tmap_traits@K_KU?$less@K@std@@V?$allocator@U?$pair@$$CBK_K@std@@@2@$0A@@std@@@2@PAU342@00ABU?$pair@$$CBK_K@2@D@Z 00436d90 f i GameObjects:ScriptManager.obj
 0001:00035e60       ?max_size@?$list@USLuaEvent@@V?$allocator@USLuaEvent@@@std@@@std@@QBEIXZ 00436e60 f i GameObjects:ScriptManager.obj
 0001:00035e80       ??Yiterator@?$vector@U_tagXmlEntity@@V?$allocator@U_tagXmlEntity@@@std@@@std@@QAEAAV012@H@Z 00436e80 f i GameObjects:BuffBaseData.obj
 0001:00035e80       ??Yiterator@?$vector@UGenItemBatchParam@CItemUser@@V?$allocator@UGenItemBatchParam@CItemUser@@@std@@@std@@QAEAAV012@H@Z 00436e80 f i GameObjects:ScriptManager.obj
 0001:00035ea0       ??Gconst_iterator@?$vector@UGenItemBatchParam@CItemUser@@V?$allocator@UGenItemBatchParam@CItemUser@@@std@@@std@@QBEHABV012@@Z 00436ea0 f i GameObjects:ScriptManager.obj
 0001:00035ea0       ??Gconst_iterator@?$vector@U_tagXmlEntity@@V?$allocator@U_tagXmlEntity@@@std@@@std@@QBEHABV012@@Z 00436ea0 f i GameObjects:BuffBaseData.obj
 0001:00035ec0       ??0_Node@?$_List_nod@Vlua_variant@lite@@V?$allocator@Vlua_variant@lite@@@std@@@std@@QAE@PAU012@0ABVlua_variant@lite@@@Z 00436ec0 f i GameObjects:ScriptManager.obj
 0001:00035ef0       ??0_Node@?$_List_nod@USLuaEvent@@V?$allocator@USLuaEvent@@@std@@@std@@QAE@PAU012@0ABUSLuaEvent@@@Z 00436ef0 f i GameObjects:ScriptManager.obj
 0001:00035f20       ??0lua_variant@lite@@QAE@ABV01@@Z 00436f20 f i GameObjects:ScriptManager.obj
 0001:00035f40       ??0SLuaEvent@@QAE@ABU0@@Z  00436f40 f i GameObjects:ScriptManager.obj
 0001:00035fd0       ?_Isnil@?$_Tree@V?$_Tmap_traits@K_KU?$less@K@std@@V?$allocator@U?$pair@$$CBK_K@std@@@2@$0A@@std@@@std@@KAAADPAU_Node@?$_Tree_nod@V?$_Tmap_traits@K_KU?$less@K@std@@V?$allocator@U?$pair@$$CBK_K@std@@@2@$0A@@std@@@2@@Z 00436fd0 f i GameObjects:ScriptManager.obj
 0001:00035fd0       ?_Isnil@?$_Tree@V?$_Tmap_traits@_KKU?$less@_K@std@@V?$allocator@U?$pair@$$CB_KK@std@@@2@$0A@@std@@@std@@KAAADPAU_Node@?$_Tree_nod@V?$_Tmap_traits@_KKU?$less@_K@std@@V?$allocator@U?$pair@$$CB_KK@std@@@2@$0A@@std@@@2@@Z 00436fd0 f i GameObjects:GameWorld.obj
 0001:00035fd0       ?_Isnil@?$_Tree@V?$_Tmap_traits@HV?$vector@USItemOddsTabledata@@V?$allocator@USItemOddsTabledata@@@std@@@std@@U?$less@H@2@V?$allocator@U?$pair@$$CBHV?$vector@USItemOddsTabledata@@V?$allocator@USItemOddsTabledata@@@std@@@std@@@std@@@2@$0A@@std@@@std@@KAAADPAU_Node@?$_Tree_nod@V?$_Tmap_traits@HV?$vector@USItemOddsTabledata@@V?$allocator@USItemOddsTabledata@@@std@@@std@@U?$less@H@2@V?$allocator@U?$pair@$$CBHV?$vector@USItemOddsTabledata@@V?$allocator@USItemOddsTabledata@@@std@@@std@@@std@@@2@$0A@@std@@@2@@Z 00436fd0 f i GameObjects:ScriptManager.obj
 0001:00035fd0       ?_Isnil@?$_Tree@V?$_Tmap_traits@PBDUSortNode@ProfileManager@jex@@U?$less@PBD@std@@V?$allocator@U?$pair@QBDUSortNode@ProfileManager@jex@@@std@@@5@$0A@@std@@@std@@KAAADPAU_Node@?$_Tree_nod@V?$_Tmap_traits@PBDUSortNode@ProfileManager@jex@@U?$less@PBD@std@@V?$allocator@U?$pair@QBDUSortNode@ProfileManager@jex@@@std@@@5@$0A@@std@@@2@@Z 00436fd0 f i TimeProber.obj
 0001:00035fd0       ?_Isnil@?$_Tree@V?$_Tmap_traits@HVCTrigger@@U?$less@H@std@@V?$allocator@U?$pair@$$CBHVCTrigger@@@std@@@3@$0A@@std@@@std@@KAAADPAU_Node@?$_Tree_nod@V?$_Tmap_traits@HVCTrigger@@U?$less@H@std@@V?$allocator@U?$pair@$$CBHVCTrigger@@@std@@@3@$0A@@std@@@2@@Z 00436fd0 f i GameObjects:Region.obj
 0001:00035fe0       ?erase@?$_Tree@V?$_Tmap_traits@HV?$vector@USItemOddsTabledata@@V?$allocator@USItemOddsTabledata@@@std@@@std@@U?$less@H@2@V?$allocator@U?$pair@$$CBHV?$vector@USItemOddsTabledata@@V?$allocator@USItemOddsTabledata@@@std@@@std@@@std@@@2@$0A@@std@@@std@@QAE?AViterator@12@V312@@Z 00436fe0 f i GameObjects:ScriptManager.obj
 0001:00036790       ?clear@?$_Tree@V?$_Tmap_traits@HV?$vector@USItemOddsTabledata@@V?$allocator@USItemOddsTabledata@@@std@@@std@@U?$less@H@2@V?$allocator@U?$pair@$$CBHV?$vector@USItemOddsTabledata@@V?$allocator@USItemOddsTabledata@@@std@@@std@@@std@@@2@$0A@@std@@@std@@QAEXXZ 00437790 f i GameObjects:ScriptManager.obj
 0001:000367f0       ?_Buynode@?$_Tree@V?$_Tmap_traits@HV?$vector@USItemOddsTabledata@@V?$allocator@USItemOddsTabledata@@@std@@@std@@U?$less@H@2@V?$allocator@U?$pair@$$CBHV?$vector@USItemOddsTabledata@@V?$allocator@USItemOddsTabledata@@@std@@@std@@@std@@@2@$0A@@std@@@std@@IAEPAU_Node@?$_Tree_nod@V?$_Tmap_traits@HV?$vector@USItemOddsTabledata@@V?$allocator@USItemOddsTabledata@@@std@@@std@@U?$less@H@2@V?$allocator@U?$pair@$$CBHV?$vector@USItemOddsTabledata@@V?$allocator@USItemOddsTabledata@@@std@@@std@@@std@@@2@$0A@@std@@@2@XZ 004377f0 f i GameObjects:ScriptManager.obj
 0001:00036960       ??0?$list@Vlua_variant@lite@@V?$allocator@Vlua_variant@lite@@@std@@@std@@QAE@ABV01@@Z 00437960 f i GameObjects:ScriptManager.obj
 0001:00036a40       ?erase@?$list@Vlua_variant@lite@@V?$allocator@Vlua_variant@lite@@@std@@@std@@QAE?AViterator@12@V312@@Z 00437a40 f i GameObjects:ScriptManager.obj
 0001:00036b00       ?max_size@?$allocator@U?$pair@$$CBGH@std@@@std@@QBEIXZ 00437b00 f i GameObjects:Region.obj
 0001:00036b00       ?max_size@?$allocator@U?$pair@$$CBKK@std@@@std@@QBEIXZ 00437b00 f i GameObjects:Player.obj
 0001:00036b00       ?max_size@?$allocator@U?$pair@$$CBKG@std@@@std@@QBEIXZ 00437b00 f i GameObjects:MonsterDrop.obj
 0001:00036b00       ?max_size@?$allocator@U?$pair@$$CBGJ@std@@@std@@QBEIXZ 00437b00 f i GameObjects:Item.obj
 0001:00036b00       ?max_size@?$allocator@Vlua_variant@lite@@@std@@QBEIXZ 00437b00 f i GameObjects:ScriptManager.obj
 0001:00036b00       ?max_size@?$allocator@V?$shared_ptr@UCooler@@@boost@@@std@@QBEIXZ 00437b00 f i GameObjects:CooldownMgr.obj
 0001:00036b00       ?max_size@?$allocator@V?$shared_ptr@VIObject@@@boost@@@std@@QBEIXZ 00437b00 f i GameObjects:ExtraScriptFunctions.obj
 0001:00036b30       ?max_size@?$allocator@VCScriptValue@@@std@@QBEIXZ 00437b30 f i GameObjects:DGameScript.obj
 0001:00036b30       ?max_size@?$allocator@U?$pair@$$CBGV?$map@KGU?$less@K@std@@V?$allocator@U?$pair@$$CBKG@std@@@2@@std@@@std@@@std@@QBEIXZ 00437b30 f i GameObjects:MonsterDrop.obj
 0001:00036b30       ?max_size@?$allocator@UGenItemBatchParam@CItemUser@@@std@@QBEIXZ 00437b30 f i GameObjects:ScriptManager.obj
 0001:00036b30       ?max_size@?$allocator@U?$pair@$$CBK_K@std@@@std@@QBEIXZ 00437b30 f i GameObjects:ScriptManager.obj
 0001:00036b30       ?max_size@?$allocator@U?$pair@$$CB_KK@std@@@std@@QBEIXZ 00437b30 f i GameObjects:PlayerManager.obj
 0001:00036b30       ?max_size@?$allocator@U_tagXmlEntity@@@std@@QBEIXZ 00437b30 f i GameObjects:BuffBaseData.obj
 0001:00036b60       ?max_size@?$allocator@USLuaEvent@@@std@@QBEIXZ 00437b60 f i GameObjects:ScriptManager.obj
 0001:00036b90       ??0_Node@?$_Tree_nod@V?$_Tmap_traits@_KKU?$less@_K@std@@V?$allocator@U?$pair@$$CB_KK@std@@@2@$0A@@std@@@std@@QAE@PAU012@00ABU?$pair@$$CB_KK@2@D@Z 00437b90 f i GameObjects:PlayerManager.obj
 0001:00036b90       ??0_Node@?$_Tree_nod@V?$_Tmap_traits@K_KU?$less@K@std@@V?$allocator@U?$pair@$$CBK_K@std@@@2@$0A@@std@@@std@@QAE@PAU012@00ABU?$pair@$$CBK_K@2@D@Z 00437b90 f i GameObjects:ScriptManager.obj
 0001:00036bf0       ?_Erase@?$_Tree@V?$_Tmap_traits@HV?$vector@USItemOddsTabledata@@V?$allocator@USItemOddsTabledata@@@std@@@std@@U?$less@H@2@V?$allocator@U?$pair@$$CBHV?$vector@USItemOddsTabledata@@V?$allocator@USItemOddsTabledata@@@std@@@std@@@std@@@2@$0A@@std@@@std@@IAEXPAU_Node@?$_Tree_nod@V?$_Tmap_traits@HV?$vector@USItemOddsTabledata@@V?$allocator@USItemOddsTabledata@@@std@@@std@@U?$less@H@2@V?$allocator@U?$pair@$$CBHV?$vector@USItemOddsTabledata@@V?$allocator@USItemOddsTabledata@@@std@@@std@@@std@@@2@$0A@@std@@@2@@Z 00437bf0 f i GameObjects:ScriptManager.obj
 0001:00036c70       ?destroy@?$allocator@U_Node@?$_Tree_nod@V?$_Tmap_traits@HV?$vector@USItemOddsTabledata@@V?$allocator@USItemOddsTabledata@@@std@@@std@@U?$less@H@2@V?$allocator@U?$pair@$$CBHV?$vector@USItemOddsTabledata@@V?$allocator@USItemOddsTabledata@@@std@@@std@@@std@@@2@$0A@@std@@@std@@@std@@QAEXPAU_Node@?$_Tree_nod@V?$_Tmap_traits@HV?$vector@USItemOddsTabledata@@V?$allocator@USItemOddsTabledata@@@std@@@std@@U?$less@H@2@V?$allocator@U?$pair@$$CBHV?$vector@USItemOddsTabledata@@V?$allocator@USItemOddsTabledata@@@std@@@std@@@std@@@2@$0A@@std@@@2@@Z 00437c70 f i GameObjects:ScriptManager.obj
 0001:00036c90       ?begin@?$list@Vlua_variant@lite@@V?$allocator@Vlua_variant@lite@@@std@@@std@@QBE?AVconst_iterator@12@XZ 00437c90 f i GameObjects:ScriptManager.obj
 0001:00036c90       ?begin@?$list@V?$shared_ptr@VIObject@@@boost@@V?$allocator@V?$shared_ptr@VIObject@@@boost@@@std@@@std@@QBE?AVconst_iterator@12@XZ 00437c90 f i GameObjects:ExtraScriptFunctions.obj
 0001:00036cc0       ??4weak_count@detail@boost@@QAEAAV012@ABV012@@Z 00437cc0 f i GameObjects:ScriptManager.obj
 0001:00036cc0       ??4weak_count@detail@boost@@QAEAAV012@ABVshared_count@12@@Z 00437cc0 f i GameObjects:ScriptManager.obj
 0001:00036d10       ??$?0VIObject@@@?$shared_ptr@VIObject@@@boost@@QAE@ABV?$weak_ptr@VIObject@@@1@@Z 00437d10 f i GameObjects:ScriptManager.obj
 0001:00036d40       ??0shared_count@detail@boost@@QAE@ABVweak_count@12@@Z 00437d40 f i GameObjects:ScriptManager.obj
 0001:00036dd0       ?add_ref_lock@sp_counted_base@detail@boost@@QAE_NXZ 00437dd0 f i GameObjects:ScriptManager.obj
 0001:00036e10       ??0bad_weak_ptr@boost@@QAE@XZ 00437e10 f i GameObjects:ScriptManager.obj
 0001:00036e30       ?what@bad_weak_ptr@boost@@UBEPBDXZ 00437e30 f i GameObjects:ScriptManager.obj
 0001:00036e40       ??1bad_weak_ptr@boost@@UAE@XZ 00437e40 f i GameObjects:ScriptManager.obj
 0001:00036e60       ??_Gbad_weak_ptr@boost@@UAEPAXI@Z 00437e60 f i GameObjects:ScriptManager.obj
 0001:00036e60       ??_Ebad_weak_ptr@boost@@UAEPAXI@Z 00437e60 f i GameObjects:ScriptManager.obj
 0001:00036e90       ??$throw_exception@Vbad_weak_ptr@boost@@@boost@@YAXABVbad_weak_ptr@0@@Z 00437e90 f i GameObjects:ScriptManager.obj
 0001:00036ec0       ??$?8Vlua_variant@lite@@V01@@std@@YA_NABV?$allocator@Vlua_variant@lite@@@0@0@Z 00437ec0 f i GameObjects:ScriptManager.obj
 0001:00036ed0       ??$swap@I@std@@YAXAAI0@Z   00437ed0 f i GameObjects:ScriptManager.obj
 0001:00036ed0       ??$swap@PAUSFactionData@@@std@@YAXAAPAUSFactionData@@0@Z 00437ed0 f i GameObjects:FactionManager.obj
 0001:00036ed0       ??$swap@PAU_Node@?$_List_nod@Vlua_variant@lite@@V?$allocator@Vlua_variant@lite@@@std@@@std@@@std@@YAXAAPAU_Node@?$_List_nod@Vlua_variant@lite@@V?$allocator@Vlua_variant@lite@@@std@@@0@0@Z 00437ed0 f i GameObjects:ScriptManager.obj
 0001:00036ed0       ??$swap@PAVIObject@@@std@@YAXAAPAVIObject@@0@Z 00437ed0 f i GameObjects:ScriptManager.obj
 0001:00036f00       ??$_Distance@Viterator@?$_Tree@V?$_Tmap_traits@K_KU?$less@K@std@@V?$allocator@U?$pair@$$CBK_K@std@@@2@$0A@@std@@@std@@I@std@@YAXViterator@?$_Tree@V?$_Tmap_traits@K_KU?$less@K@std@@V?$allocator@U?$pair@$$CBK_K@std@@@2@$0A@@std@@@0@0AAI@Z 00437f00 f i GameObjects:ScriptManager.obj
 0001:00036f30       ??$_Uninitialized_fill_n@PAUGenItemBatchParam@CItemUser@@IU12@V?$allocator@UGenItemBatchParam@CItemUser@@@std@@@std@@YAXPAUGenItemBatchParam@CItemUser@@IABU12@AAV?$allocator@UGenItemBatchParam@CItemUser@@@0@@Z 00437f30 f i GameObjects:ScriptManager.obj
 0001:00036f70       ??$_Distance@Viterator@?$list@Vlua_variant@lite@@V?$allocator@Vlua_variant@lite@@@std@@@std@@I@std@@YAXViterator@?$list@Vlua_variant@lite@@V?$allocator@Vlua_variant@lite@@@std@@@0@0AAI@Z 00437f70 f i GameObjects:ScriptManager.obj
 0001:00036fa0       ??$_Destroy@U_Node@?$_List_nod@USLuaEvent@@V?$allocator@USLuaEvent@@@std@@@std@@@std@@YAXPAU_Node@?$_List_nod@USLuaEvent@@V?$allocator@USLuaEvent@@@std@@@0@@Z 00437fa0 f i GameObjects:ScriptManager.obj
 0001:00036fb0       ??$_Ucopy@PAUGenItemBatchParam@CItemUser@@@?$vector@UGenItemBatchParam@CItemUser@@V?$allocator@UGenItemBatchParam@CItemUser@@@std@@@std@@IAEPAUGenItemBatchParam@CItemUser@@PAU23@00@Z 00437fb0 f i GameObjects:ScriptManager.obj
 0001:00036fe0       ??$fill@PAUGenItemBatchParam@CItemUser@@U12@@std@@YAXPAUGenItemBatchParam@CItemUser@@0ABU12@@Z 00437fe0 f i GameObjects:ScriptManager.obj
 0001:00036fe0       ??$fill@PAU_tagXmlEntity@@U1@@std@@YAXPAU_tagXmlEntity@@0ABU1@@Z 00437fe0 f i GameObjects:BuffBaseData.obj
 0001:00037020       ??$insert@Viterator@?$list@Vlua_variant@lite@@V?$allocator@Vlua_variant@lite@@@std@@@std@@@?$list@Vlua_variant@lite@@V?$allocator@Vlua_variant@lite@@@std@@@std@@QAEXViterator@01@00@Z 00438020 f i GameObjects:ScriptManager.obj
 0001:00037060       ??$_Destroy@U_Node@?$_List_nod@Vlua_variant@lite@@V?$allocator@Vlua_variant@lite@@@std@@@std@@@std@@YAXPAU_Node@?$_List_nod@Vlua_variant@lite@@V?$allocator@Vlua_variant@lite@@@std@@@0@@Z 00438060 f i GameObjects:ScriptManager.obj
 0001:00037070       ??$insert@Vconst_iterator@?$list@Vlua_variant@lite@@V?$allocator@Vlua_variant@lite@@@std@@@std@@@?$list@Vlua_variant@lite@@V?$allocator@Vlua_variant@lite@@@std@@@std@@QAEXViterator@01@Vconst_iterator@01@1@Z 00438070 f i GameObjects:ScriptManager.obj
 0001:000370b0       ??$_Destroy@U_Node@?$_Tree_nod@V?$_Tmap_traits@HV?$vector@USItemOddsTabledata@@V?$allocator@USItemOddsTabledata@@@std@@@std@@U?$less@H@2@V?$allocator@U?$pair@$$CBHV?$vector@USItemOddsTabledata@@V?$allocator@USItemOddsTabledata@@@std@@@std@@@std@@@2@$0A@@std@@@std@@@std@@YAXPAU_Node@?$_Tree_nod@V?$_Tmap_traits@HV?$vector@USItemOddsTabledata@@V?$allocator@USItemOddsTabledata@@@std@@@std@@U?$less@H@2@V?$allocator@U?$pair@$$CBHV?$vector@USItemOddsTabledata@@V?$allocator@USItemOddsTabledata@@@std@@@std@@@std@@@2@$0A@@std@@@0@@Z 004380b0 f i GameObjects:ScriptManager.obj
 0001:000370c0       ??0bad_weak_ptr@boost@@QAE@ABV01@@Z 004380c0 f i GameObjects:ScriptManager.obj
 0001:000370f0       ??_G_Node@?$_List_nod@USLuaEvent@@V?$allocator@USLuaEvent@@@std@@@std@@QAEPAXI@Z 004380f0 f i GameObjects:ScriptManager.obj
 0001:00037120       ??_G_Node@?$_List_nod@Vlua_variant@lite@@V?$allocator@Vlua_variant@lite@@@std@@@std@@QAEPAXI@Z 00438120 f i GameObjects:ScriptManager.obj
 0001:00037150       ??_G_Node@?$_Tree_nod@V?$_Tmap_traits@HV?$vector@USItemOddsTabledata@@V?$allocator@USItemOddsTabledata@@@std@@@std@@U?$less@H@2@V?$allocator@U?$pair@$$CBHV?$vector@USItemOddsTabledata@@V?$allocator@USItemOddsTabledata@@@std@@@std@@@std@@@2@$0A@@std@@@std@@QAEPAXI@Z 00438150 f i GameObjects:ScriptManager.obj
 0001:00037180       ??1_Node@?$_List_nod@USLuaEvent@@V?$allocator@USLuaEvent@@@std@@@std@@QAE@XZ 00438180 f i GameObjects:ScriptManager.obj
 0001:000371a0       ??1_Node@?$_List_nod@Vlua_variant@lite@@V?$allocator@Vlua_variant@lite@@@std@@@std@@QAE@XZ 004381a0 f i GameObjects:ScriptManager.obj
 0001:000371c0       ??1_Node@?$_Tree_nod@V?$_Tmap_traits@HV?$vector@USItemOddsTabledata@@V?$allocator@USItemOddsTabledata@@@std@@@std@@U?$less@H@2@V?$allocator@U?$pair@$$CBHV?$vector@USItemOddsTabledata@@V?$allocator@USItemOddsTabledata@@@std@@@std@@@std@@@2@$0A@@std@@@std@@QAE@XZ 004381c0 f i GameObjects:ScriptManager.obj
 0001:000371e0       ??1?$pair@$$CBHV?$vector@USItemOddsTabledata@@V?$allocator@USItemOddsTabledata@@@std@@@std@@@std@@QAE@XZ 004381e0 f i GameObjects:ScriptManager.obj
 0001:00037200       ?clear@?$vector@USItemOddsTabledata@@V?$allocator@USItemOddsTabledata@@@std@@@std@@QAEXXZ 00438200 f i GameObjects:DynDropTable.obj
 0001:00037200       ??1?$vector@USItemOddsTabledata@@V?$allocator@USItemOddsTabledata@@@std@@@std@@QAE@XZ 00438200 f i GameObjects:ScriptManager.obj
 0001:00037220       ?_Tidy@?$vector@USItemOddsTabledata@@V?$allocator@USItemOddsTabledata@@@std@@@std@@IAEXXZ 00438220 f i GameObjects:ScriptManager.obj
 0001:00037290       ?_Destroy@?$vector@USItemOddsTabledata@@V?$allocator@USItemOddsTabledata@@@std@@@std@@IAEXPAUSItemOddsTabledata@@0@Z 00438290 f i GameObjects:ScriptManager.obj
 0001:000372c0       ??$_Distance2@Viterator@?$_Tree@V?$_Tmap_traits@K_KU?$less@K@std@@V?$allocator@U?$pair@$$CBK_K@std@@@2@$0A@@std@@@std@@I@std@@YAXViterator@?$_Tree@V?$_Tmap_traits@K_KU?$less@K@std@@V?$allocator@U?$pair@$$CBK_K@std@@@2@$0A@@std@@@0@0AAIUbidirectional_iterator_tag@0@@Z 004382c0 f i GameObjects:ScriptManager.obj
 0001:000372c0       ??$_Distance2@Viterator@?$_Tree@V?$_Tmap_traits@HVCTrigger@@U?$less@H@std@@V?$allocator@U?$pair@$$CBHVCTrigger@@@std@@@3@$0A@@std@@@std@@I@std@@YAXViterator@?$_Tree@V?$_Tmap_traits@HVCTrigger@@U?$less@H@std@@V?$allocator@U?$pair@$$CBHVCTrigger@@@std@@@3@$0A@@std@@@0@0AAIUbidirectional_iterator_tag@0@@Z 004382c0 f i GameObjects:Region.obj
 0001:00037300       ??$_Uninit_fill_n@PAUGenItemBatchParam@CItemUser@@IU12@V?$allocator@UGenItemBatchParam@CItemUser@@@std@@@std@@YAXPAUGenItemBatchParam@CItemUser@@IABU12@AAV?$allocator@UGenItemBatchParam@CItemUser@@@0@U_Nonscalar_ptr_iterator_tag@0@@Z 00438300 f i GameObjects:ScriptManager.obj
 0001:000373a0       ??$_Distance2@Viterator@?$list@Vlua_variant@lite@@V?$allocator@Vlua_variant@lite@@@std@@@std@@I@std@@YAXViterator@?$list@Vlua_variant@lite@@V?$allocator@Vlua_variant@lite@@@std@@@0@0AAIUbidirectional_iterator_tag@0@@Z 004383a0 f i GameObjects:ScriptManager.obj
 0001:000373e0       ??$_Uninitialized_copy@PAUGenItemBatchParam@CItemUser@@PAU12@V?$allocator@UGenItemBatchParam@CItemUser@@@std@@@std@@YAPAUGenItemBatchParam@CItemUser@@PAU12@00AAV?$allocator@UGenItemBatchParam@CItemUser@@@0@@Z 004383e0 f i GameObjects:ScriptManager.obj
 0001:00037420       ??$_Copy_backward_opt@PAPAU_tagXMLNode@@PAPAU1@@std@@YAPAPAU_tagXMLNode@@PAPAU1@00U_Scalar_ptr_iterator_tag@0@@Z 00438420 f i GameObjects:BuffBaseData.obj
 0001:00037420       ??$_Copy_backward_opt@PAPAU_tagXMLAttr@@PAPAU1@@std@@YAPAPAU_tagXMLAttr@@PAPAU1@00U_Scalar_ptr_iterator_tag@0@@Z 00438420 f i GameObjects:BuffBaseData.obj
 0001:00037420       ??$_Copy_backward_opt@PAPAUSFactionData@@PAPAU1@@std@@YAPAPAUSFactionData@@PAPAU1@00U_Scalar_ptr_iterator_tag@0@@Z 00438420 f i GameObjects:FactionManager.obj
 0001:00037420       ??$_Copy_backward_opt@PAPAVBuffTrigger@@PAPAV1@@std@@YAPAPAVBuffTrigger@@PAPAV1@00U_Scalar_ptr_iterator_tag@0@@Z 00438420 f i GameObjects:BuffPropertyModify.obj
 0001:00037420       ??$_Copy_backward_opt@PAKPAK@std@@YAPAKPAK00U_Scalar_ptr_iterator_tag@0@@Z 00438420 f i GameObjects:Area.obj
 0001:00037420       ??$_Copy_backward_opt@PAPAVBuffAction@@PAPAV1@@std@@YAPAPAVBuffAction@@PAPAV1@00U_Scalar_ptr_iterator_tag@0@@Z 00438420 f i GameObjects:BuffPropertyModify.obj
 0001:00037420       ??$_Copy_backward_opt@PAHPAH@std@@YAPAHPAH00U_Scalar_ptr_iterator_tag@0@@Z 00438420 f i GameObjects:ScriptManager.obj
 0001:00037420       ??$_Copy_backward_opt@PAPBDPAPBD@std@@YAPAPBDPAPBD00U_Scalar_ptr_iterator_tag@0@@Z 00438420 f i TimeProber.obj
 0001:00037460       ??$_Insert@Viterator@?$list@Vlua_variant@lite@@V?$allocator@Vlua_variant@lite@@@std@@@std@@@?$list@Vlua_variant@lite@@V?$allocator@Vlua_variant@lite@@@std@@@std@@QAEXViterator@01@00Uforward_iterator_tag@1@@Z 00438460 f i GameObjects:ScriptManager.obj
 0001:00037540       ??$_Insert@Vconst_iterator@?$list@Vlua_variant@lite@@V?$allocator@Vlua_variant@lite@@@std@@@std@@@?$list@Vlua_variant@lite@@V?$allocator@Vlua_variant@lite@@@std@@@std@@QAEXViterator@01@Vconst_iterator@01@1Uforward_iterator_tag@1@@Z 00438540 f i GameObjects:ScriptManager.obj
 0001:00037620       ??$_Destroy_range@USItemOddsTabledata@@V?$allocator@USItemOddsTabledata@@@std@@@std@@YAXPAUSItemOddsTabledata@@0AAV?$allocator@USItemOddsTabledata@@@0@@Z 00438620 f i GameObjects:ScriptManager.obj
 0001:00037660       ?construct@?$allocator@UGenItemBatchParam@CItemUser@@@std@@QAEXPAUGenItemBatchParam@CItemUser@@ABU34@@Z 00438660 f i GameObjects:ScriptManager.obj
 0001:00037660       ?construct@?$allocator@U_tagXmlEntity@@@std@@QAEXPAU_tagXmlEntity@@ABU3@@Z 00438660 f i GameObjects:BuffBaseData.obj
 0001:00037680       ??$_Uninit_copy@PAUGenItemBatchParam@CItemUser@@PAU12@V?$allocator@UGenItemBatchParam@CItemUser@@@std@@@std@@YAPAUGenItemBatchParam@CItemUser@@PAU12@00AAV?$allocator@UGenItemBatchParam@CItemUser@@@0@U_Nonscalar_ptr_iterator_tag@0@@Z 00438680 f i GameObjects:ScriptManager.obj
 0001:00037730       ??$_Destroy_range@USItemOddsTabledata@@V?$allocator@USItemOddsTabledata@@@std@@@std@@YAXPAUSItemOddsTabledata@@0AAV?$allocator@USItemOddsTabledata@@@0@U_Nonscalar_ptr_iterator_tag@0@@Z 00438730 f i GameObjects:ScriptManager.obj
 0001:00037760       ??0lua_variant@lite@@QAE@XZ 00438760 f i GameObjects:ScriptManager.obj
 0001:00037780       ??0CScriptManager@@QAE@XZ  00438780 f i GameObjects:ScriptManager.obj
 0001:00037840       ??_ECScriptManager@@UAEPAXI@Z 00438840 f i GameObjects:ScriptManager.obj
 0001:00037840       ??_GCScriptManager@@UAEPAXI@Z 00438840 f i GameObjects:ScriptManager.obj
 0001:00037870       ??1CScriptManager@@UAE@XZ  00438870 f i GameObjects:ScriptManager.obj
 0001:000378d0       ??1?$map@V?$basic_string@DU?$char_traits@D@std@@V?$allocator@D@2@@std@@USTaskExBuffer@@U?$less@V?$basic_string@DU?$char_traits@D@std@@V?$allocator@D@2@@std@@@2@V?$allocator@U?$pair@$$CBV?$basic_string@DU?$char_traits@D@std@@V?$allocator@D@2@@std@@USTaskExBuffer@@@std@@@2@@std@@QAE@XZ 004388d0 f i GameObjects:ScriptManager.obj
 0001:000378f0       ??0?$map@V?$basic_string@DU?$char_traits@D@std@@V?$allocator@D@2@@std@@USTaskExBuffer@@U?$less@V?$basic_string@DU?$char_traits@D@std@@V?$allocator@D@2@@std@@@2@V?$allocator@U?$pair@$$CBV?$basic_string@DU?$char_traits@D@std@@V?$allocator@D@2@@std@@USTaskExBuffer@@@std@@@2@@std@@QAE@XZ 004388f0 f i GameObjects:ScriptManager.obj
 0001:00037920       ??1?$_Tree@V?$_Tmap_traits@V?$basic_string@DU?$char_traits@D@std@@V?$allocator@D@2@@std@@USTaskExBuffer@@U?$less@V?$basic_string@DU?$char_traits@D@std@@V?$allocator@D@2@@std@@@2@V?$allocator@U?$pair@$$CBV?$basic_string@DU?$char_traits@D@std@@V?$allocator@D@2@@std@@USTaskExBuffer@@@std@@@2@$0A@@std@@@std@@QAE@XZ 00438920 f i GameObjects:ScriptManager.obj
 0001:00037940       ??0?$_Tree@V?$_Tmap_traits@V?$basic_string@DU?$char_traits@D@std@@V?$allocator@D@2@@std@@USTaskExBuffer@@U?$less@V?$basic_string@DU?$char_traits@D@std@@V?$allocator@D@2@@std@@@2@V?$allocator@U?$pair@$$CBV?$basic_string@DU?$char_traits@D@std@@V?$allocator@D@2@@std@@USTaskExBuffer@@@std@@@2@$0A@@std@@@std@@QAE@ABU?$less@V?$basic_string@DU?$char_traits@D@std@@V?$allocator@D@2@@std@@@1@ABV?$allocator@U?$pair@$$CBV?$basic_string@DU?$char_traits@D@std@@V?$allocator@D@2@@std@@USTaskExBuffer@@@std@@@1@@Z 00438940 f i GameObjects:ScriptManager.obj
 0001:00037980       ?_Tidy@?$_Tree@V?$_Tmap_traits@V?$basic_string@DU?$char_traits@D@std@@V?$allocator@D@2@@std@@USTaskExBuffer@@U?$less@V?$basic_string@DU?$char_traits@D@std@@V?$allocator@D@2@@std@@@2@V?$allocator@U?$pair@$$CBV?$basic_string@DU?$char_traits@D@std@@V?$allocator@D@2@@std@@USTaskExBuffer@@@std@@@2@$0A@@std@@@std@@IAEXXZ 00438980 f i GameObjects:ScriptManager.obj
 0001:00037a30       ?erase@?$_Tree@V?$_Tmap_traits@V?$basic_string@DU?$char_traits@D@std@@V?$allocator@D@2@@std@@USTaskExBuffer@@U?$less@V?$basic_string@DU?$char_traits@D@std@@V?$allocator@D@2@@std@@@2@V?$allocator@U?$pair@$$CBV?$basic_string@DU?$char_traits@D@std@@V?$allocator@D@2@@std@@USTaskExBuffer@@@std@@@2@$0A@@std@@@std@@QAE?AViterator@12@V312@0@Z 00438a30 f i GameObjects:ScriptManager.obj
 0001:00037ad0       ?_Init@?$_Tree@V?$_Tmap_traits@V?$basic_string@DU?$char_traits@D@std@@V?$allocator@D@2@@std@@USTaskExBuffer@@U?$less@V?$basic_string@DU?$char_traits@D@std@@V?$allocator@D@2@@std@@@2@V?$allocator@U?$pair@$$CBV?$basic_string@DU?$char_traits@D@std@@V?$allocator@D@2@@std@@USTaskExBuffer@@@std@@@2@$0A@@std@@@std@@IAEXXZ 00438ad0 f i GameObjects:ScriptManager.obj
 0001:00037b40       ?_Isnil@?$_Tree@V?$_Tmap_traits@V?$basic_string@DU?$char_traits@D@std@@V?$allocator@D@2@@std@@USTaskExBuffer@@U?$less@V?$basic_string@DU?$char_traits@D@std@@V?$allocator@D@2@@std@@@2@V?$allocator@U?$pair@$$CBV?$basic_string@DU?$char_traits@D@std@@V?$allocator@D@2@@std@@USTaskExBuffer@@@std@@@2@$0A@@std@@@std@@KAAADPAU_Node@?$_Tree_nod@V?$_Tmap_traits@V?$basic_string@DU?$char_traits@D@std@@V?$allocator@D@2@@std@@USTaskExBuffer@@U?$less@V?$basic_string@DU?$char_traits@D@std@@V?$allocator@D@2@@std@@@2@V?$allocator@U?$pair@$$CBV?$basic_string@DU?$char_traits@D@std@@V?$allocator@D@2@@std@@USTaskExBuffer@@@std@@@2@$0A@@std@@@2@@Z 00438b40 f i GameObjects:ScriptManager.obj
 0001:00037b50       ?erase@?$_Tree@V?$_Tmap_traits@V?$basic_string@DU?$char_traits@D@std@@V?$allocator@D@2@@std@@USTaskExBuffer@@U?$less@V?$basic_string@DU?$char_traits@D@std@@V?$allocator@D@2@@std@@@2@V?$allocator@U?$pair@$$CBV?$basic_string@DU?$char_traits@D@std@@V?$allocator@D@2@@std@@USTaskExBuffer@@@std@@@2@$0A@@std@@@std@@QAE?AViterator@12@V312@@Z 00438b50 f i GameObjects:ScriptManager.obj
 0001:00038300       ?clear@?$_Tree@V?$_Tmap_traits@V?$basic_string@DU?$char_traits@D@std@@V?$allocator@D@2@@std@@USTaskExBuffer@@U?$less@V?$basic_string@DU?$char_traits@D@std@@V?$allocator@D@2@@std@@@2@V?$allocator@U?$pair@$$CBV?$basic_string@DU?$char_traits@D@std@@V?$allocator@D@2@@std@@USTaskExBuffer@@@std@@@2@$0A@@std@@@std@@QAEXXZ 00439300 f i GameObjects:ScriptManager.obj
 0001:00038360       ?_Buynode@?$_Tree@V?$_Tmap_traits@V?$basic_string@DU?$char_traits@D@std@@V?$allocator@D@2@@std@@USTaskExBuffer@@U?$less@V?$basic_string@DU?$char_traits@D@std@@V?$allocator@D@2@@std@@@2@V?$allocator@U?$pair@$$CBV?$basic_string@DU?$char_traits@D@std@@V?$allocator@D@2@@std@@USTaskExBuffer@@@std@@@2@$0A@@std@@@std@@IAEPAU_Node@?$_Tree_nod@V?$_Tmap_traits@V?$basic_string@DU?$char_traits@D@std@@V?$allocator@D@2@@std@@USTaskExBuffer@@U?$less@V?$basic_string@DU?$char_traits@D@std@@V?$allocator@D@2@@std@@@2@V?$allocator@U?$pair@$$CBV?$basic_string@DU?$char_traits@D@std@@V?$allocator@D@2@@std@@USTaskExBuffer@@@std@@@2@$0A@@std@@@2@XZ 00439360 f i GameObjects:ScriptManager.obj
 0001:000384d0       ??Eiterator@?$_Tree@V?$_Tmap_traits@V?$basic_string@DU?$char_traits@D@std@@V?$allocator@D@2@@std@@USTaskExBuffer@@U?$less@V?$basic_string@DU?$char_traits@D@std@@V?$allocator@D@2@@std@@@2@V?$allocator@U?$pair@$$CBV?$basic_string@DU?$char_traits@D@std@@V?$allocator@D@2@@std@@USTaskExBuffer@@@std@@@2@$0A@@std@@@std@@QAE?AV012@H@Z 004394d0 f i GameObjects:ScriptManager.obj
 0001:00038500       ?_Color@?$_Tree@V?$_Tmap_traits@V?$basic_string@DU?$char_traits@D@std@@V?$allocator@D@2@@std@@USTaskExBuffer@@U?$less@V?$basic_string@DU?$char_traits@D@std@@V?$allocator@D@2@@std@@@2@V?$allocator@U?$pair@$$CBV?$basic_string@DU?$char_traits@D@std@@V?$allocator@D@2@@std@@USTaskExBuffer@@@std@@@2@$0A@@std@@@std@@KAAADPAU_Node@?$_Tree_nod@V?$_Tmap_traits@V?$basic_string@DU?$char_traits@D@std@@V?$allocator@D@2@@std@@USTaskExBuffer@@U?$less@V?$basic_string@DU?$char_traits@D@std@@V?$allocator@D@2@@std@@@2@V?$allocator@U?$pair@$$CBV?$basic_string@DU?$char_traits@D@std@@V?$allocator@D@2@@std@@USTaskExBuffer@@@std@@@2@$0A@@std@@@2@@Z 00439500 f i GameObjects:ScriptManager.obj
 0001:00038510       ?_Erase@?$_Tree@V?$_Tmap_traits@V?$basic_string@DU?$char_traits@D@std@@V?$allocator@D@2@@std@@USTaskExBuffer@@U?$less@V?$basic_string@DU?$char_traits@D@std@@V?$allocator@D@2@@std@@@2@V?$allocator@U?$pair@$$CBV?$basic_string@DU?$char_traits@D@std@@V?$allocator@D@2@@std@@USTaskExBuffer@@@std@@@2@$0A@@std@@@std@@IAEXPAU_Node@?$_Tree_nod@V?$_Tmap_traits@V?$basic_string@DU?$char_traits@D@std@@V?$allocator@D@2@@std@@USTaskExBuffer@@U?$less@V?$basic_string@DU?$char_traits@D@std@@V?$allocator@D@2@@std@@@2@V?$allocator@U?$pair@$$CBV?$basic_string@DU?$char_traits@D@std@@V?$allocator@D@2@@std@@USTaskExBuffer@@@std@@@2@$0A@@std@@@2@@Z 00439510 f i GameObjects:ScriptManager.obj
 0001:00038590       ?_Lrotate@?$_Tree@V?$_Tmap_traits@V?$basic_string@DU?$char_traits@D@std@@V?$allocator@D@2@@std@@USTaskExBuffer@@U?$less@V?$basic_string@DU?$char_traits@D@std@@V?$allocator@D@2@@std@@@2@V?$allocator@U?$pair@$$CBV?$basic_string@DU?$char_traits@D@std@@V?$allocator@D@2@@std@@USTaskExBuffer@@@std@@@2@$0A@@std@@@std@@IAEXPAU_Node@?$_Tree_nod@V?$_Tmap_traits@V?$basic_string@DU?$char_traits@D@std@@V?$allocator@D@2@@std@@USTaskExBuffer@@U?$less@V?$basic_string@DU?$char_traits@D@std@@V?$allocator@D@2@@std@@@2@V?$allocator@U?$pair@$$CBV?$basic_string@DU?$char_traits@D@std@@V?$allocator@D@2@@std@@USTaskExBuffer@@@std@@@2@$0A@@std@@@2@@Z 00439590 f i GameObjects:ScriptManager.obj
 0001:000386c0       ?_Max@?$_Tree@V?$_Tmap_traits@V?$basic_string@DU?$char_traits@D@std@@V?$allocator@D@2@@std@@USTaskExBuffer@@U?$less@V?$basic_string@DU?$char_traits@D@std@@V?$allocator@D@2@@std@@@2@V?$allocator@U?$pair@$$CBV?$basic_string@DU?$char_traits@D@std@@V?$allocator@D@2@@std@@USTaskExBuffer@@@std@@@2@$0A@@std@@@std@@KAPAU_Node@?$_Tree_nod@V?$_Tmap_traits@V?$basic_string@DU?$char_traits@D@std@@V?$allocator@D@2@@std@@USTaskExBuffer@@U?$less@V?$basic_string@DU?$char_traits@D@std@@V?$allocator@D@2@@std@@@2@V?$allocator@U?$pair@$$CBV?$basic_string@DU?$char_traits@D@std@@V?$allocator@D@2@@std@@USTaskExBuffer@@@std@@@2@$0A@@std@@@2@PAU342@@Z 004396c0 f i GameObjects:ScriptManager.obj
 0001:00038700       ?_Min@?$_Tree@V?$_Tmap_traits@V?$basic_string@DU?$char_traits@D@std@@V?$allocator@D@2@@std@@USTaskExBuffer@@U?$less@V?$basic_string@DU?$char_traits@D@std@@V?$allocator@D@2@@std@@@2@V?$allocator@U?$pair@$$CBV?$basic_string@DU?$char_traits@D@std@@V?$allocator@D@2@@std@@USTaskExBuffer@@@std@@@2@$0A@@std@@@std@@KAPAU_Node@?$_Tree_nod@V?$_Tmap_traits@V?$basic_string@DU?$char_traits@D@std@@V?$allocator@D@2@@std@@USTaskExBuffer@@U?$less@V?$basic_string@DU?$char_traits@D@std@@V?$allocator@D@2@@std@@@2@V?$allocator@U?$pair@$$CBV?$basic_string@DU?$char_traits@D@std@@V?$allocator@D@2@@std@@USTaskExBuffer@@@std@@@2@$0A@@std@@@2@PAU342@@Z 00439700 f i GameObjects:ScriptManager.obj
 0001:00038740       ?_Rrotate@?$_Tree@V?$_Tmap_traits@V?$basic_string@DU?$char_traits@D@std@@V?$allocator@D@2@@std@@USTaskExBuffer@@U?$less@V?$basic_string@DU?$char_traits@D@std@@V?$allocator@D@2@@std@@@2@V?$allocator@U?$pair@$$CBV?$basic_string@DU?$char_traits@D@std@@V?$allocator@D@2@@std@@USTaskExBuffer@@@std@@@2@$0A@@std@@@std@@IAEXPAU_Node@?$_Tree_nod@V?$_Tmap_traits@V?$basic_string@DU?$char_traits@D@std@@V?$allocator@D@2@@std@@USTaskExBuffer@@U?$less@V?$basic_string@DU?$char_traits@D@std@@V?$allocator@D@2@@std@@@2@V?$allocator@U?$pair@$$CBV?$basic_string@DU?$char_traits@D@std@@V?$allocator@D@2@@std@@USTaskExBuffer@@@std@@@2@$0A@@std@@@2@@Z 00439740 f i GameObjects:ScriptManager.obj
 0001:00038870       ?allocate@?$allocator@U_Node@?$_Tree_nod@V?$_Tmap_traits@V?$basic_string@DU?$char_traits@D@std@@V?$allocator@D@2@@std@@USTaskExBuffer@@U?$less@V?$basic_string@DU?$char_traits@D@std@@V?$allocator@D@2@@std@@@2@V?$allocator@U?$pair@$$CBV?$basic_string@DU?$char_traits@D@std@@V?$allocator@D@2@@std@@USTaskExBuffer@@@std@@@2@$0A@@std@@@std@@@std@@QAEPAU_Node@?$_Tree_nod@V?$_Tmap_traits@V?$basic_string@DU?$char_traits@D@std@@V?$allocator@D@2@@std@@USTaskExBuffer@@U?$less@V?$basic_string@DU?$char_traits@D@std@@V?$allocator@D@2@@std@@@2@V?$allocator@U?$pair@$$CBV?$basic_string@DU?$char_traits@D@std@@V?$allocator@D@2@@std@@USTaskExBuffer@@@std@@@2@$0A@@std@@@2@I@Z 00439870 f i GameObjects:ScriptManager.obj
 0001:00038890       ?destroy@?$allocator@U_Node@?$_Tree_nod@V?$_Tmap_traits@V?$basic_string@DU?$char_traits@D@std@@V?$allocator@D@2@@std@@USTaskExBuffer@@U?$less@V?$basic_string@DU?$char_traits@D@std@@V?$allocator@D@2@@std@@@2@V?$allocator@U?$pair@$$CBV?$basic_string@DU?$char_traits@D@std@@V?$allocator@D@2@@std@@USTaskExBuffer@@@std@@@2@$0A@@std@@@std@@@std@@QAEXPAU_Node@?$_Tree_nod@V?$_Tmap_traits@V?$basic_string@DU?$char_traits@D@std@@V?$allocator@D@2@@std@@USTaskExBuffer@@U?$less@V?$basic_string@DU?$char_traits@D@std@@V?$allocator@D@2@@std@@@2@V?$allocator@U?$pair@$$CBV?$basic_string@DU?$char_traits@D@std@@V?$allocator@D@2@@std@@USTaskExBuffer@@@std@@@2@$0A@@std@@@2@@Z 00439890 f i GameObjects:ScriptManager.obj
 0001:000388b0       ??Eiterator@?$_Tree@V?$_Tmap_traits@V?$basic_string@DU?$char_traits@D@std@@V?$allocator@D@2@@std@@USTaskExBuffer@@U?$less@V?$basic_string@DU?$char_traits@D@std@@V?$allocator@D@2@@std@@@2@V?$allocator@U?$pair@$$CBV?$basic_string@DU?$char_traits@D@std@@V?$allocator@D@2@@std@@USTaskExBuffer@@@std@@@2@$0A@@std@@@std@@QAEAAV012@XZ 004398b0 f i GameObjects:ScriptManager.obj
 0001:000388d0       ??Econst_iterator@?$_Tree@V?$_Tmap_traits@V?$basic_string@DU?$char_traits@D@std@@V?$allocator@D@2@@std@@USTaskExBuffer@@U?$less@V?$basic_string@DU?$char_traits@D@std@@V?$allocator@D@2@@std@@@2@V?$allocator@U?$pair@$$CBV?$basic_string@DU?$char_traits@D@std@@V?$allocator@D@2@@std@@USTaskExBuffer@@@std@@@2@$0A@@std@@@std@@QAEAAV012@XZ 004398d0 f i GameObjects:ScriptManager.obj
 0001:000388f0       ?_Inc@const_iterator@?$_Tree@V?$_Tmap_traits@V?$basic_string@DU?$char_traits@D@std@@V?$allocator@D@2@@std@@USTaskExBuffer@@U?$less@V?$basic_string@DU?$char_traits@D@std@@V?$allocator@D@2@@std@@@2@V?$allocator@U?$pair@$$CBV?$basic_string@DU?$char_traits@D@std@@V?$allocator@D@2@@std@@USTaskExBuffer@@@std@@@2@$0A@@std@@@std@@QAEXXZ 004398f0 f i GameObjects:ScriptManager.obj
 0001:000389b0       ??$_Allocate@U_Node@?$_Tree_nod@V?$_Tmap_traits@V?$basic_string@DU?$char_traits@D@std@@V?$allocator@D@2@@std@@USTaskExBuffer@@U?$less@V?$basic_string@DU?$char_traits@D@std@@V?$allocator@D@2@@std@@@2@V?$allocator@U?$pair@$$CBV?$basic_string@DU?$char_traits@D@std@@V?$allocator@D@2@@std@@USTaskExBuffer@@@std@@@2@$0A@@std@@@std@@@std@@YAPAU_Node@?$_Tree_nod@V?$_Tmap_traits@V?$basic_string@DU?$char_traits@D@std@@V?$allocator@D@2@@std@@USTaskExBuffer@@U?$less@V?$basic_string@DU?$char_traits@D@std@@V?$allocator@D@2@@std@@@2@V?$allocator@U?$pair@$$CBV?$basic_string@DU?$char_traits@D@std@@V?$allocator@D@2@@std@@USTaskExBuffer@@@std@@@2@$0A@@std@@@0@IPAU120@@Z 004399b0 f i GameObjects:ScriptManager.obj
 0001:000389d0       ??$_Destroy@U_Node@?$_Tree_nod@V?$_Tmap_traits@V?$basic_string@DU?$char_traits@D@std@@V?$allocator@D@2@@std@@USTaskExBuffer@@U?$less@V?$basic_string@DU?$char_traits@D@std@@V?$allocator@D@2@@std@@@2@V?$allocator@U?$pair@$$CBV?$basic_string@DU?$char_traits@D@std@@V?$allocator@D@2@@std@@USTaskExBuffer@@@std@@@2@$0A@@std@@@std@@@std@@YAXPAU_Node@?$_Tree_nod@V?$_Tmap_traits@V?$basic_string@DU?$char_traits@D@std@@V?$allocator@D@2@@std@@USTaskExBuffer@@U?$less@V?$basic_string@DU?$char_traits@D@std@@V?$allocator@D@2@@std@@@2@V?$allocator@U?$pair@$$CBV?$basic_string@DU?$char_traits@D@std@@V?$allocator@D@2@@std@@USTaskExBuffer@@@std@@@2@$0A@@std@@@0@@Z 004399d0 f i GameObjects:ScriptManager.obj
 0001:000389e0       ??_G_Node@?$_Tree_nod@V?$_Tmap_traits@V?$basic_string@DU?$char_traits@D@std@@V?$allocator@D@2@@std@@USTaskExBuffer@@U?$less@V?$basic_string@DU?$char_traits@D@std@@V?$allocator@D@2@@std@@@2@V?$allocator@U?$pair@$$CBV?$basic_string@DU?$char_traits@D@std@@V?$allocator@D@2@@std@@USTaskExBuffer@@@std@@@2@$0A@@std@@@std@@QAEPAXI@Z 004399e0 f i GameObjects:ScriptManager.obj
 0001:00038a10       ??1_Node@?$_Tree_nod@V?$_Tmap_traits@V?$basic_string@DU?$char_traits@D@std@@V?$allocator@D@2@@std@@USTaskExBuffer@@U?$less@V?$basic_string@DU?$char_traits@D@std@@V?$allocator@D@2@@std@@@2@V?$allocator@U?$pair@$$CBV?$basic_string@DU?$char_traits@D@std@@V?$allocator@D@2@@std@@USTaskExBuffer@@@std@@@2@$0A@@std@@@std@@QAE@XZ 00439a10 f i GameObjects:ScriptManager.obj
 0001:00038a30       ??1?$pair@$$CBV?$basic_string@DU?$char_traits@D@std@@V?$allocator@D@2@@std@@USTaskExBuffer@@@std@@QAE@XZ 00439a30 f i GameObjects:ScriptManager.obj
 0001:00038a80       ??1STaskExBuffer@@QAE@XZ   00439a80 f i GameObjects:ScriptManager.obj
 0001:00038b00       ??0?$map@K_KU?$less@K@std@@V?$allocator@U?$pair@$$CBK_K@std@@@2@@std@@QAE@XZ 00439b00 f i GameObjects:ScriptManager.obj
 0001:00038b30       ??0?$_Tree@V?$_Tmap_traits@K_KU?$less@K@std@@V?$allocator@U?$pair@$$CBK_K@std@@@2@$0A@@std@@@std@@QAE@ABU?$less@K@1@ABV?$allocator@U?$pair@$$CBK_K@std@@@1@@Z 00439b30 f i GameObjects:ScriptManager.obj
 0001:00038b70       ?_Init@?$_Tree@V?$_Tmap_traits@K_KU?$less@K@std@@V?$allocator@U?$pair@$$CBK_K@std@@@2@$0A@@std@@@std@@IAEXXZ 00439b70 f i GameObjects:ScriptManager.obj
 0001:00038be0       ?_Buynode@?$_Tree@V?$_Tmap_traits@K_KU?$less@K@std@@V?$allocator@U?$pair@$$CBK_K@std@@@2@$0A@@std@@@std@@IAEPAU_Node@?$_Tree_nod@V?$_Tmap_traits@K_KU?$less@K@std@@V?$allocator@U?$pair@$$CBK_K@std@@@2@$0A@@std@@@2@XZ 00439be0 f i GameObjects:ScriptManager.obj
 0001:00038d50       ??0?$list@USLuaEvent@@V?$allocator@USLuaEvent@@@std@@@std@@QAE@XZ 00439d50 f i GameObjects:ScriptManager.obj
 0001:00038d90       ??1?$list@USLuaEvent@@V?$allocator@USLuaEvent@@@std@@@std@@QAE@XZ 00439d90 f i GameObjects:ScriptManager.obj
 0001:00038db0       ?_Buynode@?$list@USLuaEvent@@V?$allocator@USLuaEvent@@@std@@@std@@IAEPAU_Node@?$_List_nod@USLuaEvent@@V?$allocator@USLuaEvent@@@std@@@2@XZ 00439db0 f i GameObjects:ScriptManager.obj
 0001:00038e90       ?_Tidy@?$list@USLuaEvent@@V?$allocator@USLuaEvent@@@std@@@std@@IAEXXZ 00439e90 f i GameObjects:ScriptManager.obj
 0001:00038f00       ?clear@?$list@USLuaEvent@@V?$allocator@USLuaEvent@@@std@@@std@@QAEXXZ 00439f00 f i GameObjects:ScriptManager.obj
 0001:00038fa0       ??1?$map@K_KU?$less@K@std@@V?$allocator@U?$pair@$$CBK_K@std@@@2@@std@@QAE@XZ 00439fa0 f i GameObjects:ScriptManager.obj
 0001:00038fc0       ??1?$_Tree@V?$_Tmap_traits@K_KU?$less@K@std@@V?$allocator@U?$pair@$$CBK_K@std@@@2@$0A@@std@@@std@@QAE@XZ 00439fc0 f i GameObjects:ScriptManager.obj
 0001:00038fe0       ?_Tidy@?$_Tree@V?$_Tmap_traits@K_KU?$less@K@std@@V?$allocator@U?$pair@$$CBK_K@std@@@2@$0A@@std@@@std@@IAEXXZ 00439fe0 f i GameObjects:ScriptManager.obj
 0001:00039090       ?PrepareFunction@CScriptManager@@QAEXPBD@Z 0043a090 f   GameObjects:ExtraScriptFunctions.obj
 0001:00039170       ?PrepareBreak@CScriptManager@@QAEXXZ 0043a170 f   GameObjects:ExtraScriptFunctions.obj
 0001:00039220       ?Execute@CScriptManager@@QAEHPAVVariant@lite@@@Z 0043a220 f   GameObjects:ExtraScriptFunctions.obj
 0001:000395b0       ?PrepareParameters@CScriptManager@@QAEXAAVSerialreader@lite@@@Z 0043a5b0 f   GameObjects:ExtraScriptFunctions.obj
 0001:000398b0       ?PushVariantArray@CScriptManager@@QAEXAAVSerialreader@lite@@@Z 0043a8b0 f   GameObjects:ExtraScriptFunctions.obj
 0001:00039a30       ?PushDWORDArray@CScriptManager@@QAEXAAV?$list@KV?$allocator@K@std@@@std@@@Z 0043aa30 f   GameObjects:ExtraScriptFunctions.obj
 0001:00039b60       ?PushVariantTable@CScriptManager@@QAEXAAVSerialreader@lite@@H@Z 0043ab60 f   GameObjects:ExtraScriptFunctions.obj
 0001:0003a150       ?PushParameter@CScriptManager@@QAEXABVVariant@lite@@_N@Z 0043b150 f   GameObjects:ExtraScriptFunctions.obj
 0001:0003a290       ?SaveTaskEx@CScriptManager@@QAEXPBD@Z 0043b290 f   GameObjects:ExtraScriptFunctions.obj
 0001:0003a570       ?LoadTaskEx@CScriptManager@@QAEPAUSTaskExBuffer@@PBD@Z 0043b570 f   GameObjects:ExtraScriptFunctions.obj
 0001:0003a720       ?L_CreateRegion@CScriptManager@@SAHPAUlua_State@@@Z 0043b720 f   GameObjects:ExtraScriptFunctions.obj
 0001:0003baf0       ?RegisterScriptFunctions@ExtraScriptFunctions@@YAXXZ 0043caf0 f   GameObjects:ExtraScriptFunctions.obj
 0001:0003bfc0       ??0InvalidArray@lite@@QAE@XZ 0043cfc0 f i GameObjects:ExtraScriptFunctions.obj
 0001:0003bff0       ?GetErrInfo@InvalidArray@lite@@UAEPBDXZ 0043cff0 f i GameObjects:ExtraScriptFunctions.obj
 0001:0003c000       ??0CreateTableFailure@lite@@QAE@XZ 0043d000 f i GameObjects:ExtraScriptFunctions.obj
 0001:0003c030       ?GetErrInfo@CreateTableFailure@lite@@UAEPBDXZ 0043d030 f i GameObjects:ExtraScriptFunctions.obj
 0001:0003c040       ??0PushVariantFailure@lite@@QAE@XZ 0043d040 f i GameObjects:ExtraScriptFunctions.obj
 0001:0003c070       ?GetErrInfo@PushVariantFailure@lite@@UAEPBDXZ 0043d070 f i GameObjects:ExtraScriptFunctions.obj
 0001:0003c080       ??0StackBreak@lite@@QAE@XZ 0043d080 f i GameObjects:ExtraScriptFunctions.obj
 0001:0003c0b0       ?GetErrInfo@StackBreak@lite@@UAEPBDXZ 0043d0b0 f i GameObjects:ExtraScriptFunctions.obj
 0001:0003c0c0       ??0CreateTableFailure@lite@@QAE@ABV01@@Z 0043d0c0 f i GameObjects:ExtraScriptFunctions.obj
 0001:0003c0f0       ??0InvalidArray@lite@@QAE@ABV01@@Z 0043d0f0 f i GameObjects:ExtraScriptFunctions.obj
 0001:0003c120       ??0PushVariantFailure@lite@@QAE@ABV01@@Z 0043d120 f i GameObjects:ExtraScriptFunctions.obj
 0001:0003c150       ??0StackBreak@lite@@QAE@ABV01@@Z 0043d150 f i GameObjects:ExtraScriptFunctions.obj
 0001:0003c180       ?SetCopySceneGID@CDynamicRegion@@QAEXK@Z 0043d180 f i GameObjects:ExtraScriptFunctions.obj
 0001:0003c1a0       ?SetCopySceneName@CDynamicRegion@@QAEXPBD@Z 0043d1a0 f i GameObjects:ExtraScriptFunctions.obj
 0001:0003c1d0       ?L_ModifyItem@ExtraLuaFunctions@@SAHPAUlua_State@@@Z 0043d1d0 f i GameObjects:ExtraScriptFunctions.obj
 0001:0003caf0       ?GetRegionById@ExtraLuaFunctions@@SAPAVCRegion@@K@Z 0043daf0 f i GameObjects:ExtraScriptFunctions.obj
 0001:0003ccf0       ?L_GetItemSetting@ExtraLuaFunctions@@SAHPAUlua_State@@@Z 0043dcf0 f i GameObjects:ExtraScriptFunctions.obj
 0001:0003cfc0       ?L_GetItemDetails@ExtraLuaFunctions@@SAHPAUlua_State@@@Z 0043dfc0 f i GameObjects:ExtraScriptFunctions.obj
 0001:0003db90       ?ITEM_IS_OVERLAP@typedef_v6@@YA_NH@Z 0043eb90 f i GameObjects:ExtraScriptFunctions.obj
 0001:0003dbc0       ?ITEM_IS_SCRIPT@typedef_v6@@YA_NH@Z 0043ebc0 f i GameObjects:ExtraScriptFunctions.obj
 0001:0003dbd0       ?ITEM_IS_EQUIPMENT@typedef_v6@@YA_NH@Z 0043ebd0 f i GameObjects:ExtraScriptFunctions.obj
 0001:0003dc00       ?uniqueId@SItemBase10@typedef_v6@@QBE_KXZ 0043ec00 f i GameObjects:ExtraScriptFunctions.obj
 0001:0003dc20       ?L_UpdateItemDetails@ExtraLuaFunctions@@SAHPAUlua_State@@@Z 0043ec20 f i GameObjects:ExtraScriptFunctions.obj
 0001:0003edb0       ?ITEM_IS_JEWEL@typedef_v6@@YAHG@Z 0043fdb0 f i GameObjects:ExtraScriptFunctions.obj
 0001:0003ee00       ?isInvalid@JewelSlot@SEquipment@typedef_v6@@QBEHXZ 0043fe00 f i GameObjects:ExtraScriptFunctions.obj
 0001:0003ee20       ?AttUpdate@ExtraLuaFunctions@@SAXAAUUnit@SEquipment@typedef_v6@@K@Z 0043fe20 f i GameObjects:ExtraScriptFunctions.obj
 0001:0003ee80       ?L_GenerateItemDetails@ExtraLuaFunctions@@SAHPAUlua_State@@@Z 0043fe80 f i GameObjects:ExtraScriptFunctions.obj
 0001:0003fc30       ?isEmpty@JewelSlot@SEquipment@typedef_v6@@QBEHXZ 00440c30 f i GameObjects:ExtraScriptFunctions.obj
 0001:0003fc50       ?isJewel@JewelSlot@SEquipment@typedef_v6@@QBEHXZ 00440c50 f i GameObjects:ExtraScriptFunctions.obj
 0001:0003fc90       ??0GenItemParams@typedef_v6@@QAE@GK@Z 00440c90 f i GameObjects:ExtraScriptFunctions.obj
 0001:0003fcd0       ?L_RemoveObjectIndirect@ExtraLuaFunctions@@SAHPAUlua_State@@@Z 00440cd0 f i GameObjects:ExtraScriptFunctions.obj
 0001:0003feb0       ?L_CI_SelectObject@ExtraLuaFunctions@@SAHPAUlua_State@@@Z 00440eb0 f i GameObjects:ExtraScriptFunctions.obj
 0001:0003ff90       ?L_GetObjectUniqueId@ExtraLuaFunctions@@SAHPAUlua_State@@@Z 00440f90 f i GameObjects:ExtraScriptFunctions.obj
 0001:000400e0       ?L_GetMonsterData@ExtraLuaFunctions@@SAHPAUlua_State@@@Z 004410e0 f i GameObjects:ExtraScriptFunctions.obj
 0001:000408e0       ?L_CI_UpdateMonsterData@ExtraLuaFunctions@@SAHPAUlua_State@@@Z 004418e0 f i GameObjects:ExtraScriptFunctions.obj
 0001:00042830       ?L_GetRegionPlayerCount@ExtraLuaFunctions@@SAHPAUlua_State@@@Z 00443830 f i GameObjects:ExtraScriptFunctions.obj
 0001:000429e0       ?L_ClearPackage@ExtraLuaFunctions@@SAHPAUlua_State@@@Z 004439e0 f i GameObjects:ExtraScriptFunctions.obj
 0001:00042ad0       ?L_GetItemScripts@ExtraLuaFunctions@@SAHPAUlua_State@@@Z 00443ad0 f i GameObjects:ExtraScriptFunctions.obj
 0001:00043130       ?L_UpdateItemScripts@ExtraLuaFunctions@@SAHPAUlua_State@@@Z 00444130 f i GameObjects:ExtraScriptFunctions.obj
 0001:00043bf0       ?L_SetEvent@ExtraLuaFunctions@@SAHPAUlua_State@@@Z 00444bf0 f i GameObjects:ExtraScriptFunctions.obj
 0001:00043d30       ?L_ClrEvent@ExtraLuaFunctions@@SAHPAUlua_State@@@Z 00444d30 f i GameObjects:ExtraScriptFunctions.obj
 0001:00043ee0       ?L_GetPlayer@ExtraLuaFunctions@@SAHPAUlua_State@@@Z 00444ee0 f i GameObjects:ExtraScriptFunctions.obj
 0001:00044120       ?L_DGiveP@ExtraLuaFunctions@@SAHPAUlua_State@@@Z 00445120 f i GameObjects:ExtraScriptFunctions.obj
 0001:000442a0       ?L_PayEquipTime@ExtraLuaFunctions@@SAHPAUlua_State@@@Z 004452a0 f i GameObjects:ExtraScriptFunctions.obj
 0001:000445a0       ?IsTimeEquip@typedef_v6@@YA_NE@Z 004455a0 f i GameObjects:ExtraScriptFunctions.obj
 0001:000445c0       ?L_CI_InitRegionLimit@ExtraLuaFunctions@@SAHPAUlua_State@@@Z 004455c0 f i GameObjects:ExtraScriptFunctions.obj
 0001:00044b00       ?L_SetRegionMultExp@ExtraLuaFunctions@@SAHPAUlua_State@@@Z 00445b00 f i GameObjects:ExtraScriptFunctions.obj
 0001:00044d50       ?L_ClearByDay@ExtraLuaFunctions@@SAHPAUlua_State@@@Z 00445d50 f i GameObjects:ExtraScriptFunctions.obj
 0001:00044e50       ?L_CI_UpdateBuffExtra@ExtraLuaFunctions@@SAHPAUlua_State@@@Z 00445e50 f i GameObjects:ExtraScriptFunctions.obj
 0001:00045490       ?L_CI_UpdateScriptAtt@ExtraLuaFunctions@@SAHPAUlua_State@@@Z 00446490 f i GameObjects:ExtraScriptFunctions.obj
 0001:00045840       ?L_CI_GetEquipDetails@ExtraLuaFunctions@@SAHPAUlua_State@@@Z 00446840 f i GameObjects:ExtraScriptFunctions.obj
 0001:00045f00       ?L_CI_UpdateEquipDetails@ExtraLuaFunctions@@SAHPAUlua_State@@@Z 00446f00 f i GameObjects:ExtraScriptFunctions.obj
 0001:000468d0       ?L_CreateObjectIndirect@ExtraLuaFunctions@@SAHPAUlua_State@@@Z 004478d0 f i GameObjects:ExtraScriptFunctions.obj
 0001:00049c90       ?SetCopySceneGID@CMonster@@QAEXK@Z 0044ac90 f i GameObjects:ExtraScriptFunctions.obj
 0001:00049cb0       ?L_CI_OperateMounts@ExtraLuaFunctions@@SAHPAUlua_State@@@Z 0044acb0 f i GameObjects:ExtraScriptFunctions.obj
 0001:0004a090       ?CheckRegionLimit@CRegion@@QAE_NW4RLimitType@@@Z 0044b090 f i GameObjects:ExtraScriptFunctions.obj
 0001:0004a0b0       ?L_CI_OperateHero@ExtraLuaFunctions@@SAHPAUlua_State@@@Z 0044b0b0 f i GameObjects:ExtraScriptFunctions.obj
 0001:0004ac80       ?GetCallHeroIndex@CPlayer@@QAEEXZ 0044bc80 f i GameObjects:ExtraScriptFunctions.obj
 0001:0004aca0       ?L_CI_DeleteDRegion@ExtraLuaFunctions@@SAHPAUlua_State@@@Z 0044bca0 f i GameObjects:ExtraScriptFunctions.obj
 0001:0004b120       ?isValid@IObject@@QAEAA_NXZ 0044c120 f i GameObjects:ExtraScriptFunctions.obj
 0001:0004b140       ?L_CI_DelMonster@ExtraLuaFunctions@@SAHPAUlua_State@@@Z 0044c140 f i GameObjects:ExtraScriptFunctions.obj
 0001:0004b290       ?L_CI_GetCurPos@ExtraLuaFunctions@@SAHPAUlua_State@@@Z 0044c290 f i GameObjects:ExtraScriptFunctions.obj
 0001:0004b540       ?L_CI_DelNpc@ExtraLuaFunctions@@SAHPAUlua_State@@@Z 0044c540 f i GameObjects:ExtraScriptFunctions.obj
 0001:0004b6e0       ?L_GetRegionRetPos@ExtraLuaFunctions@@SAHPAUlua_State@@@Z 0044c6e0 f i GameObjects:ExtraScriptFunctions.obj
 0001:0004b870       ?L_SetRegionRetPos@ExtraLuaFunctions@@SAHPAUlua_State@@@Z 0044c870 f i GameObjects:ExtraScriptFunctions.obj
 0001:0004ba50       ?L_SetTrap@ExtraLuaFunctions@@SAHPAUlua_State@@@Z 0044ca50 f i GameObjects:ExtraScriptFunctions.obj
 0001:0004c100       ?L_CI_UpdateNpcData@ExtraLuaFunctions@@SAHPAUlua_State@@@Z 0044d100 f i GameObjects:ExtraScriptFunctions.obj
 0001:0004c8a0       ?SetCollected@CNpc@@QAEX_N@Z 0044d8a0 f i GameObjects:ExtraScriptFunctions.obj
 0001:0004c8c0       ?L_CI_GetNpcData@ExtraLuaFunctions@@SAHPAUlua_State@@@Z 0044d8c0 f i GameObjects:ExtraScriptFunctions.obj
 0001:0004cac0       ?IsCollected@CNpc@@QBE_NXZ 0044dac0 f i GameObjects:ExtraScriptFunctions.obj
 0001:0004cae0       ?L_CI_SetDRDelMode@ExtraLuaFunctions@@SAHPAUlua_State@@@Z 0044dae0 f i GameObjects:ExtraScriptFunctions.obj
 0001:0004cca0       ?L_CI_SendDRPlayerList@ExtraLuaFunctions@@SAHPAUlua_State@@@Z 0044dca0 f i GameObjects:ExtraScriptFunctions.obj
 0001:0004d090       ?L_TI_TestWPR@ExtraLuaFunctions@@SAHPAUlua_State@@@Z 0044e090 f i GameObjects:ExtraScriptFunctions.obj
 0001:0004d130       ??0shared_count@detail@boost@@QAE@ABV012@@Z 0044e130 f i GameObjects:ExtraScriptFunctions.obj
 0001:0004d160       ?add_ref_copy@sp_counted_base@detail@boost@@QAEXXZ 0044e160 f i GameObjects:ExtraScriptFunctions.obj
 0001:0004d180       ??0SAEquipInfoMsg@@QAE@XZ  0044e180 f i GameObjects:ExtraScriptFunctions.obj
 0001:0004d1a0       ??0SEquipInfoMsg@@QAE@XZ   0044e1a0 f i GameObjects:ExtraScriptFunctions.obj
 0001:0004d1c0       ??0SASendDRPlayerList@@QAE@XZ 0044e1c0 f i GameObjects:ExtraScriptFunctions.obj
 0001:0004d1e0       ??0SSendDRPlayerList@@QAE@XZ 0044e1e0 f i GameObjects:ExtraScriptFunctions.obj
 0001:0004d200       ??0?$list@V?$shared_ptr@VIObject@@@boost@@V?$allocator@V?$shared_ptr@VIObject@@@boost@@@std@@@std@@QAE@ABV01@@Z 0044e200 f i GameObjects:ExtraScriptFunctions.obj
 0001:0004d2e0       ??1?$list@V?$shared_ptr@VIObject@@@boost@@V?$allocator@V?$shared_ptr@VIObject@@@boost@@@std@@@std@@QAE@XZ 0044e2e0 f i GameObjects:ExtraScriptFunctions.obj
 0001:0004d300       ??9const_iterator@?$_Tree@V?$_Tmap_traits@_KU?$pair@_K_K@std@@U?$less@_K@2@V?$allocator@U?$pair@$$CB_KU?$pair@_K_K@std@@@std@@@2@$0A@@std@@@std@@QBE_NABV012@@Z 0044e300 f i NetProviderModuleEx:NetProviderModuleAdvEx.obj
 0001:0004d300       ??9const_iterator@?$_Tree@V?$_Tmap_traits@V?$basic_string@DU?$char_traits@D@std@@V?$allocator@D@2@@std@@UNode@ProfileManager@jex@@U?$less@V?$basic_string@DU?$char_traits@D@std@@V?$allocator@D@2@@std@@@2@V?$allocator@U?$pair@$$CBV?$basic_string@DU?$char_traits@D@std@@V?$allocator@D@2@@std@@UNode@ProfileManager@jex@@@std@@@2@$0A@@std@@@std@@QBE_NABV012@@Z 0044e300 f i TimeProber.obj
 0001:0004d300       ??9const_iterator@?$vector@UGenItemBatchParam@CItemUser@@V?$allocator@UGenItemBatchParam@CItemUser@@@std@@@std@@QBE_NABV012@@Z 0044e300 f i GameObjects:ItemUser.obj
 0001:0004d300       ??9const_iterator@?$_Tree@V?$_Tset_traits@GU?$less@G@std@@V?$allocator@G@2@$0A@@std@@@std@@QBE_NABV012@@Z 0044e300 f i GameObjects:Region.obj
 0001:0004d300       ??9const_iterator@?$_Tree@V?$_Tmap_traits@GV?$map@KGU?$less@K@std@@V?$allocator@U?$pair@$$CBKG@std@@@2@@std@@U?$less@G@2@V?$allocator@U?$pair@$$CBGV?$map@KGU?$less@K@std@@V?$allocator@U?$pair@$$CBKG@std@@@2@@std@@@std@@@2@$0A@@std@@@std@@QBE_NABV012@@Z 0044e300 f i GameObjects:MonsterDrop.obj
 0001:0004d300       ??9const_iterator@?$list@KV?$allocator@K@std@@@std@@QBE_NABV012@@Z 0044e300 f i GameObjects:ExtraScriptFunctions.obj
 0001:0004d300       ??9const_iterator@?$_Tree@V?$_Tmap_traits@HV?$shared_ptr@V?$pool@Udefault_user_allocator_new_delete@boost@@@boost@@@boost@@U?$less@H@std@@V?$allocator@U?$pair@$$CBHV?$shared_ptr@V?$pool@Udefault_user_allocator_new_delete@boost@@@boost@@@boost@@@std@@@4@$0A@@std@@@std@@QBE_NABV012@@Z 0044e300 f i GameObjects:Region.obj
 0001:0004d300       ??9const_iterator@?$list@USPackageItem@typedef_v6@@V?$allocator@USPackageItem@typedef_v6@@@std@@@std@@QBE_NABV012@@Z 0044e300 f i GameObjects:ItemUser.obj
 0001:0004d300       ??9const_iterator@?$_Tree@V?$_Tmap_traits@V?$basic_string@DU?$char_traits@D@std@@V?$allocator@D@2@@std@@KU?$less@V?$basic_string@DU?$char_traits@D@std@@V?$allocator@D@2@@std@@@2@V?$allocator@U?$pair@$$CBV?$basic_string@DU?$char_traits@D@std@@V?$allocator@D@2@@std@@K@std@@@2@$0A@@std@@@std@@QBE_NABV012@@Z 0044e300 f i NetGMModule.obj
 0001:0004d300       ??9const_iterator@?$_Tree@V?$_Tmap_traits@KKU?$less@K@std@@V?$allocator@U?$pair@$$CBKK@std@@@2@$0A@@std@@@std@@QBE_NABV012@@Z 0044e300 f i GameObjects:GameWorld.obj
 0001:0004d300       ??9const_iterator@?$vector@KV?$allocator@K@std@@@std@@QBE_NABV012@@Z 0044e300 f i GameObjects:Area.obj
 0001:0004d300       ??9const_iterator@?$list@Vlua_variant@lite@@V?$allocator@Vlua_variant@lite@@@std@@@std@@QBE_NABV012@@Z 0044e300 f i GameObjects:ScriptManager.obj
 0001:0004d300       ??9const_iterator@?$_Tree@V?$_Tmap_traits@PBDUSortNode@ProfileManager@jex@@U?$less@PBD@std@@V?$allocator@U?$pair@QBDUSortNode@ProfileManager@jex@@@std@@@5@$0A@@std@@@std@@QBE_NABV012@@Z 0044e300 f i TimeProber.obj
 0001:0004d300       ??9const_iterator@?$_Tree@V?$_Tmap_traits@GGU?$less@G@std@@V?$allocator@U?$pair@$$CBGG@std@@@2@$0A@@std@@@std@@QBE_NABV012@@Z 0044e300 f i GameObjects:MonsterDrop.obj
 0001:0004d300       ??9const_iterator@?$_Tree@V?$_Tmap_traits@KUSFactionData@@U?$less@K@std@@V?$allocator@U?$pair@$$CBKUSFactionData@@@std@@@3@$0A@@std@@@std@@QBE_NABV012@@Z 0044e300 f i GameObjects:FactionManager.obj
 0001:0004d300       ??9const_iterator@?$_Tree@V?$_Tmap_traits@UPath@ProfileManager@jex@@UNode@23@U?$less@UPath@ProfileManager@jex@@@std@@V?$allocator@U?$pair@$$CBUPath@ProfileManager@jex@@UNode@23@@std@@@6@$0A@@std@@@std@@QBE_NABV012@@Z 0044e300 f i TimeProber.obj
 0001:0004d300       ??9const_iterator@?$_Tree@V?$_Tmap_traits@V?$basic_string@DU?$char_traits@D@std@@V?$allocator@D@2@@std@@HU?$less@V?$basic_string@DU?$char_traits@D@std@@V?$allocator@D@2@@std@@@2@V?$allocator@U?$pair@$$CBV?$basic_string@DU?$char_traits@D@std@@V?$allocator@D@2@@std@@H@std@@@2@$0A@@std@@@std@@QBE_NABV012@@Z 0044e300 f i 区域服务器.obj
 0001:0004d300       ??9const_iterator@?$list@USLuaEvent@@V?$allocator@USLuaEvent@@@std@@@std@@QBE_NABV012@@Z 0044e300 f i GameObjects:ScriptManager.obj
 0001:0004d300       ??9const_iterator@?$_Tree@V?$_Tmap_traits@KUSFBData@@U?$less@K@std@@V?$allocator@U?$pair@$$CBKUSFBData@@@std@@@3@$0A@@std@@@std@@QBE_NABV012@@Z 0044e300 f i GameObjects:Player.obj
 0001:0004d300       ??9const_iterator@?$_Tree@V?$_Tmap_traits@KGU?$less@K@std@@V?$allocator@U?$pair@$$CBKG@std@@@2@$0A@@std@@@std@@QBE_NABV012@@Z 0044e300 f i GameObjects:ExtraScriptFunctionsEx.obj
 0001:0004d300       ??9const_iterator@?$vector@HV?$allocator@H@std@@@std@@QBE_NABV012@@Z 0044e300 f i GameObjects:ItemUser.obj
 0001:0004d300       ??9const_iterator@?$_Tree@V?$_Tmap_traits@GHU?$less@G@std@@V?$allocator@U?$pair@$$CBGH@std@@@2@$0A@@std@@@std@@QBE_NABV012@@Z 0044e300 f i GameObjects:Region.obj
 0001:0004d300       ??9const_iterator@?$list@USPlayerRelates@typedef_v6@@V?$allocator@USPlayerRelates@typedef_v6@@@std@@@std@@QBE_NABV012@@Z 0044e300 f i GameObjects:Relation.obj
 0001:0004d300       ??9const_iterator@?$_Tree@V?$_Tmap_traits@KUSTraceOBJ@CFuncTrace@@U?$less@K@std@@V?$allocator@U?$pair@$$CBKUSTraceOBJ@CFuncTrace@@@std@@@4@$0A@@std@@@std@@QBE_NABV012@@Z 0044e300 f i GameObjects:Player.obj
 0001:0004d300       ??9const_iterator@?$_Tree@V?$_Tmap_traits@V?$basic_string@DU?$char_traits@D@std@@V?$allocator@D@2@@std@@USTraceFile@@U?$less@V?$basic_string@DU?$char_traits@D@std@@V?$allocator@D@2@@std@@@2@V?$allocator@U?$pair@$$CBV?$basic_string@DU?$char_traits@D@std@@V?$allocator@D@2@@std@@USTraceFile@@@std@@@2@$0A@@std@@@std@@QBE_NABV012@@Z 0044e300 f i traceinfo.obj
 0001:0004d300       ??9const_iterator@?$vector@PAUSFactionData@@V?$allocator@PAUSFactionData@@@std@@@std@@QBE_NABV012@@Z 0044e300 f i GameObjects:FactionManager.obj
 0001:0004d300       ??9const_iterator@?$list@UtempAddItem@CPlayer@@V?$allocator@UtempAddItem@CPlayer@@@std@@@std@@QBE_NABV012@@Z 0044e300 f i GameObjects:GameWorld.obj
 0001:0004d300       ??9const_iterator@?$_Tree@V?$_Tmap_traits@_KVCLinkData@@U?$less@_K@std@@V?$allocator@U?$pair@$$CB_KVCLinkData@@@std@@@3@$0A@@std@@@std@@QBE_NABV012@@Z 0044e300 f i NetProviderModuleEx:NetProviderModule.obj
 0001:0004d300       ??9const_iterator@?$list@U?$pair@V?$basic_string@DU?$char_traits@D@std@@V?$allocator@D@2@@std@@V?$SharedPtr@UEventBase@EventMgr@@@fge@@@std@@V?$fast_pool_allocator@U?$pair@V?$basic_string@DU?$char_traits@D@std@@V?$allocator@D@2@@std@@V?$SharedPtr@UEventBase@EventMgr@@@fge@@@std@@Udefault_user_allocator_new_delete@boost@@Vwin32_mutex@pool@details@4@$0CA@@boost@@@std@@QBE_NABV012@@Z 0044e300 f i GameObjects:EventManager.obj
 0001:0004d300       ??9const_iterator@?$_Tree@V?$_Tmap_traits@GJU?$less@G@std@@V?$allocator@U?$pair@$$CBGJ@std@@@2@$0A@@std@@@std@@QBE_NABV012@@Z 0044e300 f i GameObjects:Item.obj
 0001:0004d300       ??9const_iterator@?$_Tree@V?$_Tset_traits@KU?$less@K@std@@V?$allocator@K@2@$0A@@std@@@std@@QBE_NABV012@@Z 0044e300 f i GameObjects:Region.obj
 0001:0004d300       ??9const_iterator@?$_Tree@V?$_Tmap_traits@V?$stringkey@$$BY0BF@D@dwt@@KU?$less@V?$stringkey@$$BY0BF@D@dwt@@@std@@V?$allocator@U?$pair@$$CBV?$stringkey@$$BY0BF@D@dwt@@K@std@@@4@$0A@@std@@@std@@QBE_NABV012@@Z 0044e300 f i GameObjects:GameWorld.obj
 0001:0004d300       ??9const_iterator@?$vector@UValueEvent@TriggerAISystem@@V?$allocator@UValueEvent@TriggerAISystem@@@std@@@std@@QBE_NABV012@@Z 0044e300 f i GameObjects:TriggerAISystem.obj
 0001:0004d300       ??9const_iterator@?$vector@PAU_tagXMLNode@@V?$allocator@PAU_tagXMLNode@@@std@@@std@@QBE_NABV012@@Z 0044e300 f i GameObjects:BuffBaseData.obj
 0001:0004d300       ??9const_iterator@?$_Tree@V?$_Tmap_traits@V?$basic_string@DU?$char_traits@D@std@@V?$allocator@D@2@@std@@PAUCooler@@U?$less@V?$basic_string@DU?$char_traits@D@std@@V?$allocator@D@2@@std@@@2@V?$allocator@U?$pair@$$CBV?$basic_string@DU?$char_traits@D@std@@V?$allocator@D@2@@std@@PAUCooler@@@std@@@2@$0A@@std@@@std@@QBE_NABV012@@Z 0044e300 f i GameObjects:FightObject.obj
 0001:0004d300       ??9const_iterator@?$vector@PBDV?$allocator@PBD@std@@@std@@QBE_NABV012@@Z 0044e300 f i TimeProber.obj
 0001:0004d300       ??9const_iterator@?$_Tree@V?$_Tmap_traits@V?$basic_string@DU?$char_traits@D@std@@V?$allocator@D@2@@std@@USTaskExBuffer@@U?$less@V?$basic_string@DU?$char_traits@D@std@@V?$allocator@D@2@@std@@@2@V?$allocator@U?$pair@$$CBV?$basic_string@DU?$char_traits@D@std@@V?$allocator@D@2@@std@@USTaskExBuffer@@@std@@@2@$0A@@std@@@std@@QBE_NABV012@@Z 0044e300 f i GameObjects:ScriptManager.obj
 0001:0004d300       ??9const_iterator@?$_Tree@V?$_Tmap_traits@PBDV?$deque@KV?$allocator@K@std@@@std@@U?$less@PBD@2@V?$allocator@U?$pair@QBDV?$deque@KV?$allocator@K@std@@@std@@@std@@@2@$0A@@std@@@std@@QBE_NABV012@@Z 0044e300 f i TimeProber.obj
 0001:0004d300       ??9const_iterator@?$list@PAVCDynamicRegion@@V?$allocator@PAVCDynamicRegion@@@std@@@std@@QBE_NABV012@@Z 0044e300 f i GameObjects:RegionManager.obj
 0001:0004d300       ??9const_iterator@?$_Tree@V?$_Tmap_traits@KUIRcd@@U?$less@K@std@@V?$allocator@U?$pair@$$CBKUIRcd@@@std@@@3@$0A@@std@@@std@@QBE_NABV012@@Z 0044e300 f i GameObjects:ItemData.obj
 0001:0004d300       ??9const_iterator@?$list@USMonsterData@@V?$allocator@USMonsterData@@@std@@@std@@QBE_NABV012@@Z 0044e300 f i GameObjects:Monster.obj
 0001:0004d300       ??9const_iterator@?$_Tree@V?$_Tmap_traits@_KVCLinkDataAdvEx@@U?$less@_K@std@@V?$allocator@U?$pair@$$CB_KVCLinkDataAdvEx@@@std@@@3@$0A@@std@@@std@@QBE_NABV012@@Z 0044e300 f i NetProviderModuleEx:NetProviderModuleAdvEx.obj
 0001:0004d300       ??9const_iterator@?$_Tree@V?$_Tmap_traits@V?$basic_string@DU?$char_traits@D@std@@V?$allocator@D@2@@std@@UCMD_FUNCDATA@StaticSingleton@@U?$less@V?$basic_string@DU?$char_traits@D@std@@V?$allocator@D@2@@std@@@2@V?$allocator@U?$pair@$$CBV?$basic_string@DU?$char_traits@D@std@@V?$allocator@D@2@@std@@UCMD_FUNCDATA@StaticSingleton@@@std@@@2@$0A@@std@@@std@@QBE_NABV012@@Z 0044e300 f i 区域服务器.obj
 0001:0004d300       ??9const_iterator@?$list@V?$shared_ptr@VIObject@@@boost@@V?$allocator@V?$shared_ptr@VIObject@@@boost@@@std@@@std@@QBE_NABV012@@Z 0044e300 f i GameObjects:ExtraScriptFunctions.obj
 0001:0004d300       ??9const_iterator@?$_Tree@V?$_Tmap_traits@HVCTrigger@@U?$less@H@std@@V?$allocator@U?$pair@$$CBHVCTrigger@@@std@@@3@$0A@@std@@@std@@QBE_NABV012@@Z 0044e300 f i GameObjects:Region.obj
 0001:0004d300       ??9const_iterator@?$vector@DV?$allocator@D@std@@@std@@QBE_NABV012@@Z 0044e300 f i GameObjects:xyLog.obj
 0001:0004d300       ??9const_iterator@?$list@PAVCFightListener@@V?$allocator@PAVCFightListener@@@std@@@std@@QBE_NABV012@@Z 0044e300 f i GameObjects:FightObject.obj
 0001:0004d300       ??9const_iterator@?$vector@PAU_tagXMLAttr@@V?$allocator@PAU_tagXMLAttr@@@std@@@std@@QBE_NABV012@@Z 0044e300 f i GameObjects:BuffBaseData.obj
 0001:0004d300       ??9const_iterator@?$_Tree@V?$_Tmap_traits@KUTeam@@U?$less@K@std@@V?$allocator@U?$pair@$$CBKUTeam@@@std@@@3@$0A@@std@@@std@@QBE_NABV012@@Z 0044e300 f i GameObjects:Player.obj
 0001:0004d300       ??9const_iterator@?$list@USRelatesBase@typedef_v6@@V?$allocator@USRelatesBase@typedef_v6@@@std@@@std@@QBE_NABV012@@Z 0044e300 f i GameObjects:Relation.obj
 0001:0004d300       ??9const_iterator@?$_Tree@V?$_Tmap_traits@IV?$shared_ptr@VIObject@@@boost@@U?$less@I@std@@V?$allocator@U?$pair@$$CBIV?$shared_ptr@VIObject@@@boost@@@std@@@4@$0A@@std@@@std@@QBE_NABV012@@Z 0044e300 f i GameObjects:BaseObject.obj
 0001:0004d300       ??9const_iterator@?$vector@USItemOddsTabledata@@V?$allocator@USItemOddsTabledata@@@std@@@std@@QBE_NABV012@@Z 0044e300 f i GameObjects:DynDropTable.obj
 0001:0004d300       ??9const_iterator@?$_Tree@V?$_Tmap_traits@KUSHitData@CMonster@@U?$less@K@std@@V?$allocator@U?$pair@$$CBKUSHitData@CMonster@@@std@@@4@$0A@@std@@@std@@QBE_NABV012@@Z 0044e300 f i GameObjects:Player.obj
 0001:0004d300       ??9const_iterator@?$_Tree@V?$_Tmap_traits@K_KU?$less@K@std@@V?$allocator@U?$pair@$$CBK_K@std@@@2@$0A@@std@@@std@@QBE_NABV012@@Z 0044e300 f i GameObjects:ScriptManager.obj
 0001:0004d300       ??9const_iterator@?$_Tree@V?$_Tmap_traits@V?$basic_string@DU?$char_traits@D@std@@V?$allocator@D@2@@std@@PAVBuffBase@@U?$less@V?$basic_string@DU?$char_traits@D@std@@V?$allocator@D@2@@std@@@2@V?$allocator@U?$pair@$$CBV?$basic_string@DU?$char_traits@D@std@@V?$allocator@D@2@@std@@PAVBuffBase@@@std@@@2@$0A@@std@@@std@@QBE_NABV012@@Z 0044e300 f i GameObjects:Player.obj
 0001:0004d300       ??9const_iterator@?$_Tree@V?$_Tmap_traits@_KKU?$less@_K@std@@V?$allocator@U?$pair@$$CB_KK@std@@@2@$0A@@std@@@std@@QBE_NABV012@@Z 0044e300 f i GameObjects:GameWorld.obj
 0001:0004d300       ??9const_iterator@?$vector@UBuffEvent@TriggerAISystem@@V?$allocator@UBuffEvent@TriggerAISystem@@@std@@@std@@QBE_NABV012@@Z 0044e300 f i GameObjects:TriggerAISystem.obj
 0001:0004d300       ??9const_iterator@?$_Tree@V?$_Tmap_traits@HV?$vector@USItemOddsTabledata@@V?$allocator@USItemOddsTabledata@@@std@@@std@@U?$less@H@2@V?$allocator@U?$pair@$$CBHV?$vector@USItemOddsTabledata@@V?$allocator@USItemOddsTabledata@@@std@@@std@@@std@@@2@$0A@@std@@@std@@QBE_NABV012@@Z 0044e300 f i GameObjects:ScriptManager.obj
 0001:0004d330       ??A?$map@V?$basic_string@DU?$char_traits@D@std@@V?$allocator@D@2@@std@@USTaskExBuffer@@U?$less@V?$basic_string@DU?$char_traits@D@std@@V?$allocator@D@2@@std@@@2@V?$allocator@U?$pair@$$CBV?$basic_string@DU?$char_traits@D@std@@V?$allocator@D@2@@std@@USTaskExBuffer@@@std@@@2@@std@@QAEAAUSTaskExBuffer@@ABV?$basic_string@DU?$char_traits@D@std@@V?$allocator@D@2@@1@@Z 0044e330 f i GameObjects:ExtraScriptFunctions.obj
 0001:0004d430       ??0STaskExBuffer@@QAE@XZ   0044e430 f i GameObjects:ExtraScriptFunctions.obj
 0001:0004d470       ?find@?$_Tree@V?$_Tmap_traits@V?$basic_string@DU?$char_traits@D@std@@V?$allocator@D@2@@std@@USTaskExBuffer@@U?$less@V?$basic_string@DU?$char_traits@D@std@@V?$allocator@D@2@@std@@@2@V?$allocator@U?$pair@$$CBV?$basic_string@DU?$char_traits@D@std@@V?$allocator@D@2@@std@@USTaskExBuffer@@@std@@@2@$0A@@std@@@std@@QAE?AViterator@12@ABV?$basic_string@DU?$char_traits@D@std@@V?$allocator@D@2@@2@@Z 0044e470 f i GameObjects:ExtraScriptFunctions.obj
 0001:0004d500       ?insert@?$_Tree@V?$_Tset_traits@GU?$less@G@std@@V?$allocator@G@2@$0A@@std@@@std@@QAE?AU?$pair@Viterator@?$_Tree@V?$_Tset_traits@GU?$less@G@std@@V?$allocator@G@2@$0A@@std@@@std@@_N@2@ABG@Z 0044e500 f i GameObjects:ExtraScriptFunctions.obj
 0001:0004d6b0       ?clear@?$_Tree@V?$_Tset_traits@GU?$less@G@std@@V?$allocator@G@2@$0A@@std@@@std@@QAEXXZ 0044e6b0 f i GameObjects:ExtraScriptFunctions.obj
 0001:0004d710       ?insert@?$_Tree@V?$_Tset_traits@KU?$less@K@std@@V?$allocator@K@2@$0A@@std@@@std@@QAE?AU?$pair@Viterator@?$_Tree@V?$_Tset_traits@KU?$less@K@std@@V?$allocator@K@2@$0A@@std@@@std@@_N@2@ABK@Z 0044e710 f i GameObjects:ExtraScriptFunctions.obj
 0001:0004d8c0       ?clear@?$_Tree@V?$_Tset_traits@KU?$less@K@std@@V?$allocator@K@2@$0A@@std@@@std@@QAEXXZ 0044e8c0 f i GameObjects:ExtraScriptFunctions.obj
 0001:0004d920       ?push_back@?$vector@GV?$allocator@G@std@@@std@@QAEXABG@Z 0044e920 f i GameObjects:ExtraScriptFunctions.obj
 0001:0004d990       ??1?$vector@GV?$allocator@G@std@@@std@@QAE@XZ 0044e990 f i GameObjects:Region.obj
 0001:0004d990       ?clear@?$vector@GV?$allocator@G@std@@@std@@QAEXXZ 0044e990 f i GameObjects:ExtraScriptFunctions.obj
 0001:0004d9b0       ??0?$object_pool@USMonsterData@@Udefault_user_allocator_new_delete@boost@@@boost@@QAE@I@Z 0044e9b0 f i GameObjects:ExtraScriptFunctions.obj
 0001:0004d9e0       ?construct@?$object_pool@USMonsterData@@Udefault_user_allocator_new_delete@boost@@@boost@@QAEPAUSMonsterData@@XZ 0044e9e0 f i GameObjects:ExtraScriptFunctions.obj
 0001:0004daa0       ?destroy@?$object_pool@USMonsterData@@Udefault_user_allocator_new_delete@boost@@@boost@@QAEXQAUSMonsterData@@@Z 0044eaa0 f i GameObjects:ExtraScriptFunctions.obj
 0001:0004dac0       ??0SMonsterData@@QAE@XZ    0044eac0 f i GameObjects:ExtraScriptFunctions.obj
 0001:0004dae0       ??0SCommAtt@typedef_v6@@QAE@XZ 0044eae0 f i GameObjects:ExtraScriptFunctions.obj
 0001:0004db00       ??0?$pool@Udefault_user_allocator_new_delete@boost@@@boost@@QAE@II@Z 0044eb00 f i GameObjects:ExtraScriptFunctions.obj
 0001:0004db40       ?_Nextnode@?$list@USMonsterData@@V?$allocator@USMonsterData@@@std@@@std@@KAAAPAU_Node@?$_List_nod@USMonsterData@@V?$allocator@USMonsterData@@@std@@@2@PAU342@@Z 0044eb40 f i GameObjects:Monster.obj
 0001:0004db40       ?_Left@?$_Tree@V?$_Tmap_traits@_KKU?$less@_K@std@@V?$allocator@U?$pair@$$CB_KK@std@@@2@$0A@@std@@@std@@KAAAPAU_Node@?$_Tree_nod@V?$_Tmap_traits@_KKU?$less@_K@std@@V?$allocator@U?$pair@$$CB_KK@std@@@2@$0A@@std@@@2@PAU342@@Z 0044eb40 f i GameObjects:GameWorld.obj
 0001:0004db40       ?_Kfn@?$_Tmap_traits@GKU?$less@G@std@@V?$allocator@U?$pair@$$CBGK@std@@@2@$0A@@std@@SAABGABU?$pair@$$CBGK@2@@Z 0044eb40 f i GameObjects:MonsterDrop.obj
 0001:0004db40       ?_Nextnode@?$list@USPlayerRelates@typedef_v6@@V?$allocator@USPlayerRelates@typedef_v6@@@std@@@std@@KAAAPAU_Node@?$_List_nod@USPlayerRelates@typedef_v6@@V?$allocator@USPlayerRelates@typedef_v6@@@std@@@2@PAU342@@Z 0044eb40 f i GameObjects:Player.obj
 0001:0004db40       ?_Kfn@?$_Tmap_traits@_KKU?$less@_K@std@@V?$allocator@U?$pair@$$CB_KK@std@@@2@$0A@@std@@SAAB_KABU?$pair@$$CB_KK@2@@Z 0044eb40 f i GameObjects:PlayerManager.obj
 0001:0004db40       ?_Left@?$_Tree@V?$_Tmap_traits@_KU?$pair@_K_K@std@@U?$less@_K@2@V?$allocator@U?$pair@$$CB_KU?$pair@_K_K@std@@@std@@@2@$0A@@std@@@std@@KAAAPAU_Node@?$_Tree_nod@V?$_Tmap_traits@_KU?$pair@_K_K@std@@U?$less@_K@2@V?$allocator@U?$pair@$$CB_KU?$pair@_K_K@std@@@std@@@2@$0A@@std@@@2@PAU342@@Z 0044eb40 f i NetProviderModuleEx:NetProviderModuleAdvEx.obj
 0001:0004db40       ?_Kfn@?$_Tmap_traits@HV?$shared_ptr@V?$pool@Udefault_user_allocator_new_delete@boost@@@boost@@@boost@@U?$less@H@std@@V?$allocator@U?$pair@$$CBHV?$shared_ptr@V?$pool@Udefault_user_allocator_new_delete@boost@@@boost@@@boost@@@std@@@4@$0A@@std@@SAABHABU?$pair@$$CBHV?$shared_ptr@V?$pool@Udefault_user_allocator_new_delete@boost@@@boost@@@boost@@@2@@Z 0044eb40 f i GameObjects:Region.obj
 0001:0004db40       ?_Kfn@?$_Tmap_traits@_KU?$pair@_K_K@std@@U?$less@_K@2@V?$allocator@U?$pair@$$CB_KU?$pair@_K_K@std@@@std@@@2@$0A@@std@@SAAB_KABU?$pair@$$CB_KU?$pair@_K_K@std@@@2@@Z 0044eb40 f i NetProviderModuleEx:NetProviderModuleAdvEx.obj
 0001:0004db40       ?_Nextnode@?$list@Vlua_variant@lite@@V?$allocator@Vlua_variant@lite@@@std@@@std@@KAAAPAU_Node@?$_List_nod@Vlua_variant@lite@@V?$allocator@Vlua_variant@lite@@@std@@@2@PAU342@@Z 0044eb40 f i GameObjects:ScriptManager.obj
 0001:0004db40       ?_Kfn@?$_Tmap_traits@UPath@ProfileManager@jex@@UNode@23@U?$less@UPath@ProfileManager@jex@@@std@@V?$allocator@U?$pair@$$CBUPath@ProfileManager@jex@@UNode@23@@std@@@6@$0A@@std@@SAABUPath@ProfileManager@jex@@ABU?$pair@$$CBUPath@ProfileManager@jex@@UNode@23@@2@@Z 0044eb40 f i TimeProber.obj
 0001:0004db40       ?_Nextnode@?$list@U?$pair@V?$basic_string@DU?$char_traits@D@std@@V?$allocator@D@2@@std@@V?$SharedPtr@UEventBase@EventMgr@@@fge@@@std@@V?$fast_pool_allocator@U?$pair@V?$basic_string@DU?$char_traits@D@std@@V?$allocator@D@2@@std@@V?$SharedPtr@UEventBase@EventMgr@@@fge@@@std@@Udefault_user_allocator_new_delete@boost@@Vwin32_mutex@pool@details@4@$0CA@@boost@@@std@@KAAAPAU_Node@?$_List_nod@U?$pair@V?$basic_string@DU?$char_traits@D@std@@V?$allocator@D@2@@std@@V?$SharedPtr@UEventBase@EventMgr@@@fge@@@std@@V?$fast_pool_allocator@U?$pair@V?$basic_string@DU?$char_traits@D@std@@V?$allocator@D@2@@std@@V?$SharedPtr@UEventBase@EventMgr@@@fge@@@std@@Udefault_user_allocator_new_delete@boost@@Vwin32_mutex@pool@details@4@$0CA@@boost@@@2@PAU342@@Z 0044eb40 f i GameObjects:EventManager.obj
 0001:0004db40       ?_Kfn@?$_Tmap_traits@V?$basic_string@DU?$char_traits@D@std@@V?$allocator@D@2@@std@@PAUCooler@@U?$less@V?$basic_string@DU?$char_traits@D@std@@V?$allocator@D@2@@std@@@2@V?$allocator@U?$pair@$$CBV?$basic_string@DU?$char_traits@D@std@@V?$allocator@D@2@@std@@PAUCooler@@@std@@@2@$0A@@std@@SAABV?$basic_string@DU?$char_traits@D@std@@V?$allocator@D@2@@2@ABU?$pair@$$CBV?$basic_string@DU?$char_traits@D@std@@V?$allocator@D@2@@std@@PAUCooler@@@2@@Z 0044eb40 f i GameObjects:CooldownMgr.obj
 0001:0004db40       ?_Nextnode@?$list@KV?$allocator@K@std@@@std@@KAAAPAU_Node@?$_List_nod@KV?$allocator@K@std@@@2@PAU342@@Z 0044eb40 f i GameObjects:ExtraScriptFunctions.obj
 0001:0004db40       ?_Left@?$_Tree@V?$_Tmap_traits@V?$basic_string@DU?$char_traits@D@std@@V?$allocator@D@2@@std@@KU?$less@V?$basic_string@DU?$char_traits@D@std@@V?$allocator@D@2@@std@@@2@V?$allocator@U?$pair@$$CBV?$basic_string@DU?$char_traits@D@std@@V?$allocator@D@2@@std@@K@std@@@2@$0A@@std@@@std@@KAAAPAU_Node@?$_Tree_nod@V?$_Tmap_traits@V?$basic_string@DU?$char_traits@D@std@@V?$allocator@D@2@@std@@KU?$less@V?$basic_string@DU?$char_traits@D@std@@V?$allocator@D@2@@std@@@2@V?$allocator@U?$pair@$$CBV?$basic_string@DU?$char_traits@D@std@@V?$allocator@D@2@@std@@K@std@@@2@$0A@@std@@@2@PAU342@@Z 0044eb40 f i NetGMModule.obj
 0001:0004db40       ?_Left@?$_Tree@V?$_Tmap_traits@V?$basic_string@DU?$char_traits@D@std@@V?$allocator@D@2@@std@@UCMD_FUNCDATA@StaticSingleton@@U?$less@V?$basic_string@DU?$char_traits@D@std@@V?$allocator@D@2@@std@@@2@V?$allocator@U?$pair@$$CBV?$basic_string@DU?$char_traits@D@std@@V?$allocator@D@2@@std@@UCMD_FUNCDATA@StaticSingleton@@@std@@@2@$0A@@std@@@std@@KAAAPAU_Node@?$_Tree_nod@V?$_Tmap_traits@V?$basic_string@DU?$char_traits@D@std@@V?$allocator@D@2@@std@@UCMD_FUNCDATA@StaticSingleton@@U?$less@V?$basic_string@DU?$char_traits@D@std@@V?$allocator@D@2@@std@@@2@V?$allocator@U?$pair@$$CBV?$basic_string@DU?$char_traits@D@std@@V?$allocator@D@2@@std@@UCMD_FUNCDATA@StaticSingleton@@@std@@@2@$0A@@std@@@2@PAU342@@Z 0044eb40 f i 区域服务器.obj
 0001:0004db40       ?_Kfn@?$_Tmap_traits@V?$basic_string@DU?$char_traits@D@std@@V?$allocator@D@2@@std@@KU?$less@V?$basic_string@DU?$char_traits@D@std@@V?$allocator@D@2@@std@@@2@V?$allocator@U?$pair@$$CBV?$basic_string@DU?$char_traits@D@std@@V?$allocator@D@2@@std@@K@std@@@2@$0A@@std@@SAABV?$basic_string@DU?$char_traits@D@std@@V?$allocator@D@2@@2@ABU?$pair@$$CBV?$basic_string@DU?$char_traits@D@std@@V?$allocator@D@2@@std@@K@2@@Z 0044eb40 f i NetGMModule.obj
 0001:0004db40       ?nextof@?$object_pool@USMonsterData@@Udefault_user_allocator_new_delete@boost@@@boost@@KAAAPAXQAX@Z 0044eb40 f i GameObjects:ExtraScriptFunctions.obj
 0001:0004db40       ?_Kfn@?$_Tmap_traits@IV?$shared_ptr@VIObject@@@boost@@U?$less@I@std@@V?$allocator@U?$pair@$$CBIV?$shared_ptr@VIObject@@@boost@@@std@@@4@$0A@@std@@SAABIABU?$pair@$$CBIV?$shared_ptr@VIObject@@@boost@@@2@@Z 0044eb40 f i GameObjects:BaseObject.obj
 0001:0004db40       ?_Left@?$_Tree@V?$_Tmap_traits@KUSHitData@CMonster@@U?$less@K@std@@V?$allocator@U?$pair@$$CBKUSHitData@CMonster@@@std@@@4@$0A@@std@@@std@@KAAAPAU_Node@?$_Tree_nod@V?$_Tmap_traits@KUSHitData@CMonster@@U?$less@K@std@@V?$allocator@U?$pair@$$CBKUSHitData@CMonster@@@std@@@4@$0A@@std@@@2@PAU342@@Z 0044eb40 f i GameObjects:Player.obj
 0001:0004db40       ?_Kfn@?$_Tset_traits@GU?$less@G@std@@V?$allocator@G@2@$0A@@std@@SAABGABG@Z 0044eb40 f i GameObjects:ExtraScriptFunctions.obj
 0001:0004db40       ?_Nextnode@?$list@UtempAddItem@CPlayer@@V?$allocator@UtempAddItem@CPlayer@@@std@@@std@@KAAAPAU_Node@?$_List_nod@UtempAddItem@CPlayer@@V?$allocator@UtempAddItem@CPlayer@@@std@@@2@PAU342@@Z 0044eb40 f i GameObjects:GameWorld.obj
 0001:0004db40       ?_Left@?$_Tree@V?$_Tmap_traits@GHU?$less@G@std@@V?$allocator@U?$pair@$$CBGH@std@@@2@$0A@@std@@@std@@KAAAPAU_Node@?$_Tree_nod@V?$_Tmap_traits@GHU?$less@G@std@@V?$allocator@U?$pair@$$CBGH@std@@@2@$0A@@std@@@2@PAU342@@Z 0044eb40 f i GameObjects:Region.obj
 0001:0004db40       ?_Left@?$_Tree@V?$_Tmap_traits@V?$stringkey@$$BY0BF@D@dwt@@KU?$less@V?$stringkey@$$BY0BF@D@dwt@@@std@@V?$allocator@U?$pair@$$CBV?$stringkey@$$BY0BF@D@dwt@@K@std@@@4@$0A@@std@@@std@@KAAAPAU_Node@?$_Tree_nod@V?$_Tmap_traits@V?$stringkey@$$BY0BF@D@dwt@@KU?$less@V?$stringkey@$$BY0BF@D@dwt@@@std@@V?$allocator@U?$pair@$$CBV?$stringkey@$$BY0BF@D@dwt@@K@std@@@4@$0A@@std@@@2@PAU342@@Z 0044eb40 f i GameObjects:GameWorld.obj
 0001:0004db40       ?_Nextnode@?$list@V?$basic_string@DU?$char_traits@D@std@@V?$allocator@D@2@@std@@V?$allocator@V?$basic_string@DU?$char_traits@D@std@@V?$allocator@D@2@@std@@@2@@std@@KAAAPAU_Node@?$_List_nod@V?$basic_string@DU?$char_traits@D@std@@V?$allocator@D@2@@std@@V?$allocator@V?$basic_string@DU?$char_traits@D@std@@V?$allocator@D@2@@std@@@2@@2@PAU342@@Z 0044eb40 f i 区域服务器.obj
 0001:0004db40       ?_Left@?$_Tree@V?$_Tmap_traits@GV?$map@KGU?$less@K@std@@V?$allocator@U?$pair@$$CBKG@std@@@2@@std@@U?$less@G@2@V?$allocator@U?$pair@$$CBGV?$map@KGU?$less@K@std@@V?$allocator@U?$pair@$$CBKG@std@@@2@@std@@@std@@@2@$0A@@std@@@std@@KAAAPAU_Node@?$_Tree_nod@V?$_Tmap_traits@GV?$map@KGU?$less@K@std@@V?$allocator@U?$pair@$$CBKG@std@@@2@@std@@U?$less@G@2@V?$allocator@U?$pair@$$CBGV?$map@KGU?$less@K@std@@V?$allocator@U?$pair@$$CBKG@std@@@2@@std@@@std@@@2@$0A@@std@@@2@PAU342@@Z 0044eb40 f i GameObjects:ExtraScriptFunctionsEx.obj
 0001:0004db40       ?_Left@?$_Tree@V?$_Tmap_traits@KUIRcd@@U?$less@K@std@@V?$allocator@U?$pair@$$CBKUIRcd@@@std@@@3@$0A@@std@@@std@@KAAAPAU_Node@?$_Tree_nod@V?$_Tmap_traits@KUIRcd@@U?$less@K@std@@V?$allocator@U?$pair@$$CBKUIRcd@@@std@@@3@$0A@@std@@@2@PAU342@@Z 0044eb40 f i GameObjects:ItemData.obj
 0001:0004db40       ?_Left@?$_Tree@V?$_Tmap_traits@UPath@ProfileManager@jex@@UNode@23@U?$less@UPath@ProfileManager@jex@@@std@@V?$allocator@U?$pair@$$CBUPath@ProfileManager@jex@@UNode@23@@std@@@6@$0A@@std@@@std@@KAAAPAU_Node@?$_Tree_nod@V?$_Tmap_traits@UPath@ProfileManager@jex@@UNode@23@U?$less@UPath@ProfileManager@jex@@@std@@V?$allocator@U?$pair@$$CBUPath@ProfileManager@jex@@UNode@23@@std@@@6@$0A@@std@@@2@PAU342@@Z 0044eb40 f i TimeProber.obj
 0001:0004db40       ?_Kfn@?$_Tmap_traits@V?$basic_string@DU?$char_traits@D@std@@V?$allocator@D@2@@std@@UCMD_FUNCDATA@StaticSingleton@@U?$less@V?$basic_string@DU?$char_traits@D@std@@V?$allocator@D@2@@std@@@2@V?$allocator@U?$pair@$$CBV?$basic_string@DU?$char_traits@D@std@@V?$allocator@D@2@@std@@UCMD_FUNCDATA@StaticSingleton@@@std@@@2@$0A@@std@@SAABV?$basic_string@DU?$char_traits@D@std@@V?$allocator@D@2@@2@ABU?$pair@$$CBV?$basic_string@DU?$char_traits@D@std@@V?$allocator@D@2@@std@@UCMD_FUNCDATA@StaticSingleton@@@2@@Z 0044eb40 f i StdFrame.obj
 0001:0004db40       ?_Left@?$_Tree@V?$_Tmap_traits@KUSFBData@@U?$less@K@std@@V?$allocator@U?$pair@$$CBKUSFBData@@@std@@@3@$0A@@std@@@std@@KAAAPAU_Node@?$_Tree_nod@V?$_Tmap_traits@KUSFBData@@U?$less@K@std@@V?$allocator@U?$pair@$$CBKUSFBData@@@std@@@3@$0A@@std@@@2@PAU342@@Z 0044eb40 f i GameObjects:Player.obj
 0001:0004db40       ?_Left@?$_Tree@V?$_Tmap_traits@V?$basic_string@DU?$char_traits@D@std@@V?$allocator@D@2@@std@@HU?$less@V?$basic_string@DU?$char_traits@D@std@@V?$allocator@D@2@@std@@@2@V?$allocator@U?$pair@$$CBV?$basic_string@DU?$char_traits@D@std@@V?$allocator@D@2@@std@@H@std@@@2@$0A@@std@@@std@@KAAAPAU_Node@?$_Tree_nod@V?$_Tmap_traits@V?$basic_string@DU?$char_traits@D@std@@V?$allocator@D@2@@std@@HU?$less@V?$basic_string@DU?$char_traits@D@std@@V?$allocator@D@2@@std@@@2@V?$allocator@U?$pair@$$CBV?$basic_string@DU?$char_traits@D@std@@V?$allocator@D@2@@std@@H@std@@@2@$0A@@std@@@2@PAU342@@Z 0044eb40 f i 区域服务器.obj
 0001:0004db40       ?nextof@?$simple_segregated_storage@I@boost@@KAAAPAXQAX@Z 0044eb40 f i GameObjects:ExtraScriptFunctions.obj
 0001:0004db40       ?_Left@?$_Tree@V?$_Tmap_traits@IV?$shared_ptr@VIObject@@@boost@@U?$less@I@std@@V?$allocator@U?$pair@$$CBIV?$shared_ptr@VIObject@@@boost@@@std@@@4@$0A@@std@@@std@@KAAAPAU_Node@?$_Tree_nod@V?$_Tmap_traits@IV?$shared_ptr@VIObject@@@boost@@U?$less@I@std@@V?$allocator@U?$pair@$$CBIV?$shared_ptr@VIObject@@@boost@@@std@@@4@$0A@@std@@@2@PAU342@@Z 0044eb40 f i GameObjects:Region.obj
 0001:0004db40       ?_Kfn@?$_Tmap_traits@PBDUSortNode@ProfileManager@jex@@U?$less@PBD@std@@V?$allocator@U?$pair@QBDUSortNode@ProfileManager@jex@@@std@@@5@$0A@@std@@SAABQBDABU?$pair@QBDUSortNode@ProfileManager@jex@@@2@@Z 0044eb40 f i TimeProber.obj
 0001:0004db40       ?_Kfn@?$_Tmap_traits@KUTeam@@U?$less@K@std@@V?$allocator@U?$pair@$$CBKUTeam@@@std@@@3@$0A@@std@@SAABKABU?$pair@$$CBKUTeam@@@2@@Z 0044eb40 f i GameObjects:Player.obj
 0001:0004db40       ?_Kfn@?$_Tmap_traits@PBDV?$deque@KV?$allocator@K@std@@@std@@U?$less@PBD@2@V?$allocator@U?$pair@QBDV?$deque@KV?$allocator@K@std@@@std@@@std@@@2@$0A@@std@@SAABQBDABU?$pair@QBDV?$deque@KV?$allocator@K@std@@@std@@@2@@Z 0044eb40 f i TimeProber.obj
 0001:0004db40       ?_Left@?$_Tree@V?$_Tmap_traits@GJU?$less@G@std@@V?$allocator@U?$pair@$$CBGJ@std@@@2@$0A@@std@@@std@@KAAAPAU_Node@?$_Tree_nod@V?$_Tmap_traits@GJU?$less@G@std@@V?$allocator@U?$pair@$$CBGJ@std@@@2@$0A@@std@@@2@PAU342@@Z 0044eb40 f i GameObjects:Item.obj
 0001:0004db40       ?_Left@?$_Tree@V?$_Tset_traits@KU?$less@K@std@@V?$allocator@K@2@$0A@@std@@@std@@KAAAPAU_Node@?$_Tree_nod@V?$_Tset_traits@KU?$less@K@std@@V?$allocator@K@2@$0A@@std@@@2@PAU342@@Z 0044eb40 f i GameObjects:ExtraScriptFunctions.obj
 0001:0004db40       ?_Kfn@?$_Tmap_traits@KUSTraceOBJ@CFuncTrace@@U?$less@K@std@@V?$allocator@U?$pair@$$CBKUSTraceOBJ@CFuncTrace@@@std@@@4@$0A@@std@@SAABKABU?$pair@$$CBKUSTraceOBJ@CFuncTrace@@@2@@Z 0044eb40 f i GameObjects:xyLog.obj
 0001:0004db40       ?_Nextnode@?$list@V?$shared_ptr@VIObject@@@boost@@V?$allocator@V?$shared_ptr@VIObject@@@boost@@@std@@@std@@KAAAPAU_Node@?$_List_nod@V?$shared_ptr@VIObject@@@boost@@V?$allocator@V?$shared_ptr@VIObject@@@boost@@@std@@@2@PAU342@@Z 0044eb40 f i GameObjects:ExtraScriptFunctions.obj
 0001:0004db40       ?_Nextnode@?$list@PAVCFightListener@@V?$allocator@PAVCFightListener@@@std@@@std@@KAAAPAU_Node@?$_List_nod@PAVCFightListener@@V?$allocator@PAVCFightListener@@@std@@@2@PAU342@@Z 0044eb40 f i GameObjects:FightObject.obj
 0001:0004db40       ?_Kfn@?$_Tmap_traits@V?$basic_string@DU?$char_traits@D@std@@V?$allocator@D@2@@std@@USTaskExBuffer@@U?$less@V?$basic_string@DU?$char_traits@D@std@@V?$allocator@D@2@@std@@@2@V?$allocator@U?$pair@$$CBV?$basic_string@DU?$char_traits@D@std@@V?$allocator@D@2@@std@@USTaskExBuffer@@@std@@@2@$0A@@std@@SAABV?$basic_string@DU?$char_traits@D@std@@V?$allocator@D@2@@2@ABU?$pair@$$CBV?$basic_string@DU?$char_traits@D@std@@V?$allocator@D@2@@std@@USTaskExBuffer@@@2@@Z 0044eb40 f i GameObjects:ExtraScriptFunctions.obj
 0001:0004db40       ?_Left@?$_Tree@V?$_Tmap_traits@V?$basic_string@DU?$char_traits@D@std@@V?$allocator@D@2@@std@@USTraceFile@@U?$less@V?$basic_string@DU?$char_traits@D@std@@V?$allocator@D@2@@std@@@2@V?$allocator@U?$pair@$$CBV?$basic_string@DU?$char_traits@D@std@@V?$allocator@D@2@@std@@USTraceFile@@@std@@@2@$0A@@std@@@std@@KAAAPAU_Node@?$_Tree_nod@V?$_Tmap_traits@V?$basic_string@DU?$char_traits@D@std@@V?$allocator@D@2@@std@@USTraceFile@@U?$less@V?$basic_string@DU?$char_traits@D@std@@V?$allocator@D@2@@std@@@2@V?$allocator@U?$pair@$$CBV?$basic_string@DU?$char_traits@D@std@@V?$allocator@D@2@@std@@USTraceFile@@@std@@@2@$0A@@std@@@2@PAU342@@Z 0044eb40 f i traceinfo.obj
 0001:0004db40       ??$unwrap@V?$mf5@_NVCDAppMain@@_KW4LINKSTATUS@@PAXIPAX@_mfi@boost@@@_bi@boost@@YAAAV?$mf5@_NVCDAppMain@@_KW4LINKSTATUS@@PAXIPAX@_mfi@1@PAV231@J@Z 0044eb40 f i DMainApp.obj
 0001:0004db40       ?_Kfn@?$_Tmap_traits@V?$basic_string@DU?$char_traits@D@std@@V?$allocator@D@2@@std@@USTraceFile@@U?$less@V?$basic_string@DU?$char_traits@D@std@@V?$allocator@D@2@@std@@@2@V?$allocator@U?$pair@$$CBV?$basic_string@DU?$char_traits@D@std@@V?$allocator@D@2@@std@@USTraceFile@@@std@@@2@$0A@@std@@SAABV?$basic_string@DU?$char_traits@D@std@@V?$allocator@D@2@@2@ABU?$pair@$$CBV?$basic_string@DU?$char_traits@D@std@@V?$allocator@D@2@@std@@USTraceFile@@@2@@Z 0044eb40 f i traceinfo.obj
 0001:0004db40       ?_Left@?$_Tree@V?$_Tmap_traits@K_KU?$less@K@std@@V?$allocator@U?$pair@$$CBK_K@std@@@2@$0A@@std@@@std@@KAAAPAU_Node@?$_Tree_nod@V?$_Tmap_traits@K_KU?$less@K@std@@V?$allocator@U?$pair@$$CBK_K@std@@@2@$0A@@std@@@2@PAU342@@Z 0044eb40 f i GameObjects:ScriptManager.obj
 0001:0004db40       ?_Kfn@?$_Tmap_traits@GHU?$less@G@std@@V?$allocator@U?$pair@$$CBGH@std@@@2@$0A@@std@@SAABGABU?$pair@$$CBGH@2@@Z 0044eb40 f i GameObjects:Region.obj
 0001:0004db40       ?_Nextnode@?$list@USRelatesBase@typedef_v6@@V?$allocator@USRelatesBase@typedef_v6@@@std@@@std@@KAAAPAU_Node@?$_List_nod@USRelatesBase@typedef_v6@@V?$allocator@USRelatesBase@typedef_v6@@@std@@@2@PAU342@@Z 0044eb40 f i GameObjects:Player.obj
 0001:0004db40       ?_Left@?$_Tree@V?$_Tmap_traits@KUSTraceOBJ@CFuncTrace@@U?$less@K@std@@V?$allocator@U?$pair@$$CBKUSTraceOBJ@CFuncTrace@@@std@@@4@$0A@@std@@@std@@KAAAPAU_Node@?$_Tree_nod@V?$_Tmap_traits@KUSTraceOBJ@CFuncTrace@@U?$less@K@std@@V?$allocator@U?$pair@$$CBKUSTraceOBJ@CFuncTrace@@@std@@@4@$0A@@std@@@2@PAU342@@Z 0044eb40 f i GameObjects:Player.obj
 0001:0004db40       ?_Left@?$_Tree@V?$_Tmap_traits@V?$basic_string@DU?$char_traits@D@std@@V?$allocator@D@2@@std@@UNode@ProfileManager@jex@@U?$less@V?$basic_string@DU?$char_traits@D@std@@V?$allocator@D@2@@std@@@2@V?$allocator@U?$pair@$$CBV?$basic_string@DU?$char_traits@D@std@@V?$allocator@D@2@@std@@UNode@ProfileManager@jex@@@std@@@2@$0A@@std@@@std@@KAAAPAU_Node@?$_Tree_nod@V?$_Tmap_traits@V?$basic_string@DU?$char_traits@D@std@@V?$allocator@D@2@@std@@UNode@ProfileManager@jex@@U?$less@V?$basic_string@DU?$char_traits@D@std@@V?$allocator@D@2@@std@@@2@V?$allocator@U?$pair@$$CBV?$basic_string@DU?$char_traits@D@std@@V?$allocator@D@2@@std@@UNode@ProfileManager@jex@@@std@@@2@$0A@@std@@@2@PAU342@@Z 0044eb40 f i TimeProber.obj
 0001:0004db40       ?_Nextnode@?$list@USPackageItem@typedef_v6@@V?$allocator@USPackageItem@typedef_v6@@@std@@@std@@KAAAPAU_Node@?$_List_nod@USPackageItem@typedef_v6@@V?$allocator@USPackageItem@typedef_v6@@@std@@@2@PAU342@@Z 0044eb40 f i GameObjects:ItemUser.obj
 0001:0004db40       ?_Kfn@?$_Tmap_traits@KUSFactionData@@U?$less@K@std@@V?$allocator@U?$pair@$$CBKUSFactionData@@@std@@@3@$0A@@std@@SAABKABU?$pair@$$CBKUSFactionData@@@2@@Z 0044eb40 f i GameObjects:FactionManager.obj
 0001:0004db40       ?_Left@?$_Tree@V?$_Tmap_traits@HVCTrigger@@U?$less@H@std@@V?$allocator@U?$pair@$$CBHVCTrigger@@@std@@@3@$0A@@std@@@std@@KAAAPAU_Node@?$_Tree_nod@V?$_Tmap_traits@HVCTrigger@@U?$less@H@std@@V?$allocator@U?$pair@$$CBHVCTrigger@@@std@@@3@$0A@@std@@@2@PAU342@@Z 0044eb40 f i GameObjects:Region.obj
 0001:0004db40       ?_Kfn@?$_Tmap_traits@V?$basic_string@DU?$char_traits@D@std@@V?$allocator@D@2@@std@@UNode@ProfileManager@jex@@U?$less@V?$basic_string@DU?$char_traits@D@std@@V?$allocator@D@2@@std@@@2@V?$allocator@U?$pair@$$CBV?$basic_string@DU?$char_traits@D@std@@V?$allocator@D@2@@std@@UNode@ProfileManager@jex@@@std@@@2@$0A@@std@@SAABV?$basic_string@DU?$char_traits@D@std@@V?$allocator@D@2@@2@ABU?$pair@$$CBV?$basic_string@DU?$char_traits@D@std@@V?$allocator@D@2@@std@@UNode@ProfileManager@jex@@@2@@Z 0044eb40 f i TimeProber.obj
 0001:0004db40       ?_Left@?$_Tree@V?$_Tmap_traits@GGU?$less@G@std@@V?$allocator@U?$pair@$$CBGG@std@@@2@$0A@@std@@@std@@KAAAPAU_Node@?$_Tree_nod@V?$_Tmap_traits@GGU?$less@G@std@@V?$allocator@U?$pair@$$CBGG@std@@@2@$0A@@std@@@2@PAU342@@Z 0044eb40 f i GameObjects:ExtraScriptFunctionsEx.obj
 0001:0004db40       ?_Left@?$_Tree@V?$_Tmap_traits@KKU?$less@K@std@@V?$allocator@U?$pair@$$CBKK@std@@@2@$0A@@std@@@std@@KAAAPAU_Node@?$_Tree_nod@V?$_Tmap_traits@KKU?$less@K@std@@V?$allocator@U?$pair@$$CBKK@std@@@2@$0A@@std@@@2@PAU342@@Z 0044eb40 f i GameObjects:GameWorld.obj
 0001:0004db40       ?_Left@?$_Tree@V?$_Tmap_traits@HV?$vector@USItemOddsTabledata@@V?$allocator@USItemOddsTabledata@@@std@@@std@@U?$less@H@2@V?$allocator@U?$pair@$$CBHV?$vector@USItemOddsTabledata@@V?$allocator@USItemOddsTabledata@@@std@@@std@@@std@@@2@$0A@@std@@@std@@KAAAPAU_Node@?$_Tree_nod@V?$_Tmap_traits@HV?$vector@USItemOddsTabledata@@V?$allocator@USItemOddsTabledata@@@std@@@std@@U?$less@H@2@V?$allocator@U?$pair@$$CBHV?$vector@USItemOddsTabledata@@V?$allocator@USItemOddsTabledata@@@std@@@std@@@std@@@2@$0A@@std@@@2@PAU342@@Z 0044eb40 f i GameObjects:ScriptManager.obj
 0001:0004db40       ?_Left@?$_Tree@V?$_Tmap_traits@HV?$shared_ptr@V?$pool@Udefault_user_allocator_new_delete@boost@@@boost@@@boost@@U?$less@H@std@@V?$allocator@U?$pair@$$CBHV?$shared_ptr@V?$pool@Udefault_user_allocator_new_delete@boost@@@boost@@@boost@@@std@@@4@$0A@@std@@@std@@KAAAPAU_Node@?$_Tree_nod@V?$_Tmap_traits@HV?$shared_ptr@V?$pool@Udefault_user_allocator_new_delete@boost@@@boost@@@boost@@U?$less@H@std@@V?$allocator@U?$pair@$$CBHV?$shared_ptr@V?$pool@Udefault_user_allocator_new_delete@boost@@@boost@@@boost@@@std@@@4@$0A@@std@@@2@PAU342@@Z 0044eb40 f i GameObjects:Region.obj
 0001:0004db40       ?_Left@?$_Tree@V?$_Tmap_traits@PBDV?$deque@KV?$allocator@K@std@@@std@@U?$less@PBD@2@V?$allocator@U?$pair@QBDV?$deque@KV?$allocator@K@std@@@std@@@std@@@2@$0A@@std@@@std@@KAAAPAU_Node@?$_Tree_nod@V?$_Tmap_traits@PBDV?$deque@KV?$allocator@K@std@@@std@@U?$less@PBD@2@V?$allocator@U?$pair@QBDV?$deque@KV?$allocator@K@std@@@std@@@std@@@2@$0A@@std@@@2@PAU342@@Z 0044eb40 f i TimeProber.obj
 0001:0004db40       ?_Left@?$_Tree@V?$_Tmap_traits@V?$basic_string@DU?$char_traits@D@std@@V?$allocator@D@2@@std@@USTaskExBuffer@@U?$less@V?$basic_string@DU?$char_traits@D@std@@V?$allocator@D@2@@std@@@2@V?$allocator@U?$pair@$$CBV?$basic_string@DU?$char_traits@D@std@@V?$allocator@D@2@@std@@USTaskExBuffer@@@std@@@2@$0A@@std@@@std@@KAAAPAU_Node@?$_Tree_nod@V?$_Tmap_traits@V?$basic_string@DU?$char_traits@D@std@@V?$allocator@D@2@@std@@USTaskExBuffer@@U?$less@V?$basic_string@DU?$char_traits@D@std@@V?$allocator@D@2@@std@@@2@V?$allocator@U?$pair@$$CBV?$basic_string@DU?$char_traits@D@std@@V?$allocator@D@2@@std@@USTaskExBuffer@@@std@@@2@$0A@@std@@@2@PAU342@@Z 0044eb40 f i GameObjects:ScriptManager.obj
 0001:0004db40       ?_Nextnode@?$list@V?$shared_ptr@UCooler@@@boost@@V?$allocator@V?$shared_ptr@UCooler@@@boost@@@std@@@std@@KAAAPAU_Node@?$_List_nod@V?$shared_ptr@UCooler@@@boost@@V?$allocator@V?$shared_ptr@UCooler@@@boost@@@std@@@2@PAU342@@Z 0044eb40 f i GameObjects:FightObject.obj
 0001:0004db40       ?_Kfn@?$_Tmap_traits@V?$stringkey@$$BY0BF@D@dwt@@KU?$less@V?$stringkey@$$BY0BF@D@dwt@@@std@@V?$allocator@U?$pair@$$CBV?$stringkey@$$BY0BF@D@dwt@@K@std@@@4@$0A@@std@@SAABV?$stringkey@$$BY0BF@D@dwt@@ABU?$pair@$$CBV?$stringkey@$$BY0BF@D@dwt@@K@2@@Z 0044eb40 f i GameObjects:PlayerManager.obj
 0001:0004db40       ?_Left@?$_Tree@V?$_Tmap_traits@KUSFactionData@@U?$less@K@std@@V?$allocator@U?$pair@$$CBKUSFactionData@@@std@@@3@$0A@@std@@@std@@KAAAPAU_Node@?$_Tree_nod@V?$_Tmap_traits@KUSFactionData@@U?$less@K@std@@V?$allocator@U?$pair@$$CBKUSFactionData@@@std@@@3@$0A@@std@@@2@PAU342@@Z 0044eb40 f i GameObjects:FactionManager.obj
 0001:0004db40       ?_Kfn@?$_Tmap_traits@_KVCLinkDataAdvEx@@U?$less@_K@std@@V?$allocator@U?$pair@$$CB_KVCLinkDataAdvEx@@@std@@@3@$0A@@std@@SAAB_KABU?$pair@$$CB_KVCLinkDataAdvEx@@@2@@Z 0044eb40 f i NetProviderModuleEx:NetProviderModuleAdvEx.obj
 0001:0004db40       ?_Kfn@?$_Tmap_traits@HV?$vector@USItemOddsTabledata@@V?$allocator@USItemOddsTabledata@@@std@@@std@@U?$less@H@2@V?$allocator@U?$pair@$$CBHV?$vector@USItemOddsTabledata@@V?$allocator@USItemOddsTabledata@@@std@@@std@@@std@@@2@$0A@@std@@SAABHABU?$pair@$$CBHV?$vector@USItemOddsTabledata@@V?$allocator@USItemOddsTabledata@@@std@@@std@@@2@@Z 0044eb40 f i GameObjects:DynDropTable.obj
 0001:0004db40       ?_Kfn@?$_Tmap_traits@HVCTrigger@@U?$less@H@std@@V?$allocator@U?$pair@$$CBHVCTrigger@@@std@@@3@$0A@@std@@SAABHABU?$pair@$$CBHVCTrigger@@@2@@Z 0044eb40 f i GameObjects:Region.obj
 0001:0004db40       ?_Left@?$_Tree@V?$_Tmap_traits@PBDUSortNode@ProfileManager@jex@@U?$less@PBD@std@@V?$allocator@U?$pair@QBDUSortNode@ProfileManager@jex@@@std@@@5@$0A@@std@@@std@@KAAAPAU_Node@?$_Tree_nod@V?$_Tmap_traits@PBDUSortNode@ProfileManager@jex@@U?$less@PBD@std@@V?$allocator@U?$pair@QBDUSortNode@ProfileManager@jex@@@std@@@5@$0A@@std@@@2@PAU342@@Z 0044eb40 f i TimeProber.obj
 0001:0004db40       ?_Kfn@?$_Tmap_traits@GJU?$less@G@std@@V?$allocator@U?$pair@$$CBGJ@std@@@2@$0A@@std@@SAABGABU?$pair@$$CBGJ@2@@Z 0044eb40 f i GameObjects:Item.obj
 0001:0004db40       ?_Kfn@?$_Tmap_traits@K_KU?$less@K@std@@V?$allocator@U?$pair@$$CBK_K@std@@@2@$0A@@std@@SAABKABU?$pair@$$CBK_K@2@@Z 0044eb40 f i GameObjects:ScriptManager.obj
 0001:0004db40       ?_Kfn@?$_Tset_traits@KU?$less@K@std@@V?$allocator@K@2@$0A@@std@@SAABKABK@Z 0044eb40 f i GameObjects:ExtraScriptFunctions.obj
 0001:0004db40       ?_Left@?$_Tree@V?$_Tmap_traits@V?$basic_string@DU?$char_traits@D@std@@V?$allocator@D@2@@std@@PAUCooler@@U?$less@V?$basic_string@DU?$char_traits@D@std@@V?$allocator@D@2@@std@@@2@V?$allocator@U?$pair@$$CBV?$basic_string@DU?$char_traits@D@std@@V?$allocator@D@2@@std@@PAUCooler@@@std@@@2@$0A@@std@@@std@@KAAAPAU_Node@?$_Tree_nod@V?$_Tmap_traits@V?$basic_string@DU?$char_traits@D@std@@V?$allocator@D@2@@std@@PAUCooler@@U?$less@V?$basic_string@DU?$char_traits@D@std@@V?$allocator@D@2@@std@@@2@V?$allocator@U?$pair@$$CBV?$basic_string@DU?$char_traits@D@std@@V?$allocator@D@2@@std@@PAUCooler@@@std@@@2@$0A@@std@@@2@PAU342@@Z 0044eb40 f i GameObjects:FightObject.obj
 0001:0004db40       ?_Left@?$_Tree@V?$_Tmap_traits@GKU?$less@G@std@@V?$allocator@U?$pair@$$CBGK@std@@@2@$0A@@std@@@std@@KAAAPAU_Node@?$_Tree_nod@V?$_Tmap_traits@GKU?$less@G@std@@V?$allocator@U?$pair@$$CBGK@std@@@2@$0A@@std@@@2@PAU342@@Z 0044eb40 f i GameObjects:MonsterDrop.obj
 0001:0004db40       ?_Kfn@?$_Tmap_traits@KGU?$less@K@std@@V?$allocator@U?$pair@$$CBKG@std@@@2@$0A@@std@@SAABKABU?$pair@$$CBKG@2@@Z 0044eb40 f i GameObjects:MonsterDrop.obj
 0001:0004db40       ?_Kfn@?$_Tmap_traits@KUSFBData@@U?$less@K@std@@V?$allocator@U?$pair@$$CBKUSFBData@@@std@@@3@$0A@@std@@SAABKABU?$pair@$$CBKUSFBData@@@2@@Z 0044eb40 f i GameObjects:Player.obj
 0001:0004db40       ?_Left@?$_Tree@V?$_Tmap_traits@_KVCLinkData@@U?$less@_K@std@@V?$allocator@U?$pair@$$CB_KVCLinkData@@@std@@@3@$0A@@std@@@std@@KAAAPAU_Node@?$_Tree_nod@V?$_Tmap_traits@_KVCLinkData@@U?$less@_K@std@@V?$allocator@U?$pair@$$CB_KVCLinkData@@@std@@@3@$0A@@std@@@2@PAU342@@Z 0044eb40 f i NetProviderModuleEx:NetProviderModule.obj
 0001:0004db40       ?_Left@?$_Tree@V?$_Tmap_traits@KGU?$less@K@std@@V?$allocator@U?$pair@$$CBKG@std@@@2@$0A@@std@@@std@@KAAAPAU_Node@?$_Tree_nod@V?$_Tmap_traits@KGU?$less@K@std@@V?$allocator@U?$pair@$$CBKG@std@@@2@$0A@@std@@@2@PAU342@@Z 0044eb40 f i GameObjects:ExtraScriptFunctionsEx.obj
 0001:0004db40       ?_Kfn@?$_Tmap_traits@V?$basic_string@DU?$char_traits@D@std@@V?$allocator@D@2@@std@@HU?$less@V?$basic_string@DU?$char_traits@D@std@@V?$allocator@D@2@@std@@@2@V?$allocator@U?$pair@$$CBV?$basic_string@DU?$char_traits@D@std@@V?$allocator@D@2@@std@@H@std@@@2@$0A@@std@@SAABV?$basic_string@DU?$char_traits@D@std@@V?$allocator@D@2@@2@ABU?$pair@$$CBV?$basic_string@DU?$char_traits@D@std@@V?$allocator@D@2@@std@@H@2@@Z 0044eb40 f i 区域服务器.obj
 0001:0004db40       ?_Kfn@?$_Tmap_traits@V?$basic_string@DU?$char_traits@D@std@@V?$allocator@D@2@@std@@PAVBuffBase@@U?$less@V?$basic_string@DU?$char_traits@D@std@@V?$allocator@D@2@@std@@@2@V?$allocator@U?$pair@$$CBV?$basic_string@DU?$char_traits@D@std@@V?$allocator@D@2@@std@@PAVBuffBase@@@std@@@2@$0A@@std@@SAABV?$basic_string@DU?$char_traits@D@std@@V?$allocator@D@2@@2@ABU?$pair@$$CBV?$basic_string@DU?$char_traits@D@std@@V?$allocator@D@2@@std@@PAVBuffBase@@@2@@Z 0044eb40 f i GameObjects:BuffEntityManager.obj
 0001:0004db40       ?_Nextnode@?$list@USLuaEvent@@V?$allocator@USLuaEvent@@@std@@@std@@KAAAPAU_Node@?$_List_nod@USLuaEvent@@V?$allocator@USLuaEvent@@@std@@@2@PAU342@@Z 0044eb40 f i GameObjects:ScriptManager.obj
 0001:0004db40       ??$unwrap@V?$mf2@_NVCNetLoginServerModule@@PAXI@_mfi@boost@@@_bi@boost@@YAAAV?$mf2@_NVCNetLoginServerModule@@PAXI@_mfi@1@PAV231@J@Z 0044eb40 f i NetLoginServerModule.obj
 0001:0004db40       ?_Kfn@?$_Tmap_traits@KKU?$less@K@std@@V?$allocator@U?$pair@$$CBKK@std@@@2@$0A@@std@@SAABKABU?$pair@$$CBKK@2@@Z 0044eb40 f i GameObjects:Player.obj
 0001:0004db40       ?_Kfn@?$_Tmap_traits@_KVCLinkData@@U?$less@_K@std@@V?$allocator@U?$pair@$$CB_KVCLinkData@@@std@@@3@$0A@@std@@SAAB_KABU?$pair@$$CB_KVCLinkData@@@2@@Z 0044eb40 f i NetProviderModuleEx:NetProviderModule.obj
 0001:0004db40       ?_Left@?$_Tree@V?$_Tmap_traits@KUTeam@@U?$less@K@std@@V?$allocator@U?$pair@$$CBKUTeam@@@std@@@3@$0A@@std@@@std@@KAAAPAU_Node@?$_Tree_nod@V?$_Tmap_traits@KUTeam@@U?$less@K@std@@V?$allocator@U?$pair@$$CBKUTeam@@@std@@@3@$0A@@std@@@2@PAU342@@Z 0044eb40 f i GameObjects:Player.obj
 0001:0004db40       ?_Left@?$_Tree@V?$_Tmap_traits@V?$basic_string@DU?$char_traits@D@std@@V?$allocator@D@2@@std@@PAVBuffBase@@U?$less@V?$basic_string@DU?$char_traits@D@std@@V?$allocator@D@2@@std@@@2@V?$allocator@U?$pair@$$CBV?$basic_string@DU?$char_traits@D@std@@V?$allocator@D@2@@std@@PAVBuffBase@@@std@@@2@$0A@@std@@@std@@KAAAPAU_Node@?$_Tree_nod@V?$_Tmap_traits@V?$basic_string@DU?$char_traits@D@std@@V?$allocator@D@2@@std@@PAVBuffBase@@U?$less@V?$basic_string@DU?$char_traits@D@std@@V?$allocator@D@2@@std@@@2@V?$allocator@U?$pair@$$CBV?$basic_string@DU?$char_traits@D@std@@V?$allocator@D@2@@std@@PAVBuffBase@@@std@@@2@$0A@@std@@@2@PAU342@@Z 0044eb40 f i GameObjects:Player.obj
 0001:0004db40       ?_Nextnode@?$list@PAVCDynamicRegion@@V?$allocator@PAVCDynamicRegion@@@std@@@std@@KAAAPAU_Node@?$_List_nod@PAVCDynamicRegion@@V?$allocator@PAVCDynamicRegion@@@std@@@2@PAU342@@Z 0044eb40 f i GameObjects:GameWorld.obj
 0001:0004db40       ?_Kfn@?$_Tmap_traits@KUSHitData@CMonster@@U?$less@K@std@@V?$allocator@U?$pair@$$CBKUSHitData@CMonster@@@std@@@4@$0A@@std@@SAABKABU?$pair@$$CBKUSHitData@CMonster@@@2@@Z 0044eb40 f i GameObjects:Player.obj
 0001:0004db40       ?_Kfn@?$_Tmap_traits@GGU?$less@G@std@@V?$allocator@U?$pair@$$CBGG@std@@@2@$0A@@std@@SAABGABU?$pair@$$CBGG@2@@Z 0044eb40 f i GameObjects:MonsterDrop.obj
 0001:0004db40       ?_Kfn@?$_Tmap_traits@KUIRcd@@U?$less@K@std@@V?$allocator@U?$pair@$$CBKUIRcd@@@std@@@3@$0A@@std@@SAABKABU?$pair@$$CBKUIRcd@@@2@@Z 0044eb40 f i GameObjects:ItemData.obj
 0001:0004db40       ?_Left@?$_Tree@V?$_Tset_traits@GU?$less@G@std@@V?$allocator@G@2@$0A@@std@@@std@@KAAAPAU_Node@?$_Tree_nod@V?$_Tset_traits@GU?$less@G@std@@V?$allocator@G@2@$0A@@std@@@2@PAU342@@Z 0044eb40 f i GameObjects:ExtraScriptFunctions.obj
 0001:0004db40       ?_Left@?$_Tree@V?$_Tmap_traits@_KVCLinkDataAdvEx@@U?$less@_K@std@@V?$allocator@U?$pair@$$CB_KVCLinkDataAdvEx@@@std@@@3@$0A@@std@@@std@@KAAAPAU_Node@?$_Tree_nod@V?$_Tmap_traits@_KVCLinkDataAdvEx@@U?$less@_K@std@@V?$allocator@U?$pair@$$CB_KVCLinkDataAdvEx@@@std@@@3@$0A@@std@@@2@PAU342@@Z 0044eb40 f i NetProviderModuleEx:NetProviderModuleAdvEx.obj
 0001:0004db40       ?_Kfn@?$_Tmap_traits@GV?$map@KGU?$less@K@std@@V?$allocator@U?$pair@$$CBKG@std@@@2@@std@@U?$less@G@2@V?$allocator@U?$pair@$$CBGV?$map@KGU?$less@K@std@@V?$allocator@U?$pair@$$CBKG@std@@@2@@std@@@std@@@2@$0A@@std@@SAABGABU?$pair@$$CBGV?$map@KGU?$less@K@std@@V?$allocator@U?$pair@$$CBKG@std@@@2@@std@@@2@@Z 0044eb40 f i GameObjects:MonsterDrop.obj
 0001:0004db50       ?_Buynode@?$list@V?$shared_ptr@VIObject@@@boost@@V?$allocator@V?$shared_ptr@VIObject@@@boost@@@std@@@std@@IAEPAU_Node@?$_List_nod@V?$shared_ptr@VIObject@@@boost@@V?$allocator@V?$shared_ptr@VIObject@@@boost@@@std@@@2@XZ 0044eb50 f i GameObjects:ExtraScriptFunctions.obj
 0001:0004dc30       ?_Tidy@?$list@V?$shared_ptr@VIObject@@@boost@@V?$allocator@V?$shared_ptr@VIObject@@@boost@@@std@@@std@@IAEXXZ 0044ec30 f i GameObjects:ExtraScriptFunctions.obj
 0001:0004dca0       ?insert@?$_Tree@V?$_Tmap_traits@V?$basic_string@DU?$char_traits@D@std@@V?$allocator@D@2@@std@@USTaskExBuffer@@U?$less@V?$basic_string@DU?$char_traits@D@std@@V?$allocator@D@2@@std@@@2@V?$allocator@U?$pair@$$CBV?$basic_string@DU?$char_traits@D@std@@V?$allocator@D@2@@std@@USTaskExBuffer@@@std@@@2@$0A@@std@@@std@@QAE?AViterator@12@V312@ABU?$pair@$$CBV?$basic_string@DU?$char_traits@D@std@@V?$allocator@D@2@@std@@USTaskExBuffer@@@2@@Z 0044eca0 f i GameObjects:ExtraScriptFunctions.obj
 0001:0004e270       ?lower_bound@?$_Tree@V?$_Tmap_traits@V?$basic_string@DU?$char_traits@D@std@@V?$allocator@D@2@@std@@USTaskExBuffer@@U?$less@V?$basic_string@DU?$char_traits@D@std@@V?$allocator@D@2@@std@@@2@V?$allocator@U?$pair@$$CBV?$basic_string@DU?$char_traits@D@std@@V?$allocator@D@2@@std@@USTaskExBuffer@@@std@@@2@$0A@@std@@@std@@QAE?AViterator@12@ABV?$basic_string@DU?$char_traits@D@std@@V?$allocator@D@2@@2@@Z 0044f270 f i GameObjects:ExtraScriptFunctions.obj
 0001:0004e2a0       ?_Isnil@?$_Tree@V?$_Tset_traits@GU?$less@G@std@@V?$allocator@G@2@$0A@@std@@@std@@KAAADPAU_Node@?$_Tree_nod@V?$_Tset_traits@GU?$less@G@std@@V?$allocator@G@2@$0A@@std@@@2@@Z 0044f2a0 f i GameObjects:ExtraScriptFunctions.obj
 0001:0004e2b0       ?_Erase@?$_Tree@V?$_Tset_traits@GU?$less@G@std@@V?$allocator@G@2@$0A@@std@@@std@@IAEXPAU_Node@?$_Tree_nod@V?$_Tset_traits@GU?$less@G@std@@V?$allocator@G@2@$0A@@std@@@2@@Z 0044f2b0 f i GameObjects:ExtraScriptFunctions.obj
 0001:0004e330       ?_Insert@?$_Tree@V?$_Tset_traits@GU?$less@G@std@@V?$allocator@G@2@$0A@@std@@@std@@IAE?AViterator@12@_NPAU_Node@?$_Tree_nod@V?$_Tset_traits@GU?$less@G@std@@V?$allocator@G@2@$0A@@std@@@2@ABG@Z 0044f330 f i GameObjects:ExtraScriptFunctions.obj
 0001:0004e790       ??R?$less@G@std@@QBE_NABG0@Z 0044f790 f i GameObjects:ExtraScriptFunctions.obj
 0001:0004e7c0       ?_Isnil@?$_Tree@V?$_Tset_traits@KU?$less@K@std@@V?$allocator@K@2@$0A@@std@@@std@@KAAADPAU_Node@?$_Tree_nod@V?$_Tset_traits@KU?$less@K@std@@V?$allocator@K@2@$0A@@std@@@2@@Z 0044f7c0 f i GameObjects:ExtraScriptFunctions.obj
 0001:0004e7c0       ?_Isnil@?$_Tree@V?$_Tmap_traits@GGU?$less@G@std@@V?$allocator@U?$pair@$$CBGG@std@@@2@$0A@@std@@@std@@KAAADPAU_Node@?$_Tree_nod@V?$_Tmap_traits@GGU?$less@G@std@@V?$allocator@U?$pair@$$CBGG@std@@@2@$0A@@std@@@2@@Z 0044f7c0 f i GameObjects:ExtraScriptFunctionsEx.obj
 0001:0004e7d0       ?_Erase@?$_Tree@V?$_Tset_traits@KU?$less@K@std@@V?$allocator@K@2@$0A@@std@@@std@@IAEXPAU_Node@?$_Tree_nod@V?$_Tset_traits@KU?$less@K@std@@V?$allocator@K@2@$0A@@std@@@2@@Z 0044f7d0 f i GameObjects:ExtraScriptFunctions.obj
 0001:0004e850       ?_Insert@?$_Tree@V?$_Tset_traits@KU?$less@K@std@@V?$allocator@K@2@$0A@@std@@@std@@IAE?AViterator@12@_NPAU_Node@?$_Tree_nod@V?$_Tset_traits@KU?$less@K@std@@V?$allocator@K@2@$0A@@std@@@2@ABK@Z 0044f850 f i GameObjects:ExtraScriptFunctions.obj
 0001:0004ecb0       ?capacity@?$vector@GV?$allocator@G@std@@@std@@QBEIXZ 0044fcb0 f i GameObjects:ExtraScriptFunctions.obj
 0001:0004ecf0       ?size@?$vector@GV?$allocator@G@std@@@std@@QBEIXZ 0044fcf0 f i GameObjects:ExtraScriptFunctions.obj
 0001:0004ed30       ?insert@?$vector@GV?$allocator@G@std@@@std@@QAE?AViterator@12@V312@ABG@Z 0044fd30 f i GameObjects:ExtraScriptFunctions.obj
 0001:0004edb0       ?_Tidy@?$vector@GV?$allocator@G@std@@@std@@IAEXXZ 0044fdb0 f i GameObjects:ExtraScriptFunctions.obj
 0001:0004ee20       ?_Ufill@?$vector@GV?$allocator@G@std@@@std@@IAEPAGPAGIABG@Z 0044fe20 f i GameObjects:ExtraScriptFunctions.obj
 0001:0004ee50       ??Dconst_iterator@?$list@PAVCDynamicRegion@@V?$allocator@PAVCDynamicRegion@@@std@@@std@@QBEABQAVCDynamicRegion@@XZ 0044fe50 f i GameObjects:RegionManager.obj
 0001:0004ee50       ??Dconst_iterator@?$list@USPackageItem@typedef_v6@@V?$allocator@USPackageItem@typedef_v6@@@std@@@std@@QBEABUSPackageItem@typedef_v6@@XZ 0044fe50 f i GameObjects:ItemUser.obj
 0001:0004ee50       ??Dconst_iterator@?$list@USPlayerRelates@typedef_v6@@V?$allocator@USPlayerRelates@typedef_v6@@@std@@@std@@QBEABUSPlayerRelates@typedef_v6@@XZ 0044fe50 f i GameObjects:Relation.obj
 0001:0004ee50       ??Dconst_iterator@?$list@KV?$allocator@K@std@@@std@@QBEABKXZ 0044fe50 f i GameObjects:ExtraScriptFunctions.obj
 0001:0004ee50       ??Dconst_iterator@?$list@Vlua_variant@lite@@V?$allocator@Vlua_variant@lite@@@std@@@std@@QBEABVlua_variant@lite@@XZ 0044fe50 f i GameObjects:ScriptManager.obj
 0001:0004ee50       ??Dconst_iterator@?$list@USLuaEvent@@V?$allocator@USLuaEvent@@@std@@@std@@QBEABUSLuaEvent@@XZ 0044fe50 f i GameObjects:ScriptManager.obj
 0001:0004ee50       ??Dconst_iterator@?$list@V?$basic_string@DU?$char_traits@D@std@@V?$allocator@D@2@@std@@V?$allocator@V?$basic_string@DU?$char_traits@D@std@@V?$allocator@D@2@@std@@@2@@std@@QBEABV?$basic_string@DU?$char_traits@D@std@@V?$allocator@D@2@@2@XZ 0044fe50 f i StdFrame.obj
 0001:0004ee50       ??Dconst_iterator@?$list@U?$pair@V?$basic_string@DU?$char_traits@D@std@@V?$allocator@D@2@@std@@V?$SharedPtr@UEventBase@EventMgr@@@fge@@@std@@V?$fast_pool_allocator@U?$pair@V?$basic_string@DU?$char_traits@D@std@@V?$allocator@D@2@@std@@V?$SharedPtr@UEventBase@EventMgr@@@fge@@@std@@Udefault_user_allocator_new_delete@boost@@Vwin32_mutex@pool@details@4@$0CA@@boost@@@std@@QBEABU?$pair@V?$basic_string@DU?$char_traits@D@std@@V?$allocator@D@2@@std@@V?$SharedPtr@UEventBase@EventMgr@@@fge@@@2@XZ 0044fe50 f i GameObjects:EventManager.obj
 0001:0004ee50       ??Dconst_iterator@?$list@USRelatesBase@typedef_v6@@V?$allocator@USRelatesBase@typedef_v6@@@std@@@std@@QBEABUSRelatesBase@typedef_v6@@XZ 0044fe50 f i GameObjects:Relation.obj
 0001:0004ee50       ??Dconst_iterator@?$list@USMonsterData@@V?$allocator@USMonsterData@@@std@@@std@@QBEABUSMonsterData@@XZ 0044fe50 f i GameObjects:Monster.obj
 0001:0004ee50       ??Dconst_iterator@?$list@V?$shared_ptr@VIObject@@@boost@@V?$allocator@V?$shared_ptr@VIObject@@@boost@@@std@@@std@@QBEABV?$shared_ptr@VIObject@@@boost@@XZ 0044fe50 f i GameObjects:ExtraScriptFunctions.obj
 0001:0004ee50       ??Dconst_iterator@?$list@PAVCFightListener@@V?$allocator@PAVCFightListener@@@std@@@std@@QBEABQAVCFightListener@@XZ 0044fe50 f i GameObjects:FightObject.obj
 0001:0004ee50       ??Dconst_iterator@?$list@UtempAddItem@CPlayer@@V?$allocator@UtempAddItem@CPlayer@@@std@@@std@@QBEABUtempAddItem@CPlayer@@XZ 0044fe50 f i GameObjects:GameWorld.obj
 0001:0004ee70       ??0?$pair@$$CBV?$basic_string@DU?$char_traits@D@std@@V?$allocator@D@2@@std@@USTaskExBuffer@@@std@@QAE@ABV?$basic_string@DU?$char_traits@D@std@@V?$allocator@D@2@@1@ABUSTaskExBuffer@@@Z 0044fe70 f i GameObjects:ExtraScriptFunctions.obj
 0001:0004eec0       ??Fiterator@?$_Tree@V?$_Tset_traits@GU?$less@G@std@@V?$allocator@G@2@$0A@@std@@@std@@QAEAAV012@XZ 0044fec0 f i GameObjects:ExtraScriptFunctions.obj
 0001:0004eee0       ?malloc@?$object_pool@USMonsterData@@Udefault_user_allocator_new_delete@boost@@@boost@@QAEPAUSMonsterData@@XZ 0044fee0 f i GameObjects:ExtraScriptFunctions.obj
 0001:0004ef00       ?free@?$object_pool@USMonsterData@@Udefault_user_allocator_new_delete@boost@@@boost@@QAEXQAUSMonsterData@@@Z 0044ff00 f i GameObjects:ExtraScriptFunctions.obj
 0001:0004ef20       ?ordered_malloc@?$pool@Udefault_user_allocator_new_delete@boost@@@boost@@QAEPAXXZ 0044ff20 f i GameObjects:ExtraScriptFunctions.obj
 0001:0004ef60       ?ordered_free@?$pool@Udefault_user_allocator_new_delete@boost@@@boost@@QAEXQAX@Z 0044ff60 f i GameObjects:ExtraScriptFunctions.obj
 0001:0004ef80       ?clear@?$list@V?$shared_ptr@VIObject@@@boost@@V?$allocator@V?$shared_ptr@VIObject@@@boost@@@std@@@std@@QAEXXZ 0044ff80 f i GameObjects:ExtraScriptFunctions.obj
 0001:0004f020       ??0?$_List_ptr@USRelatesBase@typedef_v6@@V?$allocator@USRelatesBase@typedef_v6@@@std@@@std@@IAE@V?$allocator@USRelatesBase@typedef_v6@@@1@@Z 00450020 f i GameObjects:Player.obj
 0001:0004f020       ??0?$_Deque_val@PAUSNetServerPacket@@V?$allocator@PAUSNetServerPacket@@@std@@@std@@IAE@V?$allocator@PAUSNetServerPacket@@@1@@Z 00450020 f i NetProviderModuleEx:NetProviderModule.obj
 0001:0004f020       ??0?$_List_ptr@USLuaEvent@@V?$allocator@USLuaEvent@@@std@@@std@@IAE@V?$allocator@USLuaEvent@@@1@@Z 00450020 f i GameObjects:ScriptManager.obj
 0001:0004f020       ??0?$_Deque_val@PAUSMoiler@@V?$allocator@PAUSMoiler@@@std@@@std@@IAE@V?$allocator@PAUSMoiler@@@1@@Z 00450020 f i MoilWorker.obj
 0001:0004f020       ??0?$_List_ptr@USPackageItem@typedef_v6@@V?$allocator@USPackageItem@typedef_v6@@@std@@@std@@IAE@V?$allocator@USPackageItem@typedef_v6@@@1@@Z 00450020 f i GameObjects:ItemUser.obj
 0001:0004f020       ??0?$_List_ptr@USMonsterData@@V?$allocator@USMonsterData@@@std@@@std@@IAE@V?$allocator@USMonsterData@@@1@@Z 00450020 f i GameObjects:Monster.obj
 0001:0004f020       ??0?$_List_ptr@USPlayerRelates@typedef_v6@@V?$allocator@USPlayerRelates@typedef_v6@@@std@@@std@@IAE@V?$allocator@USPlayerRelates@typedef_v6@@@1@@Z 00450020 f i GameObjects:Player.obj
 0001:0004f020       ??0?$_List_ptr@KV?$allocator@K@std@@@std@@IAE@V?$allocator@K@1@@Z 00450020 f i GameObjects:FactionManager.obj
 0001:0004f020       ??0?$_List_ptr@UtempAddItem@CPlayer@@V?$allocator@UtempAddItem@CPlayer@@@std@@@std@@IAE@V?$allocator@UtempAddItem@CPlayer@@@1@@Z 00450020 f i GameObjects:Player.obj
 0001:0004f020       ??0?$_List_ptr@V?$basic_string@DU?$char_traits@D@std@@V?$allocator@D@2@@std@@V?$allocator@V?$basic_string@DU?$char_traits@D@std@@V?$allocator@D@2@@std@@@2@@std@@IAE@V?$allocator@V?$basic_string@DU?$char_traits@D@std@@V?$allocator@D@2@@std@@@1@@Z 00450020 f i 区域服务器.obj
 0001:0004f020       ??0?$_List_ptr@PAVCDynamicRegion@@V?$allocator@PAVCDynamicRegion@@@std@@@std@@IAE@V?$allocator@PAVCDynamicRegion@@@1@@Z 00450020 f i GameObjects:RegionManager.obj
 0001:0004f020       ??0?$_Deque_val@PAUSNetServerPacketAdvEx@@V?$allocator@PAUSNetServerPacketAdvEx@@@std@@@std@@IAE@V?$allocator@PAUSNetServerPacketAdvEx@@@1@@Z 00450020 f i NetProviderModuleEx:NetProviderModuleAdvEx.obj
 0001:0004f020       ??0?$_Deque_val@KV?$allocator@K@std@@@std@@IAE@V?$allocator@K@1@@Z 00450020 f i TimeProber.obj
 0001:0004f020       ??0?$_Deque_val@PAUSNetClientPacket@@V?$allocator@PAUSNetClientPacket@@@std@@@std@@IAE@V?$allocator@PAUSNetClientPacket@@@1@@Z 00450020 f i NetConsumerModule:NetConsummerModule.obj
 0001:0004f020       ??0?$_Deque_val@PAXV?$allocator@PAX@std@@@std@@IAE@V?$allocator@PAX@1@@Z 00450020 f i MoilWorker.obj
 0001:0004f020       ??0?$_List_ptr@V?$shared_ptr@VIObject@@@boost@@V?$allocator@V?$shared_ptr@VIObject@@@boost@@@std@@@std@@IAE@V?$allocator@V?$shared_ptr@VIObject@@@boost@@@1@@Z 00450020 f i GameObjects:ExtraScriptFunctions.obj
 0001:0004f020       ??0?$_List_ptr@PAVCFightListener@@V?$allocator@PAVCFightListener@@@std@@@std@@IAE@V?$allocator@PAVCFightListener@@@1@@Z 00450020 f i GameObjects:FightObject.obj
 0001:0004f020       ??0?$_Deque_val@U?$pair@U_SYSTEMTIME@@V?$map@PBDV?$deque@KV?$allocator@K@std@@@std@@U?$less@PBD@2@V?$allocator@U?$pair@QBDV?$deque@KV?$allocator@K@std@@@std@@@std@@@2@@std@@@std@@V?$allocator@U?$pair@U_SYSTEMTIME@@V?$map@PBDV?$deque@KV?$allocator@K@std@@@std@@U?$less@PBD@2@V?$allocator@U?$pair@QBDV?$deque@KV?$allocator@K@std@@@std@@@std@@@2@@std@@@std@@@2@@std@@IAE@V?$allocator@U?$pair@U_SYSTEMTIME@@V?$map@PBDV?$deque@KV?$allocator@K@std@@@std@@U?$less@PBD@2@V?$allocator@U?$pair@QBDV?$deque@KV?$allocator@K@std@@@std@@@std@@@2@@std@@@std@@@1@@Z 00450020 f i TimeProber.obj
 0001:0004f020       ??0?$_List_ptr@Vlua_variant@lite@@V?$allocator@Vlua_variant@lite@@@std@@@std@@IAE@V?$allocator@Vlua_variant@lite@@@1@@Z 00450020 f i GameObjects:ScriptManager.obj
 0001:0004f020       ??0?$_List_ptr@V?$shared_ptr@UCooler@@@boost@@V?$allocator@V?$shared_ptr@UCooler@@@boost@@@std@@@std@@IAE@V?$allocator@V?$shared_ptr@UCooler@@@boost@@@1@@Z 00450020 f i GameObjects:FightObject.obj
 0001:0004f060       ?insert@?$_Tree@V?$_Tmap_traits@V?$basic_string@DU?$char_traits@D@std@@V?$allocator@D@2@@std@@USTaskExBuffer@@U?$less@V?$basic_string@DU?$char_traits@D@std@@V?$allocator@D@2@@std@@@2@V?$allocator@U?$pair@$$CBV?$basic_string@DU?$char_traits@D@std@@V?$allocator@D@2@@std@@USTaskExBuffer@@@std@@@2@$0A@@std@@@std@@QAE?AU?$pair@Viterator@?$_Tree@V?$_Tmap_traits@V?$basic_string@DU?$char_traits@D@std@@V?$allocator@D@2@@std@@USTaskExBuffer@@U?$less@V?$basic_string@DU?$char_traits@D@std@@V?$allocator@D@2@@std@@@2@V?$allocator@U?$pair@$$CBV?$basic_string@DU?$char_traits@D@std@@V?$allocator@D@2@@std@@USTaskExBuffer@@@std@@@2@$0A@@std@@@std@@_N@2@ABU?$pair@$$CBV?$basic_string@DU?$char_traits@D@std@@V?$allocator@D@2@@std@@USTaskExBuffer@@@2@@Z 00450060 f i GameObjects:ExtraScriptFunctions.obj
 0001:0004f210       ?_Insert@?$_Tree@V?$_Tmap_traits@V?$basic_string@DU?$char_traits@D@std@@V?$allocator@D@2@@std@@USTaskExBuffer@@U?$less@V?$basic_string@DU?$char_traits@D@std@@V?$allocator@D@2@@std@@@2@V?$allocator@U?$pair@$$CBV?$basic_string@DU?$char_traits@D@std@@V?$allocator@D@2@@std@@USTaskExBuffer@@@std@@@2@$0A@@std@@@std@@IAE?AViterator@12@_NPAU_Node@?$_Tree_nod@V?$_Tmap_traits@V?$basic_string@DU?$char_traits@D@std@@V?$allocator@D@2@@std@@USTaskExBuffer@@U?$less@V?$basic_string@DU?$char_traits@D@std@@V?$allocator@D@2@@std@@@2@V?$allocator@U?$pair@$$CBV?$basic_string@DU?$char_traits@D@std@@V?$allocator@D@2@@std@@USTaskExBuffer@@@std@@@2@$0A@@std@@@2@ABU?$pair@$$CBV?$basic_string@DU?$char_traits@D@std@@V?$allocator@D@2@@std@@USTaskExBuffer@@@2@@Z 00450210 f i GameObjects:ExtraScriptFunctions.obj
 0001:0004f670       ?_Lbound@?$_Tree@V?$_Tmap_traits@V?$basic_string@DU?$char_traits@D@std@@V?$allocator@D@2@@std@@USTaskExBuffer@@U?$less@V?$basic_string@DU?$char_traits@D@std@@V?$allocator@D@2@@std@@@2@V?$allocator@U?$pair@$$CBV?$basic_string@DU?$char_traits@D@std@@V?$allocator@D@2@@std@@USTaskExBuffer@@@std@@@2@$0A@@std@@@std@@IBEPAU_Node@?$_Tree_nod@V?$_Tmap_traits@V?$basic_string@DU?$char_traits@D@std@@V?$allocator@D@2@@std@@USTaskExBuffer@@U?$less@V?$basic_string@DU?$char_traits@D@std@@V?$allocator@D@2@@std@@@2@V?$allocator@U?$pair@$$CBV?$basic_string@DU?$char_traits@D@std@@V?$allocator@D@2@@std@@USTaskExBuffer@@@std@@@2@$0A@@std@@@2@ABV?$basic_string@DU?$char_traits@D@std@@V?$allocator@D@2@@2@@Z 00450670 f i GameObjects:ExtraScriptFunctions.obj
 0001:0004f700       ?_Color@?$_Tree@V?$_Tset_traits@GU?$less@G@std@@V?$allocator@G@2@$0A@@std@@@std@@KAAADPAU_Node@?$_Tree_nod@V?$_Tset_traits@GU?$less@G@std@@V?$allocator@G@2@$0A@@std@@@2@@Z 00450700 f i GameObjects:ExtraScriptFunctions.obj
 0001:0004f710       ?max_size@?$_Tree@V?$_Tset_traits@GU?$less@G@std@@V?$allocator@G@2@$0A@@std@@@std@@QBEIXZ 00450710 f i GameObjects:ExtraScriptFunctions.obj
 0001:0004f730       ?_Lrotate@?$_Tree@V?$_Tset_traits@GU?$less@G@std@@V?$allocator@G@2@$0A@@std@@@std@@IAEXPAU_Node@?$_Tree_nod@V?$_Tset_traits@GU?$less@G@std@@V?$allocator@G@2@$0A@@std@@@2@@Z 00450730 f i GameObjects:ExtraScriptFunctions.obj
 0001:0004f860       ?_Rrotate@?$_Tree@V?$_Tset_traits@GU?$less@G@std@@V?$allocator@G@2@$0A@@std@@@std@@IAEXPAU_Node@?$_Tree_nod@V?$_Tset_traits@GU?$less@G@std@@V?$allocator@G@2@$0A@@std@@@2@@Z 00450860 f i GameObjects:ExtraScriptFunctions.obj
 0001:0004f990       ?_Buynode@?$_Tree@V?$_Tset_traits@GU?$less@G@std@@V?$allocator@G@2@$0A@@std@@@std@@IAEPAU_Node@?$_Tree_nod@V?$_Tset_traits@GU?$less@G@std@@V?$allocator@G@2@$0A@@std@@@2@PAU342@00ABGD@Z 00450990 f i GameObjects:ExtraScriptFunctions.obj
 0001:0004fa60       ?_Buynode@?$_Tree@V?$_Tset_traits@KU?$less@K@std@@V?$allocator@K@2@$0A@@std@@@std@@IAEPAU_Node@?$_Tree_nod@V?$_Tset_traits@KU?$less@K@std@@V?$allocator@K@2@$0A@@std@@@2@PAU342@00ABKD@Z 00450a60 f i GameObjects:ExtraScriptFunctions.obj
 0001:0004fb30       ?_Insert_n@?$vector@GV?$allocator@G@std@@@std@@IAEXViterator@12@IABG@Z 00450b30 f i GameObjects:ExtraScriptFunctions.obj
 0001:0004fe50       ??Fiterator@?$_Tree@V?$_Tmap_traits@V?$basic_string@DU?$char_traits@D@std@@V?$allocator@D@2@@std@@USTaskExBuffer@@U?$less@V?$basic_string@DU?$char_traits@D@std@@V?$allocator@D@2@@std@@@2@V?$allocator@U?$pair@$$CBV?$basic_string@DU?$char_traits@D@std@@V?$allocator@D@2@@std@@USTaskExBuffer@@@std@@@2@$0A@@std@@@std@@QAEAAV012@XZ 00450e50 f i GameObjects:ExtraScriptFunctions.obj
 0001:0004fe70       ??Fconst_iterator@?$_Tree@V?$_Tset_traits@GU?$less@G@std@@V?$allocator@G@2@$0A@@std@@@std@@QAEAAV012@XZ 00450e70 f i GameObjects:ExtraScriptFunctions.obj
 0001:0004fe90       ??Hiterator@?$vector@GV?$allocator@G@std@@@std@@QBE?AV012@H@Z 00450e90 f i GameObjects:ExtraScriptFunctions.obj
 0001:0004fec0       ??Giterator@?$vector@GV?$allocator@G@std@@@std@@QBEHABVconst_iterator@12@@Z 00450ec0 f i GameObjects:ExtraScriptFunctions.obj
 0001:0004fef0       ?malloc@?$simple_segregated_storage@I@boost@@QAEPAXXZ 00450ef0 f i GameObjects:ExtraScriptFunctions.obj
 0001:0004ff20       ?ordered_free@?$simple_segregated_storage@I@boost@@QAEXQAX@Z 00450f20 f i GameObjects:ExtraScriptFunctions.obj
 0001:0004ff90       ?_Buynode@?$_Tree@V?$_Tmap_traits@V?$basic_string@DU?$char_traits@D@std@@V?$allocator@D@2@@std@@USTaskExBuffer@@U?$less@V?$basic_string@DU?$char_traits@D@std@@V?$allocator@D@2@@std@@@2@V?$allocator@U?$pair@$$CBV?$basic_string@DU?$char_traits@D@std@@V?$allocator@D@2@@std@@USTaskExBuffer@@@std@@@2@$0A@@std@@@std@@IAEPAU_Node@?$_Tree_nod@V?$_Tmap_traits@V?$basic_string@DU?$char_traits@D@std@@V?$allocator@D@2@@std@@USTaskExBuffer@@U?$less@V?$basic_string@DU?$char_traits@D@std@@V?$allocator@D@2@@std@@@2@V?$allocator@U?$pair@$$CBV?$basic_string@DU?$char_traits@D@std@@V?$allocator@D@2@@std@@USTaskExBuffer@@@std@@@2@$0A@@std@@@2@PAU342@00ABU?$pair@$$CBV?$basic_string@DU?$char_traits@D@std@@V?$allocator@D@2@@std@@USTaskExBuffer@@@2@D@Z 00450f90 f i GameObjects:ExtraScriptFunctions.obj
 0001:00050060       ?allocate@?$allocator@U_tagXmlEntity@@@std@@QAEPAU_tagXmlEntity@@I@Z 00451060 f i GameObjects:BuffBaseData.obj
 0001:00050060       ?allocate@?$allocator@UGenItemBatchParam@CItemUser@@@std@@QAEPAUGenItemBatchParam@CItemUser@@I@Z 00451060 f i GameObjects:ScriptManager.obj
 0001:00050060       ?allocate@?$allocator@U_Node@?$_List_nod@V?$shared_ptr@UCooler@@@boost@@V?$allocator@V?$shared_ptr@UCooler@@@boost@@@std@@@std@@@std@@QAEPAU_Node@?$_List_nod@V?$shared_ptr@UCooler@@@boost@@V?$allocator@V?$shared_ptr@UCooler@@@boost@@@std@@@2@I@Z 00451060 f i GameObjects:FightObject.obj
 0001:00050060       ?allocate@?$allocator@VCScriptValue@@@std@@QAEPAVCScriptValue@@I@Z 00451060 f i GameObjects:DGameScript.obj
 0001:00050060       ?allocate@?$allocator@U_Node@?$_List_nod@V?$shared_ptr@VIObject@@@boost@@V?$allocator@V?$shared_ptr@VIObject@@@boost@@@std@@@std@@@std@@QAEPAU_Node@?$_List_nod@V?$shared_ptr@VIObject@@@boost@@V?$allocator@V?$shared_ptr@VIObject@@@boost@@@std@@@2@I@Z 00451060 f i GameObjects:ExtraScriptFunctions.obj
 0001:00050060       ?allocate@?$allocator@U_Node@?$_Tree_nod@V?$_Tset_traits@GU?$less@G@std@@V?$allocator@G@2@$0A@@std@@@std@@@std@@QAEPAU_Node@?$_Tree_nod@V?$_Tset_traits@GU?$less@G@std@@V?$allocator@G@2@$0A@@std@@@2@I@Z 00451060 f i GameObjects:ExtraScriptFunctions.obj
 0001:00050060       ?allocate@?$allocator@U_Node@?$_List_nod@Vlua_variant@lite@@V?$allocator@Vlua_variant@lite@@@std@@@std@@@std@@QAEPAU_Node@?$_List_nod@Vlua_variant@lite@@V?$allocator@Vlua_variant@lite@@@std@@@2@I@Z 00451060 f i GameObjects:ScriptManager.obj
 0001:00050080       ?allocate@?$allocator@U_Node@?$_Tree_nod@V?$_Tmap_traits@GGU?$less@G@std@@V?$allocator@U?$pair@$$CBGG@std@@@2@$0A@@std@@@std@@@std@@QAEPAU_Node@?$_Tree_nod@V?$_Tmap_traits@GGU?$less@G@std@@V?$allocator@U?$pair@$$CBGG@std@@@2@$0A@@std@@@2@I@Z 00451080 f i GameObjects:MonsterDrop.obj
 0001:00050080       ?allocate@?$allocator@U_Node@?$_Tree_nod@V?$_Tset_traits@KU?$less@K@std@@V?$allocator@K@2@$0A@@std@@@std@@@std@@QAEPAU_Node@?$_Tree_nod@V?$_Tset_traits@KU?$less@K@std@@V?$allocator@K@2@$0A@@std@@@2@I@Z 00451080 f i GameObjects:ExtraScriptFunctions.obj
 0001:00050080       ?allocate@?$allocator@USItemDropTableData@@@std@@QAEPAUSItemDropTableData@@I@Z 00451080 f i GameObjects:Monster.obj
 0001:000500a0       ?max_size@?$vector@GV?$allocator@G@std@@@std@@QBEIXZ 004510a0 f i GameObjects:ExtraScriptFunctions.obj
 0001:000500c0       ?_Xlen@?$vector@GV?$allocator@G@std@@@std@@IBEXXZ 004510c0 f i GameObjects:ExtraScriptFunctions.obj
 0001:00050120       ??Fconst_iterator@?$_Tree@V?$_Tmap_traits@V?$basic_string@DU?$char_traits@D@std@@V?$allocator@D@2@@std@@USTaskExBuffer@@U?$less@V?$basic_string@DU?$char_traits@D@std@@V?$allocator@D@2@@std@@@2@V?$allocator@U?$pair@$$CBV?$basic_string@DU?$char_traits@D@std@@V?$allocator@D@2@@std@@USTaskExBuffer@@@std@@@2@$0A@@std@@@std@@QAEAAV012@XZ 00451120 f i GameObjects:ExtraScriptFunctions.obj
 0001:00050140       ?_Dec@const_iterator@?$_Tree@V?$_Tset_traits@GU?$less@G@std@@V?$allocator@G@2@$0A@@std@@@std@@QAEXXZ 00451140 f i GameObjects:ExtraScriptFunctions.obj
 0001:00050220       ??Yiterator@?$vector@GV?$allocator@G@std@@@std@@QAEAAV012@H@Z 00451220 f i GameObjects:ExtraScriptFunctions.obj
 0001:00050240       ??Gconst_iterator@?$vector@GV?$allocator@G@std@@@std@@QBEHABV012@@Z 00451240 f i GameObjects:ExtraScriptFunctions.obj
 0001:00050260       ??0_Node@?$_Tree_nod@V?$_Tset_traits@GU?$less@G@std@@V?$allocator@G@2@$0A@@std@@@std@@QAE@PAU012@00ABGD@Z 00451260 f i GameObjects:ExtraScriptFunctions.obj
 0001:000502b0       ??0_Node@?$_Tree_nod@V?$_Tset_traits@KU?$less@K@std@@V?$allocator@K@2@$0A@@std@@@std@@QAE@PAU012@00ABKD@Z 004512b0 f i GameObjects:ExtraScriptFunctions.obj
 0001:00050300       ?free@?$simple_segregated_storage@I@boost@@QAEXQAX@Z 00451300 f i GameObjects:ExtraScriptFunctions.obj
 0001:00050330       ?max_size@?$allocator@USRawItemBuffer@typedef_v6@@@std@@QBEIXZ 00451330 f i GameObjects:ItemUser.obj
 0001:00050330       ?max_size@?$allocator@U?$pair@$$CB_KVCLinkData@@@std@@@std@@QBEIXZ 00451330 f i NetProviderModuleEx:NetProviderModule.obj
 0001:00050330       ?max_size@?$allocator@U?$pair@$$CBV?$basic_string@DU?$char_traits@D@std@@V?$allocator@D@2@@std@@USTaskExBuffer@@@std@@@std@@QBEIXZ 00451330 f i GameObjects:ExtraScriptFunctions.obj
 0001:00050360       ?_Max@?$_Tree@V?$_Tset_traits@GU?$less@G@std@@V?$allocator@G@2@$0A@@std@@@std@@KAPAU_Node@?$_Tree_nod@V?$_Tset_traits@GU?$less@G@std@@V?$allocator@G@2@$0A@@std@@@2@PAU342@@Z 00451360 f i GameObjects:ExtraScriptFunctions.obj
 0001:000503a0       ?_Dec@const_iterator@?$_Tree@V?$_Tmap_traits@V?$basic_string@DU?$char_traits@D@std@@V?$allocator@D@2@@std@@USTaskExBuffer@@U?$less@V?$basic_string@DU?$char_traits@D@std@@V?$allocator@D@2@@std@@@2@V?$allocator@U?$pair@$$CBV?$basic_string@DU?$char_traits@D@std@@V?$allocator@D@2@@std@@USTaskExBuffer@@@std@@@2@$0A@@std@@@std@@QAEXXZ 004513a0 f i GameObjects:ExtraScriptFunctions.obj
 0001:00050480       ??0_Node@?$_Tree_nod@V?$_Tmap_traits@V?$basic_string@DU?$char_traits@D@std@@V?$allocator@D@2@@std@@USTaskExBuffer@@U?$less@V?$basic_string@DU?$char_traits@D@std@@V?$allocator@D@2@@std@@@2@V?$allocator@U?$pair@$$CBV?$basic_string@DU?$char_traits@D@std@@V?$allocator@D@2@@std@@USTaskExBuffer@@@std@@@2@$0A@@std@@@std@@QAE@PAU012@00ABU?$pair@$$CBV?$basic_string@DU?$char_traits@D@std@@V?$allocator@D@2@@std@@USTaskExBuffer@@@2@D@Z 00451480 f i GameObjects:ExtraScriptFunctions.obj
 0001:000504d0       ??0?$pair@$$CBV?$basic_string@DU?$char_traits@D@std@@V?$allocator@D@2@@std@@USTaskExBuffer@@@std@@QAE@ABU01@@Z 004514d0 f i GameObjects:ExtraScriptFunctions.obj
 0001:00050520       ?find_prev@?$simple_segregated_storage@I@boost@@IAEPAXPAX@Z 00451520 f i GameObjects:ExtraScriptFunctions.obj
 0001:000505b0       ?ordered_malloc_need_resize@?$pool@Udefault_user_allocator_new_delete@boost@@@boost@@AAEPAXXZ 004515b0 f i GameObjects:ExtraScriptFunctions.obj
 0001:00050740       ?malloc@default_user_allocator_new_delete@boost@@SAPADI@Z 00451740 f i GameObjects:ExtraScriptFunctions.obj
 0001:00050760       ??$strcpy_s@$0BA@@@YAXAAY0BA@DPBD@Z 00451760 f i GameObjects:ExtraScriptFunctions.obj
 0001:00050780       ??$insert@Vconst_iterator@?$list@V?$shared_ptr@VIObject@@@boost@@V?$allocator@V?$shared_ptr@VIObject@@@boost@@@std@@@std@@@?$list@V?$shared_ptr@VIObject@@@boost@@V?$allocator@V?$shared_ptr@VIObject@@@boost@@@std@@@std@@QAEXViterator@01@Vconst_iterator@01@1@Z 00451780 f i GameObjects:ExtraScriptFunctions.obj
 0001:000507c0       ??$_Uninitialized_fill_n@PAGIGV?$allocator@G@std@@@std@@YAXPAGIABGAAV?$allocator@G@0@@Z 004517c0 f i GameObjects:ExtraScriptFunctions.obj
 0001:00050800       ??$_Allocate@U_Node@?$_List_nod@V?$shared_ptr@UCooler@@@boost@@V?$allocator@V?$shared_ptr@UCooler@@@boost@@@std@@@std@@@std@@YAPAU_Node@?$_List_nod@V?$shared_ptr@UCooler@@@boost@@V?$allocator@V?$shared_ptr@UCooler@@@boost@@@std@@@0@IPAU120@@Z 00451800 f i GameObjects:FightObject.obj
 0001:00050800       ??$_Allocate@U_tagXmlEntity@@@std@@YAPAU_tagXmlEntity@@IPAU1@@Z 00451800 f i GameObjects:BuffBaseData.obj
 0001:00050800       ??$_Allocate@U_Node@?$_List_nod@V?$shared_ptr@VIObject@@@boost@@V?$allocator@V?$shared_ptr@VIObject@@@boost@@@std@@@std@@@std@@YAPAU_Node@?$_List_nod@V?$shared_ptr@VIObject@@@boost@@V?$allocator@V?$shared_ptr@VIObject@@@boost@@@std@@@0@IPAU120@@Z 00451800 f i GameObjects:ExtraScriptFunctions.obj
 0001:00050800       ??$_Allocate@U_Node@?$_Tree_nod@V?$_Tset_traits@GU?$less@G@std@@V?$allocator@G@2@$0A@@std@@@std@@@std@@YAPAU_Node@?$_Tree_nod@V?$_Tset_traits@GU?$less@G@std@@V?$allocator@G@2@$0A@@std@@@0@IPAU120@@Z 00451800 f i GameObjects:ExtraScriptFunctions.obj
 0001:00050800       ??$_Allocate@U_Node@?$_List_nod@Vlua_variant@lite@@V?$allocator@Vlua_variant@lite@@@std@@@std@@@std@@YAPAU_Node@?$_List_nod@Vlua_variant@lite@@V?$allocator@Vlua_variant@lite@@@std@@@0@IPAU120@@Z 00451800 f i GameObjects:ScriptManager.obj
 0001:00050800       ??$_Allocate@VCScriptValue@@@std@@YAPAVCScriptValue@@IPAV1@@Z 00451800 f i GameObjects:DGameScript.obj
 0001:00050800       ??$_Allocate@UGenItemBatchParam@CItemUser@@@std@@YAPAUGenItemBatchParam@CItemUser@@IPAU12@@Z 00451800 f i GameObjects:ScriptManager.obj
 0001:00050820       ??$_Construct@PAU_Node@?$_List_nod@KV?$allocator@K@std@@@std@@PAU123@@std@@YAXPAPAU_Node@?$_List_nod@KV?$allocator@K@std@@@0@ABQAU120@@Z 00451820 f i GameObjects:FactionManager.obj
 0001:00050820       ??$_Construct@PAU_Node@?$_Tree_nod@V?$_Tmap_traits@KUTeam@@U?$less@K@std@@V?$allocator@U?$pair@$$CBKUTeam@@@std@@@3@$0A@@std@@@std@@PAU123@@std@@YAXPAPAU_Node@?$_Tree_nod@V?$_Tmap_traits@KUTeam@@U?$less@K@std@@V?$allocator@U?$pair@$$CBKUTeam@@@std@@@3@$0A@@std@@@0@ABQAU120@@Z 00451820 f i GameObjects:TeamManager.obj
 0001:00050820       ??$_Construct@PAU_Node@?$_List_nod@PAVCFightListener@@V?$allocator@PAVCFightListener@@@std@@@std@@PAU123@@std@@YAXPAPAU_Node@?$_List_nod@PAVCFightListener@@V?$allocator@PAVCFightListener@@@std@@@0@ABQAU120@@Z 00451820 f i GameObjects:FightObject.obj
 0001:00050820       ??$_Construct@PAU_Node@?$_Tree_nod@V?$_Tmap_traits@GHU?$less@G@std@@V?$allocator@U?$pair@$$CBGH@std@@@2@$0A@@std@@@std@@PAU123@@std@@YAXPAPAU_Node@?$_Tree_nod@V?$_Tmap_traits@GHU?$less@G@std@@V?$allocator@U?$pair@$$CBGH@std@@@2@$0A@@std@@@0@ABQAU120@@Z 00451820 f i GameObjects:Region.obj
 0001:00050820       ??$_Construct@PAU_Node@?$_Tree_nod@V?$_Tset_traits@GU?$less@G@std@@V?$allocator@G@2@$0A@@std@@@std@@PAU123@@std@@YAXPAPAU_Node@?$_Tree_nod@V?$_Tset_traits@GU?$less@G@std@@V?$allocator@G@2@$0A@@std@@@0@ABQAU120@@Z 00451820 f i GameObjects:Region.obj
 0001:00050820       ??$_Construct@PAU_Node@?$_List_nod@Vlua_variant@lite@@V?$allocator@Vlua_variant@lite@@@std@@@std@@PAU123@@std@@YAXPAPAU_Node@?$_List_nod@Vlua_variant@lite@@V?$allocator@Vlua_variant@lite@@@std@@@0@ABQAU120@@Z 00451820 f i GameObjects:ScriptManager.obj
 0001:00050820       ??$_Construct@PAU_Node@?$_Tree_nod@V?$_Tmap_traits@V?$basic_string@DU?$char_traits@D@std@@V?$allocator@D@2@@std@@HU?$less@V?$basic_string@DU?$char_traits@D@std@@V?$allocator@D@2@@std@@@2@V?$allocator@U?$pair@$$CBV?$basic_string@DU?$char_traits@D@std@@V?$allocator@D@2@@std@@H@std@@@2@$0A@@std@@@std@@PAU123@@std@@YAXPAPAU_Node@?$_Tree_nod@V?$_Tmap_traits@V?$basic_string@DU?$char_traits@D@std@@V?$allocator@D@2@@std@@HU?$less@V?$basic_string@DU?$char_traits@D@std@@V?$allocator@D@2@@std@@@2@V?$allocator@U?$pair@$$CBV?$basic_string@DU?$char_traits@D@std@@V?$allocator@D@2@@std@@H@std@@@2@$0A@@std@@@0@ABQAU120@@Z 00451820 f i 区域服务器.obj
 0001:00050820       ??$_Construct@PAU_Node@?$_Tree_nod@V?$_Tmap_traits@_KVCLinkData@@U?$less@_K@std@@V?$allocator@U?$pair@$$CB_KVCLinkData@@@std@@@3@$0A@@std@@@std@@PAU123@@std@@YAXPAPAU_Node@?$_Tree_nod@V?$_Tmap_traits@_KVCLinkData@@U?$less@_K@std@@V?$allocator@U?$pair@$$CB_KVCLinkData@@@std@@@3@$0A@@std@@@0@ABQAU120@@Z 00451820 f i NetProviderModuleEx:NetProviderModule.obj
 0001:00050820       ??$_Construct@PAU_Node@?$_Tree_nod@V?$_Tmap_traits@KUSFactionData@@U?$less@K@std@@V?$allocator@U?$pair@$$CBKUSFactionData@@@std@@@3@$0A@@std@@@std@@PAU123@@std@@YAXPAPAU_Node@?$_Tree_nod@V?$_Tmap_traits@KUSFactionData@@U?$less@K@std@@V?$allocator@U?$pair@$$CBKUSFactionData@@@std@@@3@$0A@@std@@@0@ABQAU120@@Z 00451820 f i GameObjects:FactionManager.obj
 0001:00050820       ??$_Construct@PAU_Node@?$_Tree_nod@V?$_Tmap_traits@KGU?$less@K@std@@V?$allocator@U?$pair@$$CBKG@std@@@2@$0A@@std@@@std@@PAU123@@std@@YAXPAPAU_Node@?$_Tree_nod@V?$_Tmap_traits@KGU?$less@K@std@@V?$allocator@U?$pair@$$CBKG@std@@@2@$0A@@std@@@0@ABQAU120@@Z 00451820 f i GameObjects:MonsterDrop.obj
 0001:00050820       ??$_Construct@PAU_Node@?$_Tree_nod@V?$_Tmap_traits@GV?$map@KGU?$less@K@std@@V?$allocator@U?$pair@$$CBKG@std@@@2@@std@@U?$less@G@2@V?$allocator@U?$pair@$$CBGV?$map@KGU?$less@K@std@@V?$allocator@U?$pair@$$CBKG@std@@@2@@std@@@std@@@2@$0A@@std@@@std@@PAU123@@std@@YAXPAPAU_Node@?$_Tree_nod@V?$_Tmap_traits@GV?$map@KGU?$less@K@std@@V?$allocator@U?$pair@$$CBKG@std@@@2@@std@@U?$less@G@2@V?$allocator@U?$pair@$$CBGV?$map@KGU?$less@K@std@@V?$allocator@U?$pair@$$CBKG@std@@@2@@std@@@std@@@2@$0A@@std@@@0@ABQAU120@@Z 00451820 f i GameObjects:MonsterDrop.obj
 0001:00050820       ??$_Construct@PAU_Node@?$_Tree_nod@V?$_Tmap_traits@K_KU?$less@K@std@@V?$allocator@U?$pair@$$CBK_K@std@@@2@$0A@@std@@@std@@PAU123@@std@@YAXPAPAU_Node@?$_Tree_nod@V?$_Tmap_traits@K_KU?$less@K@std@@V?$allocator@U?$pair@$$CBK_K@std@@@2@$0A@@std@@@0@ABQAU120@@Z 00451820 f i GameObjects:ScriptManager.obj
 0001:00050820       ??$_Construct@PAU_Node@?$_Tree_nod@V?$_Tmap_traits@UPath@ProfileManager@jex@@UNode@23@U?$less@UPath@ProfileManager@jex@@@std@@V?$allocator@U?$pair@$$CBUPath@ProfileManager@jex@@UNode@23@@std@@@6@$0A@@std@@@std@@PAU123@@std@@YAXPAPAU_Node@?$_Tree_nod@V?$_Tmap_traits@UPath@ProfileManager@jex@@UNode@23@U?$less@UPath@ProfileManager@jex@@@std@@V?$allocator@U?$pair@$$CBUPath@ProfileManager@jex@@UNode@23@@std@@@6@$0A@@std@@@0@ABQAU120@@Z 00451820 f i TimeProber.obj
 0001:00050820       ??$_Construct@PAUSNetServerPacket@@PAU1@@std@@YAXPAPAUSNetServerPacket@@ABQAU1@@Z 00451820 f i NetProviderModuleEx:NetProviderModule.obj
 0001:00050820       ??$_Construct@PAU_Node@?$_Tree_nod@V?$_Tmap_traits@PBDUSortNode@ProfileManager@jex@@U?$less@PBD@std@@V?$allocator@U?$pair@QBDUSortNode@ProfileManager@jex@@@std@@@5@$0A@@std@@@std@@PAU123@@std@@YAXPAPAU_Node@?$_Tree_nod@V?$_Tmap_traits@PBDUSortNode@ProfileManager@jex@@U?$less@PBD@std@@V?$allocator@U?$pair@QBDUSortNode@ProfileManager@jex@@@std@@@5@$0A@@std@@@0@ABQAU120@@Z 00451820 f i TimeProber.obj
 0001:00050820       ??$_Construct@PAUSNetServerPacketAdvEx@@PAU1@@std@@YAXPAPAUSNetServerPacketAdvEx@@ABQAU1@@Z 00451820 f i NetProviderModuleEx:NetProviderModuleAdvEx.obj
 0001:00050820       ??$_Construct@PAU_Node@?$_Tree_nod@V?$_Tset_traits@KU?$less@K@std@@V?$allocator@K@2@$0A@@std@@@std@@PAU123@@std@@YAXPAPAU_Node@?$_Tree_nod@V?$_Tset_traits@KU?$less@K@std@@V?$allocator@K@2@$0A@@std@@@0@ABQAU120@@Z 00451820 f i GameObjects:Region.obj
 0001:00050820       ??$_Construct@PAU_Node@?$_Tree_nod@V?$_Tmap_traits@_KVCLinkDataAdvEx@@U?$less@_K@std@@V?$allocator@U?$pair@$$CB_KVCLinkDataAdvEx@@@std@@@3@$0A@@std@@@std@@PAU123@@std@@YAXPAPAU_Node@?$_Tree_nod@V?$_Tmap_traits@_KVCLinkDataAdvEx@@U?$less@_K@std@@V?$allocator@U?$pair@$$CB_KVCLinkDataAdvEx@@@std@@@3@$0A@@std@@@0@ABQAU120@@Z 00451820 f i NetProviderModuleEx:NetProviderModuleAdvEx.obj
 0001:00050820       ??$_Construct@PAU_Node@?$_List_nod@USPlayerRelates@typedef_v6@@V?$allocator@USPlayerRelates@typedef_v6@@@std@@@std@@PAU123@@std@@YAXPAPAU_Node@?$_List_nod@USPlayerRelates@typedef_v6@@V?$allocator@USPlayerRelates@typedef_v6@@@std@@@0@ABQAU120@@Z 00451820 f i GameObjects:Player.obj
 0001:00050820       ??$_Construct@PAU_Node@?$_List_nod@USPackageItem@typedef_v6@@V?$allocator@USPackageItem@typedef_v6@@@std@@@std@@PAU123@@std@@YAXPAPAU_Node@?$_List_nod@USPackageItem@typedef_v6@@V?$allocator@USPackageItem@typedef_v6@@@std@@@0@ABQAU120@@Z 00451820 f i GameObjects:ItemUser.obj
 0001:00050820       ??$_Construct@PAU_Node@?$_Tree_nod@V?$_Tmap_traits@KUSHitData@CMonster@@U?$less@K@std@@V?$allocator@U?$pair@$$CBKUSHitData@CMonster@@@std@@@4@$0A@@std@@@std@@PAU123@@std@@YAXPAPAU_Node@?$_Tree_nod@V?$_Tmap_traits@KUSHitData@CMonster@@U?$less@K@std@@V?$allocator@U?$pair@$$CBKUSHitData@CMonster@@@std@@@4@$0A@@std@@@0@ABQAU120@@Z 00451820 f i GameObjects:Monster.obj
 0001:00050820       ??$_Construct@PAU_Node@?$_List_nod@USLuaEvent@@V?$allocator@USLuaEvent@@@std@@@std@@PAU123@@std@@YAXPAPAU_Node@?$_List_nod@USLuaEvent@@V?$allocator@USLuaEvent@@@std@@@0@ABQAU120@@Z 00451820 f i GameObjects:ScriptManager.obj
 0001:00050820       ??$_Construct@PAU_Node@?$_Tree_nod@V?$_Tmap_traits@IV?$shared_ptr@VIObject@@@boost@@U?$less@I@std@@V?$allocator@U?$pair@$$CBIV?$shared_ptr@VIObject@@@boost@@@std@@@4@$0A@@std@@@std@@PAU123@@std@@YAXPAPAU_Node@?$_Tree_nod@V?$_Tmap_traits@IV?$shared_ptr@VIObject@@@boost@@U?$less@I@std@@V?$allocator@U?$pair@$$CBIV?$shared_ptr@VIObject@@@boost@@@std@@@4@$0A@@std@@@0@ABQAU120@@Z 00451820 f i GameObjects:BaseObject.obj
 0001:00050820       ??$_Construct@PAU_Node@?$_Tree_nod@V?$_Tmap_traits@KUIRcd@@U?$less@K@std@@V?$allocator@U?$pair@$$CBKUIRcd@@@std@@@3@$0A@@std@@@std@@PAU123@@std@@YAXPAPAU_Node@?$_Tree_nod@V?$_Tmap_traits@KUIRcd@@U?$less@K@std@@V?$allocator@U?$pair@$$CBKUIRcd@@@std@@@3@$0A@@std@@@0@ABQAU120@@Z 00451820 f i GameObjects:ItemData.obj
 0001:00050820       ??$_Construct@KK@std@@YAXPAKABK@Z 00451820 f i TimeProber.obj
 0001:00050820       ??$_Construct@PAU_Node@?$_List_nod@PAVCDynamicRegion@@V?$allocator@PAVCDynamicRegion@@@std@@@std@@PAU123@@std@@YAXPAPAU_Node@?$_List_nod@PAVCDynamicRegion@@V?$allocator@PAVCDynamicRegion@@@std@@@0@ABQAU120@@Z 00451820 f i GameObjects:RegionManager.obj
 0001:00050820       ??$_Construct@PAU_Node@?$_Tree_nod@V?$_Tmap_traits@_KKU?$less@_K@std@@V?$allocator@U?$pair@$$CB_KK@std@@@2@$0A@@std@@@std@@PAU123@@std@@YAXPAPAU_Node@?$_Tree_nod@V?$_Tmap_traits@_KKU?$less@_K@std@@V?$allocator@U?$pair@$$CB_KK@std@@@2@$0A@@std@@@0@ABQAU120@@Z 00451820 f i GameObjects:PlayerManager.obj
 0001:00050820       ??$_Construct@PAUSFactionData@@PAU1@@std@@YAXPAPAUSFactionData@@ABQAU1@@Z 00451820 f i GameObjects:FactionManager.obj
 0001:00050820       ??$_Construct@PAU_tagXMLNode@@PAU1@@std@@YAXPAPAU_tagXMLNode@@ABQAU1@@Z 00451820 f i GameObjects:BuffBaseData.obj
 0001:00050820       ??$_Construct@PAU_Node@?$_Tree_nod@V?$_Tmap_traits@KUSTraceOBJ@CFuncTrace@@U?$less@K@std@@V?$allocator@U?$pair@$$CBKUSTraceOBJ@CFuncTrace@@@std@@@4@$0A@@std@@@std@@PAU123@@std@@YAXPAPAU_Node@?$_Tree_nod@V?$_Tmap_traits@KUSTraceOBJ@CFuncTrace@@U?$less@K@std@@V?$allocator@U?$pair@$$CBKUSTraceOBJ@CFuncTrace@@@std@@@4@$0A@@std@@@0@ABQAU120@@Z 00451820 f i GameObjects:Player.obj
 0001:00050820       ??$_Construct@PAU_Node@?$_Tree_nod@V?$_Tmap_traits@V?$basic_string@DU?$char_traits@D@std@@V?$allocator@D@2@@std@@PAVBuffBase@@U?$less@V?$basic_string@DU?$char_traits@D@std@@V?$allocator@D@2@@std@@@2@V?$allocator@U?$pair@$$CBV?$basic_string@DU?$char_traits@D@std@@V?$allocator@D@2@@std@@PAVBuffBase@@@std@@@2@$0A@@std@@@std@@PAU123@@std@@YAXPAPAU_Node@?$_Tree_nod@V?$_Tmap_traits@V?$basic_string@DU?$char_traits@D@std@@V?$allocator@D@2@@std@@PAVBuffBase@@U?$less@V?$basic_string@DU?$char_traits@D@std@@V?$allocator@D@2@@std@@@2@V?$allocator@U?$pair@$$CBV?$basic_string@DU?$char_traits@D@std@@V?$allocator@D@2@@std@@PAVBuffBase@@@std@@@2@$0A@@std@@@0@ABQAU120@@Z 00451820 f i GameObjects:Player.obj
 0001:00050820       ??$_Construct@PAU_Node@?$_Tree_nod@V?$_Tmap_traits@KUSFBData@@U?$less@K@std@@V?$allocator@U?$pair@$$CBKUSFBData@@@std@@@3@$0A@@std@@@std@@PAU123@@std@@YAXPAPAU_Node@?$_Tree_nod@V?$_Tmap_traits@KUSFBData@@U?$less@K@std@@V?$allocator@U?$pair@$$CBKUSFBData@@@std@@@3@$0A@@std@@@0@ABQAU120@@Z 00451820 f i GameObjects:Relation.obj
 0001:00050820       ??$_Construct@PAUSNetClientPacket@@PAU1@@std@@YAXPAPAUSNetClientPacket@@ABQAU1@@Z 00451820 f i NetConsumerModule:NetConsummerModule.obj
 0001:00050820       ??$_Construct@PAU_Node@?$_Tree_nod@V?$_Tmap_traits@HV?$vector@USItemOddsTabledata@@V?$allocator@USItemOddsTabledata@@@std@@@std@@U?$less@H@2@V?$allocator@U?$pair@$$CBHV?$vector@USItemOddsTabledata@@V?$allocator@USItemOddsTabledata@@@std@@@std@@@std@@@2@$0A@@std@@@std@@PAU123@@std@@YAXPAPAU_Node@?$_Tree_nod@V?$_Tmap_traits@HV?$vector@USItemOddsTabledata@@V?$allocator@USItemOddsTabledata@@@std@@@std@@U?$less@H@2@V?$allocator@U?$pair@$$CBHV?$vector@USItemOddsTabledata@@V?$allocator@USItemOddsTabledata@@@std@@@std@@@std@@@2@$0A@@std@@@0@ABQAU120@@Z 00451820 f i GameObjects:ScriptManager.obj
 0001:00050820       ??$_Construct@PAU_Node@?$_Tree_nod@V?$_Tmap_traits@V?$basic_string@DU?$char_traits@D@std@@V?$allocator@D@2@@std@@PAUCooler@@U?$less@V?$basic_string@DU?$char_traits@D@std@@V?$allocator@D@2@@std@@@2@V?$allocator@U?$pair@$$CBV?$basic_string@DU?$char_traits@D@std@@V?$allocator@D@2@@std@@PAUCooler@@@std@@@2@$0A@@std@@@std@@PAU123@@std@@YAXPAPAU_Node@?$_Tree_nod@V?$_Tmap_traits@V?$basic_string@DU?$char_traits@D@std@@V?$allocator@D@2@@std@@PAUCooler@@U?$less@V?$basic_string@DU?$char_traits@D@std@@V?$allocator@D@2@@std@@@2@V?$allocator@U?$pair@$$CBV?$basic_string@DU?$char_traits@D@std@@V?$allocator@D@2@@std@@PAUCooler@@@std@@@2@$0A@@std@@@0@ABQAU120@@Z 00451820 f i GameObjects:FightObject.obj
 0001:00050820       ??$_Construct@PAU_Node@?$_Tree_nod@V?$_Tmap_traits@V?$basic_string@DU?$char_traits@D@std@@V?$allocator@D@2@@std@@USTraceFile@@U?$less@V?$basic_string@DU?$char_traits@D@std@@V?$allocator@D@2@@std@@@2@V?$allocator@U?$pair@$$CBV?$basic_string@DU?$char_traits@D@std@@V?$allocator@D@2@@std@@USTraceFile@@@std@@@2@$0A@@std@@@std@@PAU123@@std@@YAXPAPAU_Node@?$_Tree_nod@V?$_Tmap_traits@V?$basic_string@DU?$char_traits@D@std@@V?$allocator@D@2@@std@@USTraceFile@@U?$less@V?$basic_string@DU?$char_traits@D@std@@V?$allocator@D@2@@std@@@2@V?$allocator@U?$pair@$$CBV?$basic_string@DU?$char_traits@D@std@@V?$allocator@D@2@@std@@USTraceFile@@@std@@@2@$0A@@std@@@0@ABQAU120@@Z 00451820 f i traceinfo.obj
 0001:00050820       ??$_Construct@PAU_Node@?$_Tree_nod@V?$_Tmap_traits@V?$basic_string@DU?$char_traits@D@std@@V?$allocator@D@2@@std@@KU?$less@V?$basic_string@DU?$char_traits@D@std@@V?$allocator@D@2@@std@@@2@V?$allocator@U?$pair@$$CBV?$basic_string@DU?$char_traits@D@std@@V?$allocator@D@2@@std@@K@std@@@2@$0A@@std@@@std@@PAU123@@std@@YAXPAPAU_Node@?$_Tree_nod@V?$_Tmap_traits@V?$basic_string@DU?$char_traits@D@std@@V?$allocator@D@2@@std@@KU?$less@V?$basic_string@DU?$char_traits@D@std@@V?$allocator@D@2@@std@@@2@V?$allocator@U?$pair@$$CBV?$basic_string@DU?$char_traits@D@std@@V?$allocator@D@2@@std@@K@std@@@2@$0A@@std@@@0@ABQAU120@@Z 00451820 f i GameObjects:Player.obj
 0001:00050820       ??$_Construct@PAU_Node@?$_Tree_nod@V?$_Tmap_traits@V?$basic_string@DU?$char_traits@D@std@@V?$allocator@D@2@@std@@USTaskExBuffer@@U?$less@V?$basic_string@DU?$char_traits@D@std@@V?$allocator@D@2@@std@@@2@V?$allocator@U?$pair@$$CBV?$basic_string@DU?$char_traits@D@std@@V?$allocator@D@2@@std@@USTaskExBuffer@@@std@@@2@$0A@@std@@@std@@PAU123@@std@@YAXPAPAU_Node@?$_Tree_nod@V?$_Tmap_traits@V?$basic_string@DU?$char_traits@D@std@@V?$allocator@D@2@@std@@USTaskExBuffer@@U?$less@V?$basic_string@DU?$char_traits@D@std@@V?$allocator@D@2@@std@@@2@V?$allocator@U?$pair@$$CBV?$basic_string@DU?$char_traits@D@std@@V?$allocator@D@2@@std@@USTaskExBuffer@@@std@@@2@$0A@@std@@@0@ABQAU120@@Z 00451820 f i GameObjects:ScriptManager.obj
 0001:00050820       ??$_Construct@PAU_Node@?$_List_nod@UtempAddItem@CPlayer@@V?$allocator@UtempAddItem@CPlayer@@@std@@@std@@PAU123@@std@@YAXPAPAU_Node@?$_List_nod@UtempAddItem@CPlayer@@V?$allocator@UtempAddItem@CPlayer@@@std@@@0@ABQAU120@@Z 00451820 f i GameObjects:Player.obj
 0001:00050820       ??$_Construct@PAU_tagXMLAttr@@PAU1@@std@@YAXPAPAU_tagXMLAttr@@ABQAU1@@Z 00451820 f i GameObjects:BuffBaseData.obj
 0001:00050820       ??$_Construct@PAU_Node@?$_Tree_nod@V?$_Tmap_traits@_KU?$pair@_K_K@std@@U?$less@_K@2@V?$allocator@U?$pair@$$CB_KU?$pair@_K_K@std@@@std@@@2@$0A@@std@@@std@@PAU123@@std@@YAXPAPAU_Node@?$_Tree_nod@V?$_Tmap_traits@_KU?$pair@_K_K@std@@U?$less@_K@2@V?$allocator@U?$pair@$$CB_KU?$pair@_K_K@std@@@std@@@2@$0A@@std@@@0@ABQAU120@@Z 00451820 f i NetProviderModuleEx:NetProviderModuleAdvEx.obj
 0001:00050820       ??$_Construct@PAU_Node@?$_List_nod@USRelatesBase@typedef_v6@@V?$allocator@USRelatesBase@typedef_v6@@@std@@@std@@PAU123@@std@@YAXPAPAU_Node@?$_List_nod@USRelatesBase@typedef_v6@@V?$allocator@USRelatesBase@typedef_v6@@@std@@@0@ABQAU120@@Z 00451820 f i GameObjects:Player.obj
 0001:00050820       ??$_Construct@PAU_Node@?$_Tree_nod@V?$_Tmap_traits@V?$basic_string@DU?$char_traits@D@std@@V?$allocator@D@2@@std@@UNode@ProfileManager@jex@@U?$less@V?$basic_string@DU?$char_traits@D@std@@V?$allocator@D@2@@std@@@2@V?$allocator@U?$pair@$$CBV?$basic_string@DU?$char_traits@D@std@@V?$allocator@D@2@@std@@UNode@ProfileManager@jex@@@std@@@2@$0A@@std@@@std@@PAU123@@std@@YAXPAPAU_Node@?$_Tree_nod@V?$_Tmap_traits@V?$basic_string@DU?$char_traits@D@std@@V?$allocator@D@2@@std@@UNode@ProfileManager@jex@@U?$less@V?$basic_string@DU?$char_traits@D@std@@V?$allocator@D@2@@std@@@2@V?$allocator@U?$pair@$$CBV?$basic_string@DU?$char_traits@D@std@@V?$allocator@D@2@@std@@UNode@ProfileManager@jex@@@std@@@2@$0A@@std@@@0@ABQAU120@@Z 00451820 f i TimeProber.obj
 0001:00050820       ??$_Construct@PAU_Node@?$_Tree_nod@V?$_Tmap_traits@GGU?$less@G@std@@V?$allocator@U?$pair@$$CBGG@std@@@2@$0A@@std@@@std@@PAU123@@std@@YAXPAPAU_Node@?$_Tree_nod@V?$_Tmap_traits@GGU?$less@G@std@@V?$allocator@U?$pair@$$CBGG@std@@@2@$0A@@std@@@0@ABQAU120@@Z 00451820 f i GameObjects:MonsterDrop.obj
 0001:00050820       ??$_Construct@PAU_Node@?$_Tree_nod@V?$_Tmap_traits@HV?$shared_ptr@V?$pool@Udefault_user_allocator_new_delete@boost@@@boost@@@boost@@U?$less@H@std@@V?$allocator@U?$pair@$$CBHV?$shared_ptr@V?$pool@Udefault_user_allocator_new_delete@boost@@@boost@@@boost@@@std@@@4@$0A@@std@@@std@@PAU123@@std@@YAXPAPAU_Node@?$_Tree_nod@V?$_Tmap_traits@HV?$shared_ptr@V?$pool@Udefault_user_allocator_new_delete@boost@@@boost@@@boost@@U?$less@H@std@@V?$allocator@U?$pair@$$CBHV?$shared_ptr@V?$pool@Udefault_user_allocator_new_delete@boost@@@boost@@@boost@@@std@@@4@$0A@@std@@@0@ABQAU120@@Z 00451820 f i GameObjects:Region.obj
 0001:00050820       ??$_Construct@PAU_Node@?$_List_nod@V?$shared_ptr@UCooler@@@boost@@V?$allocator@V?$shared_ptr@UCooler@@@boost@@@std@@@std@@PAU123@@std@@YAXPAPAU_Node@?$_List_nod@V?$shared_ptr@UCooler@@@boost@@V?$allocator@V?$shared_ptr@UCooler@@@boost@@@std@@@0@ABQAU120@@Z 00451820 f i GameObjects:FightObject.obj
 0001:00050820       ??$_Construct@PAU_Node@?$_List_nod@V?$basic_string@DU?$char_traits@D@std@@V?$allocator@D@2@@std@@V?$allocator@V?$basic_string@DU?$char_traits@D@std@@V?$allocator@D@2@@std@@@2@@std@@PAU123@@std@@YAXPAPAU_Node@?$_List_nod@V?$basic_string@DU?$char_traits@D@std@@V?$allocator@D@2@@std@@V?$allocator@V?$basic_string@DU?$char_traits@D@std@@V?$allocator@D@2@@std@@@2@@0@ABQAU120@@Z 00451820 f i 区域服务器.obj
 0001:00050820       ??$_Construct@PAU_Node@?$_Tree_nod@V?$_Tmap_traits@V?$stringkey@$$BY0BF@D@dwt@@KU?$less@V?$stringkey@$$BY0BF@D@dwt@@@std@@V?$allocator@U?$pair@$$CBV?$stringkey@$$BY0BF@D@dwt@@K@std@@@4@$0A@@std@@@std@@PAU123@@std@@YAXPAPAU_Node@?$_Tree_nod@V?$_Tmap_traits@V?$stringkey@$$BY0BF@D@dwt@@KU?$less@V?$stringkey@$$BY0BF@D@dwt@@@std@@V?$allocator@U?$pair@$$CBV?$stringkey@$$BY0BF@D@dwt@@K@std@@@4@$0A@@std@@@0@ABQAU120@@Z 00451820 f i GameObjects:PlayerManager.obj
 0001:00050820       ??$_Construct@PAU_Node@?$_Tree_nod@V?$_Tmap_traits@GJU?$less@G@std@@V?$allocator@U?$pair@$$CBGJ@std@@@2@$0A@@std@@@std@@PAU123@@std@@YAXPAPAU_Node@?$_Tree_nod@V?$_Tmap_traits@GJU?$less@G@std@@V?$allocator@U?$pair@$$CBGJ@std@@@2@$0A@@std@@@0@ABQAU120@@Z 00451820 f i GameObjects:Item.obj
 0001:00050820       ??$_Construct@PAUSMoiler@@PAU1@@std@@YAXPAPAUSMoiler@@ABQAU1@@Z 00451820 f i MoilWorker.obj
 0001:00050820       ??$_Construct@PAU_Node@?$_List_nod@USMonsterData@@V?$allocator@USMonsterData@@@std@@@std@@PAU123@@std@@YAXPAPAU_Node@?$_List_nod@USMonsterData@@V?$allocator@USMonsterData@@@std@@@0@ABQAU120@@Z 00451820 f i GameObjects:Monster.obj
 0001:00050820       ??$_Construct@PAU_Node@?$_List_nod@V?$shared_ptr@VIObject@@@boost@@V?$allocator@V?$shared_ptr@VIObject@@@boost@@@std@@@std@@PAU123@@std@@YAXPAPAU_Node@?$_List_nod@V?$shared_ptr@VIObject@@@boost@@V?$allocator@V?$shared_ptr@VIObject@@@boost@@@std@@@0@ABQAU120@@Z 00451820 f i GameObjects:ExtraScriptFunctions.obj
 0001:00050820       ??$_Construct@PAU_Node@?$_Tree_nod@V?$_Tmap_traits@PBDV?$deque@KV?$allocator@K@std@@@std@@U?$less@PBD@2@V?$allocator@U?$pair@QBDV?$deque@KV?$allocator@K@std@@@std@@@std@@@2@$0A@@std@@@std@@PAU123@@std@@YAXPAPAU_Node@?$_Tree_nod@V?$_Tmap_traits@PBDV?$deque@KV?$allocator@K@std@@@std@@U?$less@PBD@2@V?$allocator@U?$pair@QBDV?$deque@KV?$allocator@K@std@@@std@@@std@@@2@$0A@@std@@@0@ABQAU120@@Z 00451820 f i TimeProber.obj
 0001:00050820       ??$_Construct@PAXPAX@std@@YAXPAPAXABQAX@Z 00451820 f i MoilWorker.obj
 0001:00050820       ??$_Construct@PAU_Node@?$_Tree_nod@V?$_Tmap_traits@V?$basic_string@DU?$char_traits@D@std@@V?$allocator@D@2@@std@@UCMD_FUNCDATA@StaticSingleton@@U?$less@V?$basic_string@DU?$char_traits@D@std@@V?$allocator@D@2@@std@@@2@V?$allocator@U?$pair@$$CBV?$basic_string@DU?$char_traits@D@std@@V?$allocator@D@2@@std@@UCMD_FUNCDATA@StaticSingleton@@@std@@@2@$0A@@std@@@std@@PAU123@@std@@YAXPAPAU_Node@?$_Tree_nod@V?$_Tmap_traits@V?$basic_string@DU?$char_traits@D@std@@V?$allocator@D@2@@std@@UCMD_FUNCDATA@StaticSingleton@@U?$less@V?$basic_string@DU?$char_traits@D@std@@V?$allocator@D@2@@std@@@2@V?$allocator@U?$pair@$$CBV?$basic_string@DU?$char_traits@D@std@@V?$allocator@D@2@@std@@UCMD_FUNCDATA@StaticSingleton@@@std@@@2@$0A@@std@@@0@ABQAU120@@Z 00451820 f i 区域服务器.obj
 0001:00050820       ??$_Construct@PAU_Node@?$_Tree_nod@V?$_Tmap_traits@KKU?$less@K@std@@V?$allocator@U?$pair@$$CBKK@std@@@2@$0A@@std@@@std@@PAU123@@std@@YAXPAPAU_Node@?$_Tree_nod@V?$_Tmap_traits@KKU?$less@K@std@@V?$allocator@U?$pair@$$CBKK@std@@@2@$0A@@std@@@0@ABQAU120@@Z 00451820 f i GameObjects:Player.obj
 0001:00050820       ??$_Construct@PAU_Node@?$_Tree_nod@V?$_Tmap_traits@HVCTrigger@@U?$less@H@std@@V?$allocator@U?$pair@$$CBHVCTrigger@@@std@@@3@$0A@@std@@@std@@PAU123@@std@@YAXPAPAU_Node@?$_Tree_nod@V?$_Tmap_traits@HVCTrigger@@U?$less@H@std@@V?$allocator@U?$pair@$$CBHVCTrigger@@@std@@@3@$0A@@std@@@0@ABQAU120@@Z 00451820 f i GameObjects:Region.obj
 0001:00050860       ??$_Ucopy@PAG@?$vector@GV?$allocator@G@std@@@std@@IAEPAGPAG00@Z 00451860 f i GameObjects:ExtraScriptFunctions.obj
 0001:00050890       ??$fill@PAGG@std@@YAXPAG0ABG@Z 00451890 f i GameObjects:ExtraScriptFunctions.obj
 0001:000508c0       ??$copy_backward@PAGPAG@std@@YAPAGPAG00@Z 004518c0 f i GameObjects:ExtraScriptFunctions.obj
 0001:00050900       ??$_Allocate@USItemDropTableData@@@std@@YAPAUSItemDropTableData@@IPAU1@@Z 00451900 f i GameObjects:Monster.obj
 0001:00050900       ??$_Allocate@U_Node@?$_Tree_nod@V?$_Tset_traits@KU?$less@K@std@@V?$allocator@K@2@$0A@@std@@@std@@@std@@YAPAU_Node@?$_Tree_nod@V?$_Tset_traits@KU?$less@K@std@@V?$allocator@K@2@$0A@@std@@@0@IPAU120@@Z 00451900 f i GameObjects:ExtraScriptFunctions.obj
 0001:00050900       ??$_Allocate@U_Node@?$_Tree_nod@V?$_Tmap_traits@GGU?$less@G@std@@V?$allocator@U?$pair@$$CBGG@std@@@2@$0A@@std@@@std@@@std@@YAPAU_Node@?$_Tree_nod@V?$_Tmap_traits@GGU?$less@G@std@@V?$allocator@U?$pair@$$CBGG@std@@@2@$0A@@std@@@0@IPAU120@@Z 00451900 f i GameObjects:MonsterDrop.obj
 0001:00050920       ?alloc_size@?$pool@Udefault_user_allocator_new_delete@boost@@@boost@@IBEIXZ 00451920 f i GameObjects:ExtraScriptFunctions.obj
 0001:00050950       ?add_block@?$simple_segregated_storage@I@boost@@QAEXQAXII@Z 00451950 f i GameObjects:ExtraScriptFunctions.obj
 0001:00050980       ?valid@?$PODptr@I@details@boost@@QBE_NXZ 00451980 f i GameObjects:ExtraScriptFunctions.obj
 0001:000509a0       ?element_size@?$PODptr@I@details@boost@@QBEIXZ 004519a0 f i GameObjects:ExtraScriptFunctions.obj
 0001:000509c0       ?next@?$PODptr@I@details@boost@@QBE?AV123@XZ 004519c0 f i GameObjects:ExtraScriptFunctions.obj
 0001:000509f0       ?next@?$PODptr@I@details@boost@@QBEXABV123@@Z 004519f0 f i GameObjects:ExtraScriptFunctions.obj
 0001:00050a30       ??R?$greater@PAX@std@@QBE_NABQAX0@Z 00451a30 f i GameObjects:ExtraScriptFunctions.obj
 0001:00050a50       ?ptr_next_ptr@?$PODptr@I@details@boost@@ABEPADXZ 00451a50 f i GameObjects:ExtraScriptFunctions.obj
 0001:00050a70       ?IsViable@Counter@?A0xc9aca174@fge@@QAEHXZ 00451a70 f i GameObjects:EventManager.obj
 0001:00050a70       ?GetCounter@SharedObject@fge@@AAEPAVCounter@?A0xc9aca174@2@XZ 00451a70 f i GameObjects:EventManager.obj
 0001:00050a70       ?total_size@?$PODptr@I@details@boost@@QBEIXZ 00451a70 f i GameObjects:ExtraScriptFunctions.obj
 0001:00050a70       ?use_count@sp_counted_base@detail@boost@@QBEJXZ 00451a70 f i GameObjects:ScriptManager.obj
 0001:00050a90       ?next_size@?$PODptr@I@details@boost@@QBEAAIXZ 00451a90 f i GameObjects:ExtraScriptFunctions.obj
 0001:00050ab0       ?ptr_next_size@?$PODptr@I@details@boost@@ABEPADXZ 00451ab0 f i GameObjects:ExtraScriptFunctions.obj
 0001:00050ad0       ?segregate@?$simple_segregated_storage@I@boost@@SAPAXPAXII0@Z 00451ad0 f i GameObjects:ExtraScriptFunctions.obj
 0001:00050b60       ??$_Insert@Vconst_iterator@?$list@V?$shared_ptr@VIObject@@@boost@@V?$allocator@V?$shared_ptr@VIObject@@@boost@@@std@@@std@@@?$list@V?$shared_ptr@VIObject@@@boost@@V?$allocator@V?$shared_ptr@VIObject@@@boost@@@std@@@std@@QAEXViterator@01@Vconst_iterator@01@1Uforward_iterator_tag@1@@Z 00451b60 f i GameObjects:ExtraScriptFunctions.obj
 0001:00050c40       ??$_Uninit_fill_n@GIG@std@@YAXPAGIABGAAV?$allocator@G@0@U_Scalar_ptr_iterator_tag@0@@Z 00451c40 f i GameObjects:ExtraScriptFunctions.obj
 0001:00050c60       ??$_Uninitialized_copy@PAGPAGV?$allocator@G@std@@@std@@YAPAGPAG00AAV?$allocator@G@0@@Z 00451c60 f i GameObjects:ExtraScriptFunctions.obj
 0001:00050ca0       ??$_Copy_backward_opt@PAGPAG@std@@YAPAGPAG00U_Scalar_ptr_iterator_tag@0@@Z 00451ca0 f i GameObjects:ExtraScriptFunctions.obj
 0001:00050ce0       ??$lcm@I@pool@details@boost@@YAIABI0@Z 00451ce0 f i GameObjects:ExtraScriptFunctions.obj
 0001:00050d20       ?_Insert@?$list@V?$shared_ptr@VIObject@@@boost@@V?$allocator@V?$shared_ptr@VIObject@@@boost@@@std@@@std@@QAEXViterator@12@ABV?$shared_ptr@VIObject@@@boost@@@Z 00451d20 f i GameObjects:ExtraScriptFunctions.obj
 0001:00050da0       ?erase@?$list@V?$shared_ptr@VIObject@@@boost@@V?$allocator@V?$shared_ptr@VIObject@@@boost@@@std@@@std@@QAE?AViterator@12@V312@@Z 00451da0 f i GameObjects:ExtraScriptFunctions.obj
 0001:00050e60       ?_Buynode@?$list@V?$shared_ptr@VIObject@@@boost@@V?$allocator@V?$shared_ptr@VIObject@@@boost@@@std@@@std@@IAEPAU_Node@?$_List_nod@V?$shared_ptr@VIObject@@@boost@@V?$allocator@V?$shared_ptr@VIObject@@@boost@@@std@@@2@PAU342@0ABV?$shared_ptr@VIObject@@@boost@@@Z 00451e60 f i GameObjects:ExtraScriptFunctions.obj
 0001:00050f20       ?_Incsize@?$list@V?$shared_ptr@VIObject@@@boost@@V?$allocator@V?$shared_ptr@VIObject@@@boost@@@std@@@std@@IAEXI@Z 00451f20 f i GameObjects:ExtraScriptFunctions.obj
 0001:00050fa0       ??Fconst_iterator@?$list@V?$basic_string@DU?$char_traits@D@std@@V?$allocator@D@2@@std@@V?$allocator@V?$basic_string@DU?$char_traits@D@std@@V?$allocator@D@2@@std@@@2@@std@@QAEAAV012@XZ 00451fa0 f i StdFrame.obj
 0001:00050fa0       ??Fconst_iterator@?$list@V?$shared_ptr@VIObject@@@boost@@V?$allocator@V?$shared_ptr@VIObject@@@boost@@@std@@@std@@QAEAAV012@XZ 00451fa0 f i GameObjects:ExtraScriptFunctions.obj
 0001:00050fa0       ??Fconst_iterator@?$list@USLuaEvent@@V?$allocator@USLuaEvent@@@std@@@std@@QAEAAV012@XZ 00451fa0 f i GameObjects:ScriptManager.obj
 0001:00050fa0       ??Fconst_iterator@?$list@Vlua_variant@lite@@V?$allocator@Vlua_variant@lite@@@std@@@std@@QAEAAV012@XZ 00451fa0 f i GameObjects:ScriptManager.obj
 0001:00050fd0       ??0_Node@?$_List_nod@V?$shared_ptr@UCooler@@@boost@@V?$allocator@V?$shared_ptr@UCooler@@@boost@@@std@@@std@@QAE@PAU012@0ABV?$shared_ptr@UCooler@@@boost@@@Z 00451fd0 f i GameObjects:CooldownMgr.obj
 0001:00050fd0       ??0_Node@?$_List_nod@V?$shared_ptr@VIObject@@@boost@@V?$allocator@V?$shared_ptr@VIObject@@@boost@@@std@@@std@@QAE@PAU012@0ABV?$shared_ptr@VIObject@@@boost@@@Z 00451fd0 f i GameObjects:ExtraScriptFunctions.obj
 0001:00051000       ??$fill_n@PAGIG@std@@YAXPAGIABG@Z 00452000 f i GameObjects:ExtraScriptFunctions.obj
 0001:00051030       ??$_Uninit_copy@GG@std@@YAPAGPAG00AAV?$allocator@G@0@U_Scalar_ptr_iterator_tag@0@@Z 00452030 f i GameObjects:ExtraScriptFunctions.obj
 0001:00051060       ??$gcd@I@pool@details@boost@@YAIII@Z 00452060 f i GameObjects:ExtraScriptFunctions.obj
 0001:00051090       ??RSerializer@lite@@QAEAAV01@PAXI@Z 00452090 f i GameObjects:ExtraScriptFunctions.obj
 0001:00051100       ??0Variant@lite@@QAE@PBXI@Z 00452100 f i GameObjects:ExtraScriptFunctions.obj
 0001:00051160       ??0lua_variant@lite@@QAE@PAUlua_State@@H@Z 00452160 f i GameObjects:ExtraScriptFunctions.obj
 0001:00051360       ?allocate@?$allocator@G@std@@QAEPAGI@Z 00452360 f i GameObjects:ExtraScriptFunctions.obj
 0001:00051380       ?max_size@?$allocator@G@std@@QBEIXZ 00452380 f i GameObjects:ExtraScriptFunctions.obj
 0001:000513b0       ??$_Allocate@G@std@@YAPAGIPAG@Z 004523b0 f i GameObjects:ExtraScriptFunctions.obj
 0001:000513d0       ??1?$object_pool@USMonsterData@@Udefault_user_allocator_new_delete@boost@@@boost@@QAE@XZ 004523d0 f i GameObjects:ExtraScriptFunctions.obj
 0001:000514f0       ?free@default_user_allocator_new_delete@boost@@SAXQAD@Z 004524f0 f i GameObjects:ExtraScriptFunctions.obj
 0001:00051510       ??1?$pool@Udefault_user_allocator_new_delete@boost@@@boost@@QAE@XZ 00452510 f i GameObjects:ExtraScriptFunctions.obj
 0001:00051530       ?purge_memory@?$pool@Udefault_user_allocator_new_delete@boost@@@boost@@QAE_NXZ 00452530 f i GameObjects:ExtraScriptFunctions.obj
 0001:000515b0       ?invalidate@?$PODptr@I@details@boost@@QAEXXZ 004525b0 f i GameObjects:ExtraScriptFunctions.obj
 0001:000515d0       ?next_ptr@?$PODptr@I@details@boost@@QBEAAPADXZ 004525d0 f i GameObjects:ExtraScriptFunctions.obj
 0001:000515d0       ?end@?$PODptr@I@details@boost@@QBEPADXZ 004525d0 f i GameObjects:ExtraScriptFunctions.obj
 0001:000515f0       ?g_GetGuid@@YAKH@Z         004525f0 f   GameObjects:GameWorld.obj
 0001:00051700       ?ClearClient@@YAH_K@Z      00452700 f   GameObjects:GameWorld.obj
 0001:00051730       ?OnPlayerDisconnect@@YAX_K@Z 00452730 f   GameObjects:GameWorld.obj
 0001:000517c0       ?ReconnectAllServer@@YAXXZ 004527c0 f   GameObjects:GameWorld.obj
 0001:000517e0       ?PutPlayerIntoDestRegion@@YAHPAVCPlayer@@GGGK_N@Z 004527e0 f   GameObjects:GameWorld.obj
 0001:00051880       ?GetGW@@YAAAPAVCGameWorld@@XZ 00452880 f   GameObjects:GameWorld.obj
 0001:00051890       ??0CGameWorld@@QAE@XZ      00452890 f   GameObjects:GameWorld.obj
 0001:00051950       ??1CGameWorld@@UAE@XZ      00452950 f   GameObjects:GameWorld.obj
 0001:00051a60       ?Initialize@CGameWorld@@QAEHXZ 00452a60 f   GameObjects:GameWorld.obj
 0001:00051d00       ?Run@CGameWorld@@QAEXXZ    00452d00 f   GameObjects:GameWorld.obj
 0001:00051f60       ?Destroy@CGameWorld@@QAEXXZ 00452f60 f   GameObjects:GameWorld.obj
 0001:00052020       ?DisplayServerInfo@CGameWorld@@QAEXD@Z 00453020 f   GameObjects:GameWorld.obj
 0001:00052090       ?OnDispatch@CGameWorld@@QAEH_KPAUSMessage@@PAVCPlayer@@@Z 00453090 f   GameObjects:GameWorld.obj
 0001:000524b0       ?DispatchSysMessage@CGameWorld@@QAEH_KPAUSSysBaseMsg@@PAVCPlayer@@@Z 004534b0 f   GameObjects:GameWorld.obj
 0001:00052530       ?DispatchRelationMessage@CGameWorld@@QAEH_KPAUSRelationBaseMsg@@PAVCPlayer@@@Z 00453530 f   GameObjects:GameWorld.obj
 0001:00052a00       ?DispatchChatMessage@CGameWorld@@QAEH_KPAUSChatBaseMsg@@PAVCPlayer@@@Z 00453a00 f   GameObjects:GameWorld.obj
 0001:00052a40       ?SetPlayerData@CGameWorld@@QAEH_KKPAUSFixProperty@typedef_v6@@PAUSPlayerTempData@3@@Z 00453a40 f   GameObjects:GameWorld.obj
 0001:00052d70       ?CreateNewPlayer@CGameWorld@@QAEH_KPBDKKKK0@Z 00453d70 f   GameObjects:GameWorld.obj
 0001:00053450       ?OnLogout@CGameWorld@@IAEH_KPAUSQLogoutMsg@@PAVCPlayer@@@Z 00454450 f   GameObjects:GameWorld.obj
 0001:000535b0       ?MoveMonster@CGameWorld@@QAEHV?$shared_ptr@VIObject@@@boost@@GG@Z 004545b0 f   GameObjects:GameWorld.obj
 0001:00053750       ?PutPlayerIntoRegion@CGameWorld@@QAEHV?$shared_ptr@VIObject@@@boost@@GGGK_N@Z 00454750 f   GameObjects:GameWorld.obj
 0001:00053f30       ?RebindPlayerToNewRegionServer@CGameWorld@@QAEHPAUSAResolutionDestRegionMsg@@@Z 00454f30 f   GameObjects:GameWorld.obj
 0001:00054230       ?LookOtherPlayerEquipment@CGameWorld@@QAEHPAVCPlayer@@0E_N@Z 00455230 f   GameObjects:GameWorld.obj
 0001:000544e0       ?SendSystemMailToPlayer@CGameWorld@@QAEX_KPAUSQGMSendMailMsg@@@Z 004554e0 f   GameObjects:GameWorld.obj
 0001:000545f0       ?UpDateDBByTime@CGameWorld@@QAEXXZ 004555f0 f   GameObjects:GameWorld.obj
 0001:000547c0       ??_ECGameWorld@@UAEPAXI@Z  004557c0 f i GameObjects:GameWorld.obj
